
zephyr.elf:     file format elf32-littlearm


Disassembly of section rom_start:

00000000 <_vector_table>:
#include <syscalls/z_errno_mrsh.c>

#else
int *z_impl_z_errno(void)
{
	return &_current->errno_var;
   0:	a0 0e 00 20 8d 22 00 00 15 5e 00 00 61 22 00 00     ... ."...^..a"..
  10:	61 22 00 00 61 22 00 00 61 22 00 00 00 00 00 00     a"..a"..a"......
	...
  2c:	75 1f 00 00 61 22 00 00 00 00 00 00 21 1f 00 00     u...a"......!...
  3c:	61 22 00 00                                         a"..

00000040 <_irq_vector_table>:
  40:	25 20 00 00 25 20 00 00 25 20 00 00 25 20 00 00     % ..% ..% ..% ..
  50:	25 20 00 00 25 20 00 00 25 20 00 00 25 20 00 00     % ..% ..% ..% ..
  60:	25 20 00 00 25 20 00 00 25 20 00 00 25 20 00 00     % ..% ..% ..% ..
  70:	25 20 00 00 25 20 00 00 25 20 00 00 25 20 00 00     % ..% ..% ..% ..
  80:	25 20 00 00 25 20 00 00 25 20 00 00 25 20 00 00     % ..% ..% ..% ..
  90:	25 20 00 00 25 20 00 00 25 20 00 00 25 20 00 00     % ..% ..% ..% ..
  a0:	25 20 00 00 25 20 00 00 25 20 00 00 25 20 00 00     % ..% ..% ..% ..
  b0:	25 20 00 00 25 20 00 00 25 20 00 00 25 20 00 00     % ..% ..% ..% ..
  c0:	25 20 00 00 25 20 00 00 25 20 00 00 25 20 00 00     % ..% ..% ..% ..
  d0:	25 20 00 00 25 20 00 00 25 20 00 00                 % ..% ..% ..

Disassembly of section text:

000000e0 <__aeabi_drsub>:
      e0:	f081 4100 	eor.w	r1, r1, #2147483648	; 0x80000000
      e4:	e002      	b.n	ec <__adddf3>
      e6:	bf00      	nop

000000e8 <__aeabi_dsub>:
      e8:	f083 4300 	eor.w	r3, r3, #2147483648	; 0x80000000

000000ec <__adddf3>:
      ec:	b530      	push	{r4, r5, lr}
      ee:	ea4f 0441 	mov.w	r4, r1, lsl #1
      f2:	ea4f 0543 	mov.w	r5, r3, lsl #1
      f6:	ea94 0f05 	teq	r4, r5
      fa:	bf08      	it	eq
      fc:	ea90 0f02 	teqeq	r0, r2
     100:	bf1f      	itttt	ne
     102:	ea54 0c00 	orrsne.w	ip, r4, r0
     106:	ea55 0c02 	orrsne.w	ip, r5, r2
     10a:	ea7f 5c64 	mvnsne.w	ip, r4, asr #21
     10e:	ea7f 5c65 	mvnsne.w	ip, r5, asr #21
     112:	f000 80e2 	beq.w	2da <CONFIG_FLASH_SIZE+0xda>
     116:	ea4f 5454 	mov.w	r4, r4, lsr #21
     11a:	ebd4 5555 	rsbs	r5, r4, r5, lsr #21
     11e:	bfb8      	it	lt
     120:	426d      	neglt	r5, r5
     122:	dd0c      	ble.n	13e <__data_size+0x2e>
     124:	442c      	add	r4, r5
     126:	ea80 0202 	eor.w	r2, r0, r2
     12a:	ea81 0303 	eor.w	r3, r1, r3
     12e:	ea82 0000 	eor.w	r0, r2, r0
     132:	ea83 0101 	eor.w	r1, r3, r1
     136:	ea80 0202 	eor.w	r2, r0, r2
     13a:	ea81 0303 	eor.w	r3, r1, r3
     13e:	2d36      	cmp	r5, #54	; 0x36
     140:	bf88      	it	hi
     142:	bd30      	pophi	{r4, r5, pc}
     144:	f011 4f00 	tst.w	r1, #2147483648	; 0x80000000
     148:	ea4f 3101 	mov.w	r1, r1, lsl #12
     14c:	f44f 1c80 	mov.w	ip, #1048576	; 0x100000
     150:	ea4c 3111 	orr.w	r1, ip, r1, lsr #12
     154:	d002      	beq.n	15c <CONFIG_NRF52_ANOMALY_132_DELAY_US+0x12>
     156:	4240      	negs	r0, r0
     158:	eb61 0141 	sbc.w	r1, r1, r1, lsl #1
     15c:	f013 4f00 	tst.w	r3, #2147483648	; 0x80000000
     160:	ea4f 3303 	mov.w	r3, r3, lsl #12
     164:	ea4c 3313 	orr.w	r3, ip, r3, lsr #12
     168:	d002      	beq.n	170 <CONFIG_SYS_CLOCK_MAX_TIMEOUT_DAYS+0x3>
     16a:	4252      	negs	r2, r2
     16c:	eb63 0343 	sbc.w	r3, r3, r3, lsl #1
     170:	ea94 0f05 	teq	r4, r5
     174:	f000 80a7 	beq.w	2c6 <CONFIG_FLASH_SIZE+0xc6>
     178:	f1a4 0401 	sub.w	r4, r4, #1
     17c:	f1d5 0e20 	rsbs	lr, r5, #32
     180:	db0d      	blt.n	19e <CONFIG_SYS_CLOCK_MAX_TIMEOUT_DAYS+0x31>
     182:	fa02 fc0e 	lsl.w	ip, r2, lr
     186:	fa22 f205 	lsr.w	r2, r2, r5
     18a:	1880      	adds	r0, r0, r2
     18c:	f141 0100 	adc.w	r1, r1, #0
     190:	fa03 f20e 	lsl.w	r2, r3, lr
     194:	1880      	adds	r0, r0, r2
     196:	fa43 f305 	asr.w	r3, r3, r5
     19a:	4159      	adcs	r1, r3
     19c:	e00e      	b.n	1bc <CONFIG_SYS_CLOCK_MAX_TIMEOUT_DAYS+0x4f>
     19e:	f1a5 0520 	sub.w	r5, r5, #32
     1a2:	f10e 0e20 	add.w	lr, lr, #32
     1a6:	2a01      	cmp	r2, #1
     1a8:	fa03 fc0e 	lsl.w	ip, r3, lr
     1ac:	bf28      	it	cs
     1ae:	f04c 0c02 	orrcs.w	ip, ip, #2
     1b2:	fa43 f305 	asr.w	r3, r3, r5
     1b6:	18c0      	adds	r0, r0, r3
     1b8:	eb51 71e3 	adcs.w	r1, r1, r3, asr #31
     1bc:	f001 4500 	and.w	r5, r1, #2147483648	; 0x80000000
     1c0:	d507      	bpl.n	1d2 <CONFIG_SYS_CLOCK_MAX_TIMEOUT_DAYS+0x65>
     1c2:	f04f 0e00 	mov.w	lr, #0
     1c6:	f1dc 0c00 	rsbs	ip, ip, #0
     1ca:	eb7e 0000 	sbcs.w	r0, lr, r0
     1ce:	eb6e 0101 	sbc.w	r1, lr, r1
     1d2:	f5b1 1f80 	cmp.w	r1, #1048576	; 0x100000
     1d6:	d31b      	bcc.n	210 <CONFIG_FLASH_SIZE+0x10>
     1d8:	f5b1 1f00 	cmp.w	r1, #2097152	; 0x200000
     1dc:	d30c      	bcc.n	1f8 <CONFIG_SYS_CLOCK_MAX_TIMEOUT_DAYS+0x8b>
     1de:	0849      	lsrs	r1, r1, #1
     1e0:	ea5f 0030 	movs.w	r0, r0, rrx
     1e4:	ea4f 0c3c 	mov.w	ip, ip, rrx
     1e8:	f104 0401 	add.w	r4, r4, #1
     1ec:	ea4f 5244 	mov.w	r2, r4, lsl #21
     1f0:	f512 0f80 	cmn.w	r2, #4194304	; 0x400000
     1f4:	f080 809a 	bcs.w	32c <CONFIG_FLASH_SIZE+0x12c>
     1f8:	f1bc 4f00 	cmp.w	ip, #2147483648	; 0x80000000
     1fc:	bf08      	it	eq
     1fe:	ea5f 0c50 	movseq.w	ip, r0, lsr #1
     202:	f150 0000 	adcs.w	r0, r0, #0
     206:	eb41 5104 	adc.w	r1, r1, r4, lsl #20
     20a:	ea41 0105 	orr.w	r1, r1, r5
     20e:	bd30      	pop	{r4, r5, pc}
     210:	ea5f 0c4c 	movs.w	ip, ip, lsl #1
     214:	4140      	adcs	r0, r0
     216:	eb41 0101 	adc.w	r1, r1, r1
     21a:	3c01      	subs	r4, #1
     21c:	bf28      	it	cs
     21e:	f5b1 1f80 	cmpcs.w	r1, #1048576	; 0x100000
     222:	d2e9      	bcs.n	1f8 <CONFIG_SYS_CLOCK_MAX_TIMEOUT_DAYS+0x8b>
     224:	f091 0f00 	teq	r1, #0
     228:	bf04      	itt	eq
     22a:	4601      	moveq	r1, r0
     22c:	2000      	moveq	r0, #0
     22e:	fab1 f381 	clz	r3, r1
     232:	bf08      	it	eq
     234:	3320      	addeq	r3, #32
     236:	f1a3 030b 	sub.w	r3, r3, #11
     23a:	f1b3 0220 	subs.w	r2, r3, #32
     23e:	da0c      	bge.n	25a <CONFIG_FLASH_SIZE+0x5a>
     240:	320c      	adds	r2, #12
     242:	dd08      	ble.n	256 <CONFIG_FLASH_SIZE+0x56>
     244:	f102 0c14 	add.w	ip, r2, #20
     248:	f1c2 020c 	rsb	r2, r2, #12
     24c:	fa01 f00c 	lsl.w	r0, r1, ip
     250:	fa21 f102 	lsr.w	r1, r1, r2
     254:	e00c      	b.n	270 <CONFIG_FLASH_SIZE+0x70>
     256:	f102 0214 	add.w	r2, r2, #20
     25a:	bfd8      	it	le
     25c:	f1c2 0c20 	rsble	ip, r2, #32
     260:	fa01 f102 	lsl.w	r1, r1, r2
     264:	fa20 fc0c 	lsr.w	ip, r0, ip
     268:	bfdc      	itt	le
     26a:	ea41 010c 	orrle.w	r1, r1, ip
     26e:	4090      	lslle	r0, r2
     270:	1ae4      	subs	r4, r4, r3
     272:	bfa2      	ittt	ge
     274:	eb01 5104 	addge.w	r1, r1, r4, lsl #20
     278:	4329      	orrge	r1, r5
     27a:	bd30      	popge	{r4, r5, pc}
     27c:	ea6f 0404 	mvn.w	r4, r4
     280:	3c1f      	subs	r4, #31
     282:	da1c      	bge.n	2be <CONFIG_FLASH_SIZE+0xbe>
     284:	340c      	adds	r4, #12
     286:	dc0e      	bgt.n	2a6 <CONFIG_FLASH_SIZE+0xa6>
     288:	f104 0414 	add.w	r4, r4, #20
     28c:	f1c4 0220 	rsb	r2, r4, #32
     290:	fa20 f004 	lsr.w	r0, r0, r4
     294:	fa01 f302 	lsl.w	r3, r1, r2
     298:	ea40 0003 	orr.w	r0, r0, r3
     29c:	fa21 f304 	lsr.w	r3, r1, r4
     2a0:	ea45 0103 	orr.w	r1, r5, r3
     2a4:	bd30      	pop	{r4, r5, pc}
     2a6:	f1c4 040c 	rsb	r4, r4, #12
     2aa:	f1c4 0220 	rsb	r2, r4, #32
     2ae:	fa20 f002 	lsr.w	r0, r0, r2
     2b2:	fa01 f304 	lsl.w	r3, r1, r4
     2b6:	ea40 0003 	orr.w	r0, r0, r3
     2ba:	4629      	mov	r1, r5
     2bc:	bd30      	pop	{r4, r5, pc}
     2be:	fa21 f004 	lsr.w	r0, r1, r4
     2c2:	4629      	mov	r1, r5
     2c4:	bd30      	pop	{r4, r5, pc}
     2c6:	f094 0f00 	teq	r4, #0
     2ca:	f483 1380 	eor.w	r3, r3, #1048576	; 0x100000
     2ce:	bf06      	itte	eq
     2d0:	f481 1180 	eoreq.w	r1, r1, #1048576	; 0x100000
     2d4:	3401      	addeq	r4, #1
     2d6:	3d01      	subne	r5, #1
     2d8:	e74e      	b.n	178 <CONFIG_SYS_CLOCK_MAX_TIMEOUT_DAYS+0xb>
     2da:	ea7f 5c64 	mvns.w	ip, r4, asr #21
     2de:	bf18      	it	ne
     2e0:	ea7f 5c65 	mvnsne.w	ip, r5, asr #21
     2e4:	d029      	beq.n	33a <CONFIG_FLASH_SIZE+0x13a>
     2e6:	ea94 0f05 	teq	r4, r5
     2ea:	bf08      	it	eq
     2ec:	ea90 0f02 	teqeq	r0, r2
     2f0:	d005      	beq.n	2fe <CONFIG_FLASH_SIZE+0xfe>
     2f2:	ea54 0c00 	orrs.w	ip, r4, r0
     2f6:	bf04      	itt	eq
     2f8:	4619      	moveq	r1, r3
     2fa:	4610      	moveq	r0, r2
     2fc:	bd30      	pop	{r4, r5, pc}
     2fe:	ea91 0f03 	teq	r1, r3
     302:	bf1e      	ittt	ne
     304:	2100      	movne	r1, #0
     306:	2000      	movne	r0, #0
     308:	bd30      	popne	{r4, r5, pc}
     30a:	ea5f 5c54 	movs.w	ip, r4, lsr #21
     30e:	d105      	bne.n	31c <CONFIG_FLASH_SIZE+0x11c>
     310:	0040      	lsls	r0, r0, #1
     312:	4149      	adcs	r1, r1
     314:	bf28      	it	cs
     316:	f041 4100 	orrcs.w	r1, r1, #2147483648	; 0x80000000
     31a:	bd30      	pop	{r4, r5, pc}
     31c:	f514 0480 	adds.w	r4, r4, #4194304	; 0x400000
     320:	bf3c      	itt	cc
     322:	f501 1180 	addcc.w	r1, r1, #1048576	; 0x100000
     326:	bd30      	popcc	{r4, r5, pc}
     328:	f001 4500 	and.w	r5, r1, #2147483648	; 0x80000000
     32c:	f045 41fe 	orr.w	r1, r5, #2130706432	; 0x7f000000
     330:	f441 0170 	orr.w	r1, r1, #15728640	; 0xf00000
     334:	f04f 0000 	mov.w	r0, #0
     338:	bd30      	pop	{r4, r5, pc}
     33a:	ea7f 5c64 	mvns.w	ip, r4, asr #21
     33e:	bf1a      	itte	ne
     340:	4619      	movne	r1, r3
     342:	4610      	movne	r0, r2
     344:	ea7f 5c65 	mvnseq.w	ip, r5, asr #21
     348:	bf1c      	itt	ne
     34a:	460b      	movne	r3, r1
     34c:	4602      	movne	r2, r0
     34e:	ea50 3401 	orrs.w	r4, r0, r1, lsl #12
     352:	bf06      	itte	eq
     354:	ea52 3503 	orrseq.w	r5, r2, r3, lsl #12
     358:	ea91 0f03 	teqeq	r1, r3
     35c:	f441 2100 	orrne.w	r1, r1, #524288	; 0x80000
     360:	bd30      	pop	{r4, r5, pc}
     362:	bf00      	nop

00000364 <__aeabi_ui2d>:
     364:	f090 0f00 	teq	r0, #0
     368:	bf04      	itt	eq
     36a:	2100      	moveq	r1, #0
     36c:	4770      	bxeq	lr
     36e:	b530      	push	{r4, r5, lr}
     370:	f44f 6480 	mov.w	r4, #1024	; 0x400
     374:	f104 0432 	add.w	r4, r4, #50	; 0x32
     378:	f04f 0500 	mov.w	r5, #0
     37c:	f04f 0100 	mov.w	r1, #0
     380:	e750      	b.n	224 <CONFIG_FLASH_SIZE+0x24>
     382:	bf00      	nop

00000384 <__aeabi_i2d>:
     384:	f090 0f00 	teq	r0, #0
     388:	bf04      	itt	eq
     38a:	2100      	moveq	r1, #0
     38c:	4770      	bxeq	lr
     38e:	b530      	push	{r4, r5, lr}
     390:	f44f 6480 	mov.w	r4, #1024	; 0x400
     394:	f104 0432 	add.w	r4, r4, #50	; 0x32
     398:	f010 4500 	ands.w	r5, r0, #2147483648	; 0x80000000
     39c:	bf48      	it	mi
     39e:	4240      	negmi	r0, r0
     3a0:	f04f 0100 	mov.w	r1, #0
     3a4:	e73e      	b.n	224 <CONFIG_FLASH_SIZE+0x24>
     3a6:	bf00      	nop

000003a8 <__aeabi_f2d>:
     3a8:	0042      	lsls	r2, r0, #1
     3aa:	ea4f 01e2 	mov.w	r1, r2, asr #3
     3ae:	ea4f 0131 	mov.w	r1, r1, rrx
     3b2:	ea4f 7002 	mov.w	r0, r2, lsl #28
     3b6:	bf1f      	itttt	ne
     3b8:	f012 437f 	andsne.w	r3, r2, #4278190080	; 0xff000000
     3bc:	f093 4f7f 	teqne	r3, #4278190080	; 0xff000000
     3c0:	f081 5160 	eorne.w	r1, r1, #939524096	; 0x38000000
     3c4:	4770      	bxne	lr
     3c6:	f032 427f 	bics.w	r2, r2, #4278190080	; 0xff000000
     3ca:	bf08      	it	eq
     3cc:	4770      	bxeq	lr
     3ce:	f093 4f7f 	teq	r3, #4278190080	; 0xff000000
     3d2:	bf04      	itt	eq
     3d4:	f441 2100 	orreq.w	r1, r1, #524288	; 0x80000
     3d8:	4770      	bxeq	lr
     3da:	b530      	push	{r4, r5, lr}
     3dc:	f44f 7460 	mov.w	r4, #896	; 0x380
     3e0:	f001 4500 	and.w	r5, r1, #2147483648	; 0x80000000
     3e4:	f021 4100 	bic.w	r1, r1, #2147483648	; 0x80000000
     3e8:	e71c      	b.n	224 <CONFIG_FLASH_SIZE+0x24>
     3ea:	bf00      	nop

000003ec <__aeabi_ul2d>:
     3ec:	ea50 0201 	orrs.w	r2, r0, r1
     3f0:	bf08      	it	eq
     3f2:	4770      	bxeq	lr
     3f4:	b530      	push	{r4, r5, lr}
     3f6:	f04f 0500 	mov.w	r5, #0
     3fa:	e00a      	b.n	412 <CONFIG_MAIN_STACK_SIZE+0x12>

000003fc <__aeabi_l2d>:
     3fc:	ea50 0201 	orrs.w	r2, r0, r1
     400:	bf08      	it	eq
     402:	4770      	bxeq	lr
     404:	b530      	push	{r4, r5, lr}
     406:	f011 4500 	ands.w	r5, r1, #2147483648	; 0x80000000
     40a:	d502      	bpl.n	412 <CONFIG_MAIN_STACK_SIZE+0x12>
     40c:	4240      	negs	r0, r0
     40e:	eb61 0141 	sbc.w	r1, r1, r1, lsl #1
     412:	f44f 6480 	mov.w	r4, #1024	; 0x400
     416:	f104 0432 	add.w	r4, r4, #50	; 0x32
     41a:	ea5f 5c91 	movs.w	ip, r1, lsr #22
     41e:	f43f aed8 	beq.w	1d2 <CONFIG_SYS_CLOCK_MAX_TIMEOUT_DAYS+0x65>
     422:	f04f 0203 	mov.w	r2, #3
     426:	ea5f 0cdc 	movs.w	ip, ip, lsr #3
     42a:	bf18      	it	ne
     42c:	3203      	addne	r2, #3
     42e:	ea5f 0cdc 	movs.w	ip, ip, lsr #3
     432:	bf18      	it	ne
     434:	3203      	addne	r2, #3
     436:	eb02 02dc 	add.w	r2, r2, ip, lsr #3
     43a:	f1c2 0320 	rsb	r3, r2, #32
     43e:	fa00 fc03 	lsl.w	ip, r0, r3
     442:	fa20 f002 	lsr.w	r0, r0, r2
     446:	fa01 fe03 	lsl.w	lr, r1, r3
     44a:	ea40 000e 	orr.w	r0, r0, lr
     44e:	fa21 f102 	lsr.w	r1, r1, r2
     452:	4414      	add	r4, r2
     454:	e6bd      	b.n	1d2 <CONFIG_SYS_CLOCK_MAX_TIMEOUT_DAYS+0x65>
     456:	bf00      	nop

00000458 <__aeabi_dmul>:
     458:	b570      	push	{r4, r5, r6, lr}
     45a:	f04f 0cff 	mov.w	ip, #255	; 0xff
     45e:	f44c 6ce0 	orr.w	ip, ip, #1792	; 0x700
     462:	ea1c 5411 	ands.w	r4, ip, r1, lsr #20
     466:	bf1d      	ittte	ne
     468:	ea1c 5513 	andsne.w	r5, ip, r3, lsr #20
     46c:	ea94 0f0c 	teqne	r4, ip
     470:	ea95 0f0c 	teqne	r5, ip
     474:	f000 f8de 	bleq	634 <__aeabi_dmul+0x1dc>
     478:	442c      	add	r4, r5
     47a:	ea81 0603 	eor.w	r6, r1, r3
     47e:	ea21 514c 	bic.w	r1, r1, ip, lsl #21
     482:	ea23 534c 	bic.w	r3, r3, ip, lsl #21
     486:	ea50 3501 	orrs.w	r5, r0, r1, lsl #12
     48a:	bf18      	it	ne
     48c:	ea52 3503 	orrsne.w	r5, r2, r3, lsl #12
     490:	f441 1180 	orr.w	r1, r1, #1048576	; 0x100000
     494:	f443 1380 	orr.w	r3, r3, #1048576	; 0x100000
     498:	d038      	beq.n	50c <__aeabi_dmul+0xb4>
     49a:	fba0 ce02 	umull	ip, lr, r0, r2
     49e:	f04f 0500 	mov.w	r5, #0
     4a2:	fbe1 e502 	umlal	lr, r5, r1, r2
     4a6:	f006 4200 	and.w	r2, r6, #2147483648	; 0x80000000
     4aa:	fbe0 e503 	umlal	lr, r5, r0, r3
     4ae:	f04f 0600 	mov.w	r6, #0
     4b2:	fbe1 5603 	umlal	r5, r6, r1, r3
     4b6:	f09c 0f00 	teq	ip, #0
     4ba:	bf18      	it	ne
     4bc:	f04e 0e01 	orrne.w	lr, lr, #1
     4c0:	f1a4 04ff 	sub.w	r4, r4, #255	; 0xff
     4c4:	f5b6 7f00 	cmp.w	r6, #512	; 0x200
     4c8:	f564 7440 	sbc.w	r4, r4, #768	; 0x300
     4cc:	d204      	bcs.n	4d8 <__aeabi_dmul+0x80>
     4ce:	ea5f 0e4e 	movs.w	lr, lr, lsl #1
     4d2:	416d      	adcs	r5, r5
     4d4:	eb46 0606 	adc.w	r6, r6, r6
     4d8:	ea42 21c6 	orr.w	r1, r2, r6, lsl #11
     4dc:	ea41 5155 	orr.w	r1, r1, r5, lsr #21
     4e0:	ea4f 20c5 	mov.w	r0, r5, lsl #11
     4e4:	ea40 505e 	orr.w	r0, r0, lr, lsr #21
     4e8:	ea4f 2ece 	mov.w	lr, lr, lsl #11
     4ec:	f1b4 0cfd 	subs.w	ip, r4, #253	; 0xfd
     4f0:	bf88      	it	hi
     4f2:	f5bc 6fe0 	cmphi.w	ip, #1792	; 0x700
     4f6:	d81e      	bhi.n	536 <__aeabi_dmul+0xde>
     4f8:	f1be 4f00 	cmp.w	lr, #2147483648	; 0x80000000
     4fc:	bf08      	it	eq
     4fe:	ea5f 0e50 	movseq.w	lr, r0, lsr #1
     502:	f150 0000 	adcs.w	r0, r0, #0
     506:	eb41 5104 	adc.w	r1, r1, r4, lsl #20
     50a:	bd70      	pop	{r4, r5, r6, pc}
     50c:	f006 4600 	and.w	r6, r6, #2147483648	; 0x80000000
     510:	ea46 0101 	orr.w	r1, r6, r1
     514:	ea40 0002 	orr.w	r0, r0, r2
     518:	ea81 0103 	eor.w	r1, r1, r3
     51c:	ebb4 045c 	subs.w	r4, r4, ip, lsr #1
     520:	bfc2      	ittt	gt
     522:	ebd4 050c 	rsbsgt	r5, r4, ip
     526:	ea41 5104 	orrgt.w	r1, r1, r4, lsl #20
     52a:	bd70      	popgt	{r4, r5, r6, pc}
     52c:	f441 1180 	orr.w	r1, r1, #1048576	; 0x100000
     530:	f04f 0e00 	mov.w	lr, #0
     534:	3c01      	subs	r4, #1
     536:	f300 80ab 	bgt.w	690 <__aeabi_dmul+0x238>
     53a:	f114 0f36 	cmn.w	r4, #54	; 0x36
     53e:	bfde      	ittt	le
     540:	2000      	movle	r0, #0
     542:	f001 4100 	andle.w	r1, r1, #2147483648	; 0x80000000
     546:	bd70      	pople	{r4, r5, r6, pc}
     548:	f1c4 0400 	rsb	r4, r4, #0
     54c:	3c20      	subs	r4, #32
     54e:	da35      	bge.n	5bc <__aeabi_dmul+0x164>
     550:	340c      	adds	r4, #12
     552:	dc1b      	bgt.n	58c <__aeabi_dmul+0x134>
     554:	f104 0414 	add.w	r4, r4, #20
     558:	f1c4 0520 	rsb	r5, r4, #32
     55c:	fa00 f305 	lsl.w	r3, r0, r5
     560:	fa20 f004 	lsr.w	r0, r0, r4
     564:	fa01 f205 	lsl.w	r2, r1, r5
     568:	ea40 0002 	orr.w	r0, r0, r2
     56c:	f001 4200 	and.w	r2, r1, #2147483648	; 0x80000000
     570:	f021 4100 	bic.w	r1, r1, #2147483648	; 0x80000000
     574:	eb10 70d3 	adds.w	r0, r0, r3, lsr #31
     578:	fa21 f604 	lsr.w	r6, r1, r4
     57c:	eb42 0106 	adc.w	r1, r2, r6
     580:	ea5e 0e43 	orrs.w	lr, lr, r3, lsl #1
     584:	bf08      	it	eq
     586:	ea20 70d3 	biceq.w	r0, r0, r3, lsr #31
     58a:	bd70      	pop	{r4, r5, r6, pc}
     58c:	f1c4 040c 	rsb	r4, r4, #12
     590:	f1c4 0520 	rsb	r5, r4, #32
     594:	fa00 f304 	lsl.w	r3, r0, r4
     598:	fa20 f005 	lsr.w	r0, r0, r5
     59c:	fa01 f204 	lsl.w	r2, r1, r4
     5a0:	ea40 0002 	orr.w	r0, r0, r2
     5a4:	f001 4100 	and.w	r1, r1, #2147483648	; 0x80000000
     5a8:	eb10 70d3 	adds.w	r0, r0, r3, lsr #31
     5ac:	f141 0100 	adc.w	r1, r1, #0
     5b0:	ea5e 0e43 	orrs.w	lr, lr, r3, lsl #1
     5b4:	bf08      	it	eq
     5b6:	ea20 70d3 	biceq.w	r0, r0, r3, lsr #31
     5ba:	bd70      	pop	{r4, r5, r6, pc}
     5bc:	f1c4 0520 	rsb	r5, r4, #32
     5c0:	fa00 f205 	lsl.w	r2, r0, r5
     5c4:	ea4e 0e02 	orr.w	lr, lr, r2
     5c8:	fa20 f304 	lsr.w	r3, r0, r4
     5cc:	fa01 f205 	lsl.w	r2, r1, r5
     5d0:	ea43 0302 	orr.w	r3, r3, r2
     5d4:	fa21 f004 	lsr.w	r0, r1, r4
     5d8:	f001 4100 	and.w	r1, r1, #2147483648	; 0x80000000
     5dc:	fa21 f204 	lsr.w	r2, r1, r4
     5e0:	ea20 0002 	bic.w	r0, r0, r2
     5e4:	eb00 70d3 	add.w	r0, r0, r3, lsr #31
     5e8:	ea5e 0e43 	orrs.w	lr, lr, r3, lsl #1
     5ec:	bf08      	it	eq
     5ee:	ea20 70d3 	biceq.w	r0, r0, r3, lsr #31
     5f2:	bd70      	pop	{r4, r5, r6, pc}
     5f4:	f094 0f00 	teq	r4, #0
     5f8:	d10f      	bne.n	61a <__aeabi_dmul+0x1c2>
     5fa:	f001 4600 	and.w	r6, r1, #2147483648	; 0x80000000
     5fe:	0040      	lsls	r0, r0, #1
     600:	eb41 0101 	adc.w	r1, r1, r1
     604:	f411 1f80 	tst.w	r1, #1048576	; 0x100000
     608:	bf08      	it	eq
     60a:	3c01      	subeq	r4, #1
     60c:	d0f7      	beq.n	5fe <__aeabi_dmul+0x1a6>
     60e:	ea41 0106 	orr.w	r1, r1, r6
     612:	f095 0f00 	teq	r5, #0
     616:	bf18      	it	ne
     618:	4770      	bxne	lr
     61a:	f003 4600 	and.w	r6, r3, #2147483648	; 0x80000000
     61e:	0052      	lsls	r2, r2, #1
     620:	eb43 0303 	adc.w	r3, r3, r3
     624:	f413 1f80 	tst.w	r3, #1048576	; 0x100000
     628:	bf08      	it	eq
     62a:	3d01      	subeq	r5, #1
     62c:	d0f7      	beq.n	61e <__aeabi_dmul+0x1c6>
     62e:	ea43 0306 	orr.w	r3, r3, r6
     632:	4770      	bx	lr
     634:	ea94 0f0c 	teq	r4, ip
     638:	ea0c 5513 	and.w	r5, ip, r3, lsr #20
     63c:	bf18      	it	ne
     63e:	ea95 0f0c 	teqne	r5, ip
     642:	d00c      	beq.n	65e <__aeabi_dmul+0x206>
     644:	ea50 0641 	orrs.w	r6, r0, r1, lsl #1
     648:	bf18      	it	ne
     64a:	ea52 0643 	orrsne.w	r6, r2, r3, lsl #1
     64e:	d1d1      	bne.n	5f4 <__aeabi_dmul+0x19c>
     650:	ea81 0103 	eor.w	r1, r1, r3
     654:	f001 4100 	and.w	r1, r1, #2147483648	; 0x80000000
     658:	f04f 0000 	mov.w	r0, #0
     65c:	bd70      	pop	{r4, r5, r6, pc}
     65e:	ea50 0641 	orrs.w	r6, r0, r1, lsl #1
     662:	bf06      	itte	eq
     664:	4610      	moveq	r0, r2
     666:	4619      	moveq	r1, r3
     668:	ea52 0643 	orrsne.w	r6, r2, r3, lsl #1
     66c:	d019      	beq.n	6a2 <__aeabi_dmul+0x24a>
     66e:	ea94 0f0c 	teq	r4, ip
     672:	d102      	bne.n	67a <__aeabi_dmul+0x222>
     674:	ea50 3601 	orrs.w	r6, r0, r1, lsl #12
     678:	d113      	bne.n	6a2 <__aeabi_dmul+0x24a>
     67a:	ea95 0f0c 	teq	r5, ip
     67e:	d105      	bne.n	68c <__aeabi_dmul+0x234>
     680:	ea52 3603 	orrs.w	r6, r2, r3, lsl #12
     684:	bf1c      	itt	ne
     686:	4610      	movne	r0, r2
     688:	4619      	movne	r1, r3
     68a:	d10a      	bne.n	6a2 <__aeabi_dmul+0x24a>
     68c:	ea81 0103 	eor.w	r1, r1, r3
     690:	f001 4100 	and.w	r1, r1, #2147483648	; 0x80000000
     694:	f041 41fe 	orr.w	r1, r1, #2130706432	; 0x7f000000
     698:	f441 0170 	orr.w	r1, r1, #15728640	; 0xf00000
     69c:	f04f 0000 	mov.w	r0, #0
     6a0:	bd70      	pop	{r4, r5, r6, pc}
     6a2:	f041 41fe 	orr.w	r1, r1, #2130706432	; 0x7f000000
     6a6:	f441 0178 	orr.w	r1, r1, #16252928	; 0xf80000
     6aa:	bd70      	pop	{r4, r5, r6, pc}

000006ac <__aeabi_ddiv>:
     6ac:	b570      	push	{r4, r5, r6, lr}
     6ae:	f04f 0cff 	mov.w	ip, #255	; 0xff
     6b2:	f44c 6ce0 	orr.w	ip, ip, #1792	; 0x700
     6b6:	ea1c 5411 	ands.w	r4, ip, r1, lsr #20
     6ba:	bf1d      	ittte	ne
     6bc:	ea1c 5513 	andsne.w	r5, ip, r3, lsr #20
     6c0:	ea94 0f0c 	teqne	r4, ip
     6c4:	ea95 0f0c 	teqne	r5, ip
     6c8:	f000 f8a7 	bleq	81a <CONFIG_ISR_STACK_SIZE+0x1a>
     6cc:	eba4 0405 	sub.w	r4, r4, r5
     6d0:	ea81 0e03 	eor.w	lr, r1, r3
     6d4:	ea52 3503 	orrs.w	r5, r2, r3, lsl #12
     6d8:	ea4f 3101 	mov.w	r1, r1, lsl #12
     6dc:	f000 8088 	beq.w	7f0 <__aeabi_ddiv+0x144>
     6e0:	ea4f 3303 	mov.w	r3, r3, lsl #12
     6e4:	f04f 5580 	mov.w	r5, #268435456	; 0x10000000
     6e8:	ea45 1313 	orr.w	r3, r5, r3, lsr #4
     6ec:	ea43 6312 	orr.w	r3, r3, r2, lsr #24
     6f0:	ea4f 2202 	mov.w	r2, r2, lsl #8
     6f4:	ea45 1511 	orr.w	r5, r5, r1, lsr #4
     6f8:	ea45 6510 	orr.w	r5, r5, r0, lsr #24
     6fc:	ea4f 2600 	mov.w	r6, r0, lsl #8
     700:	f00e 4100 	and.w	r1, lr, #2147483648	; 0x80000000
     704:	429d      	cmp	r5, r3
     706:	bf08      	it	eq
     708:	4296      	cmpeq	r6, r2
     70a:	f144 04fd 	adc.w	r4, r4, #253	; 0xfd
     70e:	f504 7440 	add.w	r4, r4, #768	; 0x300
     712:	d202      	bcs.n	71a <__aeabi_ddiv+0x6e>
     714:	085b      	lsrs	r3, r3, #1
     716:	ea4f 0232 	mov.w	r2, r2, rrx
     71a:	1ab6      	subs	r6, r6, r2
     71c:	eb65 0503 	sbc.w	r5, r5, r3
     720:	085b      	lsrs	r3, r3, #1
     722:	ea4f 0232 	mov.w	r2, r2, rrx
     726:	f44f 1080 	mov.w	r0, #1048576	; 0x100000
     72a:	f44f 2c00 	mov.w	ip, #524288	; 0x80000
     72e:	ebb6 0e02 	subs.w	lr, r6, r2
     732:	eb75 0e03 	sbcs.w	lr, r5, r3
     736:	bf22      	ittt	cs
     738:	1ab6      	subcs	r6, r6, r2
     73a:	4675      	movcs	r5, lr
     73c:	ea40 000c 	orrcs.w	r0, r0, ip
     740:	085b      	lsrs	r3, r3, #1
     742:	ea4f 0232 	mov.w	r2, r2, rrx
     746:	ebb6 0e02 	subs.w	lr, r6, r2
     74a:	eb75 0e03 	sbcs.w	lr, r5, r3
     74e:	bf22      	ittt	cs
     750:	1ab6      	subcs	r6, r6, r2
     752:	4675      	movcs	r5, lr
     754:	ea40 005c 	orrcs.w	r0, r0, ip, lsr #1
     758:	085b      	lsrs	r3, r3, #1
     75a:	ea4f 0232 	mov.w	r2, r2, rrx
     75e:	ebb6 0e02 	subs.w	lr, r6, r2
     762:	eb75 0e03 	sbcs.w	lr, r5, r3
     766:	bf22      	ittt	cs
     768:	1ab6      	subcs	r6, r6, r2
     76a:	4675      	movcs	r5, lr
     76c:	ea40 009c 	orrcs.w	r0, r0, ip, lsr #2
     770:	085b      	lsrs	r3, r3, #1
     772:	ea4f 0232 	mov.w	r2, r2, rrx
     776:	ebb6 0e02 	subs.w	lr, r6, r2
     77a:	eb75 0e03 	sbcs.w	lr, r5, r3
     77e:	bf22      	ittt	cs
     780:	1ab6      	subcs	r6, r6, r2
     782:	4675      	movcs	r5, lr
     784:	ea40 00dc 	orrcs.w	r0, r0, ip, lsr #3
     788:	ea55 0e06 	orrs.w	lr, r5, r6
     78c:	d018      	beq.n	7c0 <__aeabi_ddiv+0x114>
     78e:	ea4f 1505 	mov.w	r5, r5, lsl #4
     792:	ea45 7516 	orr.w	r5, r5, r6, lsr #28
     796:	ea4f 1606 	mov.w	r6, r6, lsl #4
     79a:	ea4f 03c3 	mov.w	r3, r3, lsl #3
     79e:	ea43 7352 	orr.w	r3, r3, r2, lsr #29
     7a2:	ea4f 02c2 	mov.w	r2, r2, lsl #3
     7a6:	ea5f 1c1c 	movs.w	ip, ip, lsr #4
     7aa:	d1c0      	bne.n	72e <__aeabi_ddiv+0x82>
     7ac:	f411 1f80 	tst.w	r1, #1048576	; 0x100000
     7b0:	d10b      	bne.n	7ca <__aeabi_ddiv+0x11e>
     7b2:	ea41 0100 	orr.w	r1, r1, r0
     7b6:	f04f 0000 	mov.w	r0, #0
     7ba:	f04f 4c00 	mov.w	ip, #2147483648	; 0x80000000
     7be:	e7b6      	b.n	72e <__aeabi_ddiv+0x82>
     7c0:	f411 1f80 	tst.w	r1, #1048576	; 0x100000
     7c4:	bf04      	itt	eq
     7c6:	4301      	orreq	r1, r0
     7c8:	2000      	moveq	r0, #0
     7ca:	f1b4 0cfd 	subs.w	ip, r4, #253	; 0xfd
     7ce:	bf88      	it	hi
     7d0:	f5bc 6fe0 	cmphi.w	ip, #1792	; 0x700
     7d4:	f63f aeaf 	bhi.w	536 <__aeabi_dmul+0xde>
     7d8:	ebb5 0c03 	subs.w	ip, r5, r3
     7dc:	bf04      	itt	eq
     7de:	ebb6 0c02 	subseq.w	ip, r6, r2
     7e2:	ea5f 0c50 	movseq.w	ip, r0, lsr #1
     7e6:	f150 0000 	adcs.w	r0, r0, #0
     7ea:	eb41 5104 	adc.w	r1, r1, r4, lsl #20
     7ee:	bd70      	pop	{r4, r5, r6, pc}
     7f0:	f00e 4e00 	and.w	lr, lr, #2147483648	; 0x80000000
     7f4:	ea4e 3111 	orr.w	r1, lr, r1, lsr #12
     7f8:	eb14 045c 	adds.w	r4, r4, ip, lsr #1
     7fc:	bfc2      	ittt	gt
     7fe:	ebd4 050c 	rsbsgt	r5, r4, ip
     802:	ea41 5104 	orrgt.w	r1, r1, r4, lsl #20
     806:	bd70      	popgt	{r4, r5, r6, pc}
     808:	f441 1180 	orr.w	r1, r1, #1048576	; 0x100000
     80c:	f04f 0e00 	mov.w	lr, #0
     810:	3c01      	subs	r4, #1
     812:	e690      	b.n	536 <__aeabi_dmul+0xde>
     814:	ea45 0e06 	orr.w	lr, r5, r6
     818:	e68d      	b.n	536 <__aeabi_dmul+0xde>
     81a:	ea0c 5513 	and.w	r5, ip, r3, lsr #20
     81e:	ea94 0f0c 	teq	r4, ip
     822:	bf08      	it	eq
     824:	ea95 0f0c 	teqeq	r5, ip
     828:	f43f af3b 	beq.w	6a2 <__aeabi_dmul+0x24a>
     82c:	ea94 0f0c 	teq	r4, ip
     830:	d10a      	bne.n	848 <CONFIG_ISR_STACK_SIZE+0x48>
     832:	ea50 3401 	orrs.w	r4, r0, r1, lsl #12
     836:	f47f af34 	bne.w	6a2 <__aeabi_dmul+0x24a>
     83a:	ea95 0f0c 	teq	r5, ip
     83e:	f47f af25 	bne.w	68c <__aeabi_dmul+0x234>
     842:	4610      	mov	r0, r2
     844:	4619      	mov	r1, r3
     846:	e72c      	b.n	6a2 <__aeabi_dmul+0x24a>
     848:	ea95 0f0c 	teq	r5, ip
     84c:	d106      	bne.n	85c <CONFIG_ISR_STACK_SIZE+0x5c>
     84e:	ea52 3503 	orrs.w	r5, r2, r3, lsl #12
     852:	f43f aefd 	beq.w	650 <__aeabi_dmul+0x1f8>
     856:	4610      	mov	r0, r2
     858:	4619      	mov	r1, r3
     85a:	e722      	b.n	6a2 <__aeabi_dmul+0x24a>
     85c:	ea50 0641 	orrs.w	r6, r0, r1, lsl #1
     860:	bf18      	it	ne
     862:	ea52 0643 	orrsne.w	r6, r2, r3, lsl #1
     866:	f47f aec5 	bne.w	5f4 <__aeabi_dmul+0x19c>
     86a:	ea50 0441 	orrs.w	r4, r0, r1, lsl #1
     86e:	f47f af0d 	bne.w	68c <__aeabi_dmul+0x234>
     872:	ea52 0543 	orrs.w	r5, r2, r3, lsl #1
     876:	f47f aeeb 	bne.w	650 <__aeabi_dmul+0x1f8>
     87a:	e712      	b.n	6a2 <__aeabi_dmul+0x24a>

0000087c <__aeabi_uldivmod>:
     87c:	b953      	cbnz	r3, 894 <__aeabi_uldivmod+0x18>
     87e:	b94a      	cbnz	r2, 894 <__aeabi_uldivmod+0x18>
     880:	2900      	cmp	r1, #0
     882:	bf08      	it	eq
     884:	2800      	cmpeq	r0, #0
     886:	bf1c      	itt	ne
     888:	f04f 31ff 	movne.w	r1, #4294967295	; 0xffffffff
     88c:	f04f 30ff 	movne.w	r0, #4294967295	; 0xffffffff
     890:	f000 b80c 	b.w	8ac <__aeabi_idiv0>
     894:	f1ad 0c08 	sub.w	ip, sp, #8
     898:	e96d ce04 	strd	ip, lr, [sp, #-16]!
     89c:	f000 f808 	bl	8b0 <__udivmoddi4>
     8a0:	f8dd e004 	ldr.w	lr, [sp, #4]
     8a4:	e9dd 2302 	ldrd	r2, r3, [sp, #8]
     8a8:	b004      	add	sp, #16
     8aa:	4770      	bx	lr

000008ac <__aeabi_idiv0>:
     8ac:	4770      	bx	lr
     8ae:	bf00      	nop

000008b0 <__udivmoddi4>:
     8b0:	e92d 4ff0 	stmdb	sp!, {r4, r5, r6, r7, r8, r9, sl, fp, lr}
     8b4:	4607      	mov	r7, r0
     8b6:	468c      	mov	ip, r1
     8b8:	4608      	mov	r0, r1
     8ba:	9e09      	ldr	r6, [sp, #36]	; 0x24
     8bc:	4615      	mov	r5, r2
     8be:	463c      	mov	r4, r7
     8c0:	4619      	mov	r1, r3
     8c2:	2b00      	cmp	r3, #0
     8c4:	f040 80c6 	bne.w	a54 <__udivmoddi4+0x1a4>
     8c8:	4282      	cmp	r2, r0
     8ca:	fab2 f782 	clz	r7, r2
     8ce:	d946      	bls.n	95e <__udivmoddi4+0xae>
     8d0:	b14f      	cbz	r7, 8e6 <__udivmoddi4+0x36>
     8d2:	f1c7 0e20 	rsb	lr, r7, #32
     8d6:	fa24 fe0e 	lsr.w	lr, r4, lr
     8da:	fa00 f307 	lsl.w	r3, r0, r7
     8de:	40bd      	lsls	r5, r7
     8e0:	ea4e 0c03 	orr.w	ip, lr, r3
     8e4:	40bc      	lsls	r4, r7
     8e6:	ea4f 4815 	mov.w	r8, r5, lsr #16
     8ea:	fa1f fe85 	uxth.w	lr, r5
     8ee:	fbbc f9f8 	udiv	r9, ip, r8
     8f2:	0c22      	lsrs	r2, r4, #16
     8f4:	fb08 c319 	mls	r3, r8, r9, ip
     8f8:	fb09 fa0e 	mul.w	sl, r9, lr
     8fc:	ea42 4303 	orr.w	r3, r2, r3, lsl #16
     900:	459a      	cmp	sl, r3
     902:	d928      	bls.n	956 <__udivmoddi4+0xa6>
     904:	18eb      	adds	r3, r5, r3
     906:	f109 30ff 	add.w	r0, r9, #4294967295	; 0xffffffff
     90a:	d204      	bcs.n	916 <__udivmoddi4+0x66>
     90c:	459a      	cmp	sl, r3
     90e:	d902      	bls.n	916 <__udivmoddi4+0x66>
     910:	f1a9 0002 	sub.w	r0, r9, #2
     914:	442b      	add	r3, r5
     916:	eba3 030a 	sub.w	r3, r3, sl
     91a:	b2a4      	uxth	r4, r4
     91c:	fbb3 f2f8 	udiv	r2, r3, r8
     920:	fb08 3312 	mls	r3, r8, r2, r3
     924:	fb02 fe0e 	mul.w	lr, r2, lr
     928:	ea44 4403 	orr.w	r4, r4, r3, lsl #16
     92c:	45a6      	cmp	lr, r4
     92e:	d914      	bls.n	95a <__udivmoddi4+0xaa>
     930:	192c      	adds	r4, r5, r4
     932:	f102 33ff 	add.w	r3, r2, #4294967295	; 0xffffffff
     936:	d203      	bcs.n	940 <__udivmoddi4+0x90>
     938:	45a6      	cmp	lr, r4
     93a:	d901      	bls.n	940 <__udivmoddi4+0x90>
     93c:	1e93      	subs	r3, r2, #2
     93e:	442c      	add	r4, r5
     940:	eba4 040e 	sub.w	r4, r4, lr
     944:	ea43 4000 	orr.w	r0, r3, r0, lsl #16
     948:	b11e      	cbz	r6, 952 <__udivmoddi4+0xa2>
     94a:	40fc      	lsrs	r4, r7
     94c:	2300      	movs	r3, #0
     94e:	6034      	str	r4, [r6, #0]
     950:	6073      	str	r3, [r6, #4]
     952:	e8bd 8ff0 	ldmia.w	sp!, {r4, r5, r6, r7, r8, r9, sl, fp, pc}
     956:	4648      	mov	r0, r9
     958:	e7dd      	b.n	916 <__udivmoddi4+0x66>
     95a:	4613      	mov	r3, r2
     95c:	e7f0      	b.n	940 <__udivmoddi4+0x90>
     95e:	b902      	cbnz	r2, 962 <__udivmoddi4+0xb2>
     960:	deff      	udf	#255	; 0xff
     962:	bb87      	cbnz	r7, 9c6 <__udivmoddi4+0x116>
     964:	1a83      	subs	r3, r0, r2
     966:	2101      	movs	r1, #1
     968:	ea4f 4e15 	mov.w	lr, r5, lsr #16
     96c:	b2aa      	uxth	r2, r5
     96e:	fbb3 fcfe 	udiv	ip, r3, lr
     972:	0c20      	lsrs	r0, r4, #16
     974:	fb0e 331c 	mls	r3, lr, ip, r3
     978:	fb0c f802 	mul.w	r8, ip, r2
     97c:	ea40 4303 	orr.w	r3, r0, r3, lsl #16
     980:	4598      	cmp	r8, r3
     982:	d963      	bls.n	a4c <__udivmoddi4+0x19c>
     984:	18eb      	adds	r3, r5, r3
     986:	f10c 30ff 	add.w	r0, ip, #4294967295	; 0xffffffff
     98a:	d204      	bcs.n	996 <__udivmoddi4+0xe6>
     98c:	4598      	cmp	r8, r3
     98e:	d902      	bls.n	996 <__udivmoddi4+0xe6>
     990:	f1ac 0002 	sub.w	r0, ip, #2
     994:	442b      	add	r3, r5
     996:	eba3 0308 	sub.w	r3, r3, r8
     99a:	b2a4      	uxth	r4, r4
     99c:	fbb3 fcfe 	udiv	ip, r3, lr
     9a0:	fb0e 331c 	mls	r3, lr, ip, r3
     9a4:	fb0c f202 	mul.w	r2, ip, r2
     9a8:	ea44 4403 	orr.w	r4, r4, r3, lsl #16
     9ac:	42a2      	cmp	r2, r4
     9ae:	d94f      	bls.n	a50 <__udivmoddi4+0x1a0>
     9b0:	192c      	adds	r4, r5, r4
     9b2:	f10c 33ff 	add.w	r3, ip, #4294967295	; 0xffffffff
     9b6:	d204      	bcs.n	9c2 <__udivmoddi4+0x112>
     9b8:	42a2      	cmp	r2, r4
     9ba:	d902      	bls.n	9c2 <__udivmoddi4+0x112>
     9bc:	f1ac 0302 	sub.w	r3, ip, #2
     9c0:	442c      	add	r4, r5
     9c2:	1aa4      	subs	r4, r4, r2
     9c4:	e7be      	b.n	944 <__udivmoddi4+0x94>
     9c6:	f1c7 0c20 	rsb	ip, r7, #32
     9ca:	fa20 f80c 	lsr.w	r8, r0, ip
     9ce:	fa00 f307 	lsl.w	r3, r0, r7
     9d2:	fa24 fc0c 	lsr.w	ip, r4, ip
     9d6:	40bd      	lsls	r5, r7
     9d8:	ea4c 0203 	orr.w	r2, ip, r3
     9dc:	ea4f 4e15 	mov.w	lr, r5, lsr #16
     9e0:	b2ab      	uxth	r3, r5
     9e2:	fbb8 fcfe 	udiv	ip, r8, lr
     9e6:	0c11      	lsrs	r1, r2, #16
     9e8:	fb0e 801c 	mls	r0, lr, ip, r8
     9ec:	fb0c f903 	mul.w	r9, ip, r3
     9f0:	ea41 4000 	orr.w	r0, r1, r0, lsl #16
     9f4:	4581      	cmp	r9, r0
     9f6:	fa04 f407 	lsl.w	r4, r4, r7
     9fa:	d923      	bls.n	a44 <__udivmoddi4+0x194>
     9fc:	1828      	adds	r0, r5, r0
     9fe:	f10c 31ff 	add.w	r1, ip, #4294967295	; 0xffffffff
     a02:	d204      	bcs.n	a0e <__udivmoddi4+0x15e>
     a04:	4581      	cmp	r9, r0
     a06:	d902      	bls.n	a0e <__udivmoddi4+0x15e>
     a08:	f1ac 0102 	sub.w	r1, ip, #2
     a0c:	4428      	add	r0, r5
     a0e:	eba0 0009 	sub.w	r0, r0, r9
     a12:	b292      	uxth	r2, r2
     a14:	fbb0 fcfe 	udiv	ip, r0, lr
     a18:	fb0e 001c 	mls	r0, lr, ip, r0
     a1c:	fb0c f803 	mul.w	r8, ip, r3
     a20:	ea42 4300 	orr.w	r3, r2, r0, lsl #16
     a24:	4598      	cmp	r8, r3
     a26:	d90f      	bls.n	a48 <__udivmoddi4+0x198>
     a28:	18eb      	adds	r3, r5, r3
     a2a:	f10c 32ff 	add.w	r2, ip, #4294967295	; 0xffffffff
     a2e:	d204      	bcs.n	a3a <__udivmoddi4+0x18a>
     a30:	4598      	cmp	r8, r3
     a32:	d902      	bls.n	a3a <__udivmoddi4+0x18a>
     a34:	f1ac 0202 	sub.w	r2, ip, #2
     a38:	442b      	add	r3, r5
     a3a:	eba3 0308 	sub.w	r3, r3, r8
     a3e:	ea42 4101 	orr.w	r1, r2, r1, lsl #16
     a42:	e791      	b.n	968 <__udivmoddi4+0xb8>
     a44:	4661      	mov	r1, ip
     a46:	e7e2      	b.n	a0e <__udivmoddi4+0x15e>
     a48:	4662      	mov	r2, ip
     a4a:	e7f6      	b.n	a3a <__udivmoddi4+0x18a>
     a4c:	4660      	mov	r0, ip
     a4e:	e7a2      	b.n	996 <__udivmoddi4+0xe6>
     a50:	4663      	mov	r3, ip
     a52:	e7b6      	b.n	9c2 <__udivmoddi4+0x112>
     a54:	4283      	cmp	r3, r0
     a56:	d905      	bls.n	a64 <__udivmoddi4+0x1b4>
     a58:	b10e      	cbz	r6, a5e <__udivmoddi4+0x1ae>
     a5a:	e9c6 7000 	strd	r7, r0, [r6]
     a5e:	2100      	movs	r1, #0
     a60:	4608      	mov	r0, r1
     a62:	e776      	b.n	952 <__udivmoddi4+0xa2>
     a64:	fab3 f183 	clz	r1, r3
     a68:	b981      	cbnz	r1, a8c <__udivmoddi4+0x1dc>
     a6a:	4283      	cmp	r3, r0
     a6c:	d301      	bcc.n	a72 <__udivmoddi4+0x1c2>
     a6e:	42ba      	cmp	r2, r7
     a70:	d80a      	bhi.n	a88 <__udivmoddi4+0x1d8>
     a72:	1abc      	subs	r4, r7, r2
     a74:	eb60 0303 	sbc.w	r3, r0, r3
     a78:	2001      	movs	r0, #1
     a7a:	469c      	mov	ip, r3
     a7c:	2e00      	cmp	r6, #0
     a7e:	d068      	beq.n	b52 <__udivmoddi4+0x2a2>
     a80:	e9c6 4c00 	strd	r4, ip, [r6]
     a84:	2100      	movs	r1, #0
     a86:	e764      	b.n	952 <__udivmoddi4+0xa2>
     a88:	4608      	mov	r0, r1
     a8a:	e7f7      	b.n	a7c <__udivmoddi4+0x1cc>
     a8c:	f1c1 0c20 	rsb	ip, r1, #32
     a90:	408b      	lsls	r3, r1
     a92:	fa22 f40c 	lsr.w	r4, r2, ip
     a96:	431c      	orrs	r4, r3
     a98:	fa02 f501 	lsl.w	r5, r2, r1
     a9c:	fa00 f301 	lsl.w	r3, r0, r1
     aa0:	fa27 f20c 	lsr.w	r2, r7, ip
     aa4:	fa20 fb0c 	lsr.w	fp, r0, ip
     aa8:	ea4f 4914 	mov.w	r9, r4, lsr #16
     aac:	4313      	orrs	r3, r2
     aae:	fbbb f8f9 	udiv	r8, fp, r9
     ab2:	fa1f fe84 	uxth.w	lr, r4
     ab6:	fb09 bb18 	mls	fp, r9, r8, fp
     aba:	0c1a      	lsrs	r2, r3, #16
     abc:	fb08 fa0e 	mul.w	sl, r8, lr
     ac0:	ea42 420b 	orr.w	r2, r2, fp, lsl #16
     ac4:	4592      	cmp	sl, r2
     ac6:	fa07 f701 	lsl.w	r7, r7, r1
     aca:	d93e      	bls.n	b4a <__udivmoddi4+0x29a>
     acc:	18a2      	adds	r2, r4, r2
     ace:	f108 30ff 	add.w	r0, r8, #4294967295	; 0xffffffff
     ad2:	d204      	bcs.n	ade <__udivmoddi4+0x22e>
     ad4:	4592      	cmp	sl, r2
     ad6:	d902      	bls.n	ade <__udivmoddi4+0x22e>
     ad8:	f1a8 0002 	sub.w	r0, r8, #2
     adc:	4422      	add	r2, r4
     ade:	eba2 020a 	sub.w	r2, r2, sl
     ae2:	b29b      	uxth	r3, r3
     ae4:	fbb2 f8f9 	udiv	r8, r2, r9
     ae8:	fb09 2218 	mls	r2, r9, r8, r2
     aec:	fb08 fe0e 	mul.w	lr, r8, lr
     af0:	ea43 4202 	orr.w	r2, r3, r2, lsl #16
     af4:	4596      	cmp	lr, r2
     af6:	d92a      	bls.n	b4e <__udivmoddi4+0x29e>
     af8:	18a2      	adds	r2, r4, r2
     afa:	f108 33ff 	add.w	r3, r8, #4294967295	; 0xffffffff
     afe:	d204      	bcs.n	b0a <__udivmoddi4+0x25a>
     b00:	4596      	cmp	lr, r2
     b02:	d902      	bls.n	b0a <__udivmoddi4+0x25a>
     b04:	f1a8 0302 	sub.w	r3, r8, #2
     b08:	4422      	add	r2, r4
     b0a:	ea43 4000 	orr.w	r0, r3, r0, lsl #16
     b0e:	fba0 9305 	umull	r9, r3, r0, r5
     b12:	eba2 020e 	sub.w	r2, r2, lr
     b16:	429a      	cmp	r2, r3
     b18:	46ce      	mov	lr, r9
     b1a:	4698      	mov	r8, r3
     b1c:	d302      	bcc.n	b24 <__udivmoddi4+0x274>
     b1e:	d106      	bne.n	b2e <__udivmoddi4+0x27e>
     b20:	454f      	cmp	r7, r9
     b22:	d204      	bcs.n	b2e <__udivmoddi4+0x27e>
     b24:	ebb9 0e05 	subs.w	lr, r9, r5
     b28:	eb63 0804 	sbc.w	r8, r3, r4
     b2c:	3801      	subs	r0, #1
     b2e:	b186      	cbz	r6, b52 <__udivmoddi4+0x2a2>
     b30:	ebb7 030e 	subs.w	r3, r7, lr
     b34:	eb62 0708 	sbc.w	r7, r2, r8
     b38:	fa07 fc0c 	lsl.w	ip, r7, ip
     b3c:	40cb      	lsrs	r3, r1
     b3e:	ea4c 0303 	orr.w	r3, ip, r3
     b42:	40cf      	lsrs	r7, r1
     b44:	e9c6 3700 	strd	r3, r7, [r6]
     b48:	e79c      	b.n	a84 <__udivmoddi4+0x1d4>
     b4a:	4640      	mov	r0, r8
     b4c:	e7c7      	b.n	ade <__udivmoddi4+0x22e>
     b4e:	4643      	mov	r3, r8
     b50:	e7db      	b.n	b0a <__udivmoddi4+0x25a>
     b52:	4631      	mov	r1, r6
     b54:	e6fd      	b.n	952 <__udivmoddi4+0xa2>
	...

00000b58 <main>:

// Important: Lowercase, convert @ to _ and - to _
#define MY_TEMPERATURE DT_PATH(soc, i2c_40003000, hts221_5f)
#define MY_TEMPERATURE_LABEL DT_NODELABEL(hts221)

void main() {
     b58:	e92d 43f7 	stmdb	sp!, {r0, r1, r2, r4, r5, r6, r7, r8, r9, lr}
  printk("Starting main.\n");
     b5c:	482a      	ldr	r0, [pc, #168]	; (c08 <main+0xb0>)
     b5e:	f004 ff5a 	bl	5a16 <printk>
		/* coverity[OVERRUN] */
		return (const struct device *) arch_syscall_invoke1(*(uintptr_t *)&name, K_SYSCALL_DEVICE_GET_BINDING);
	}
#endif
	compiler_barrier();
	return z_impl_device_get_binding(name);
     b62:	482a      	ldr	r0, [pc, #168]	; (c0c <main+0xb4>)
     b64:	f003 ff50 	bl	4a08 <z_impl_device_get_binding>
  const struct device* sensor_device = device_get_binding(DT_LABEL(MY_TEMPERATURE));
#else
#error "Node is disabled"
#endif

  if (sensor_device == NULL) {
     b68:	4604      	mov	r4, r0
     b6a:	b928      	cbnz	r0, b78 <main+0x20>
    /* No such node, or the node does not have status "okay". */
    printk("\nError: no device found.\n");
     b6c:	4828      	ldr	r0, [pc, #160]	; (c10 <main+0xb8>)
    printk("Temperature: %f \n",  sensor_value_to_double(&temp_value));
    k_msleep(1000);
  }

  return;
     b6e:	b003      	add	sp, #12
     b70:	e8bd 43f0 	ldmia.w	sp!, {r4, r5, r6, r7, r8, r9, lr}
    printk("\nError: no device found.\n");
     b74:	f004 bf4f 	b.w	5a16 <printk>
 */
__syscall bool device_is_ready(const struct device *dev);

static inline bool z_impl_device_is_ready(const struct device *dev)
{
	return z_device_is_ready(dev);
     b78:	f005 ff0e 	bl	6998 <z_device_is_ready>
    printk("\nError: Device \"%s\" is not ready; "
     b7c:	6821      	ldr	r1, [r4, #0]
  if (!device_is_ready(sensor_device)) {
     b7e:	b928      	cbnz	r0, b8c <main+0x34>
    printk("\nError: Device \"%s\" is not ready; "
     b80:	4824      	ldr	r0, [pc, #144]	; (c14 <main+0xbc>)
     b82:	b003      	add	sp, #12
     b84:	e8bd 43f0 	ldmia.w	sp!, {r4, r5, r6, r7, r8, r9, lr}
    printk("\nError: Device \"%s\" is not ready; "
     b88:	f004 bf45 	b.w	5a16 <printk>
  printk("Found device \"%s\", getting sensor data\n", sensor_device->name);
     b8c:	4822      	ldr	r0, [pc, #136]	; (c18 <main+0xc0>)
      printk("Error when sampling sensor (err: %d)", err);
     b8e:	4d23      	ldr	r5, [pc, #140]	; (c1c <main+0xc4>)
  printk("Found device \"%s\", getting sensor data\n", sensor_device->name);
     b90:	f004 ff41 	bl	5a16 <printk>
 * @param val A pointer to a sensor_value struct.
 * @return The converted value.
 */
static inline double sensor_value_to_double(const struct sensor_value *val)
{
	return (double)val->val1 + (double)val->val2 / 1000000;
     b94:	a71a      	add	r7, pc, #104	; (adr r7, c00 <main+0xa8>)
     b96:	e9d7 6700 	ldrd	r6, r7, [r7]
	return api->sample_fetch(dev, type);
     b9a:	68a3      	ldr	r3, [r4, #8]
     b9c:	210d      	movs	r1, #13
     b9e:	68db      	ldr	r3, [r3, #12]
     ba0:	4620      	mov	r0, r4
     ba2:	4798      	blx	r3
    if(err){
     ba4:	4601      	mov	r1, r0
     ba6:	b110      	cbz	r0, bae <main+0x56>
      printk("Error when sampling sensor (err: %d)", err);
     ba8:	4628      	mov	r0, r5
     baa:	f004 ff34 	bl	5a16 <printk>
	return api->channel_get(dev, chan, val);
     bae:	68a3      	ldr	r3, [r4, #8]
     bb0:	210d      	movs	r1, #13
     bb2:	691b      	ldr	r3, [r3, #16]
     bb4:	466a      	mov	r2, sp
     bb6:	4620      	mov	r0, r4
     bb8:	4798      	blx	r3
    if(err){
     bba:	4601      	mov	r1, r0
     bbc:	b110      	cbz	r0, bc4 <main+0x6c>
      printk("Error obtaining sensor value (err: %d)", err);
     bbe:	4818      	ldr	r0, [pc, #96]	; (c20 <main+0xc8>)
     bc0:	f004 ff29 	bl	5a16 <printk>
	return (double)val->val1 + (double)val->val2 / 1000000;
     bc4:	9801      	ldr	r0, [sp, #4]
     bc6:	f7ff fbdd 	bl	384 <__aeabi_i2d>
     bca:	4632      	mov	r2, r6
     bcc:	463b      	mov	r3, r7
     bce:	f7ff fd6d 	bl	6ac <__aeabi_ddiv>
     bd2:	4680      	mov	r8, r0
     bd4:	9800      	ldr	r0, [sp, #0]
     bd6:	4689      	mov	r9, r1
     bd8:	f7ff fbd4 	bl	384 <__aeabi_i2d>
     bdc:	4602      	mov	r2, r0
     bde:	460b      	mov	r3, r1
     be0:	4640      	mov	r0, r8
     be2:	4649      	mov	r1, r9
     be4:	f7ff fa82 	bl	ec <__adddf3>
     be8:	4602      	mov	r2, r0
     bea:	460b      	mov	r3, r1
    printk("Temperature: %f \n",  sensor_value_to_double(&temp_value));
     bec:	480d      	ldr	r0, [pc, #52]	; (c24 <main+0xcc>)
     bee:	f004 ff12 	bl	5a16 <printk>
		/* coverity[OVERRUN] */
		return (int32_t) arch_syscall_invoke2(parm0.split.lo, parm0.split.hi, K_SYSCALL_K_SLEEP);
	}
#endif
	compiler_barrier();
	return z_impl_k_sleep(timeout);
     bf2:	2100      	movs	r1, #0
     bf4:	f44f 4000 	mov.w	r0, #32768	; 0x8000
     bf8:	f004 fcee 	bl	55d8 <z_impl_k_sleep>
 * @return Zero if the requested time has elapsed or the number of milliseconds
 * left to sleep, if thread was woken up by \ref k_wakeup call.
 */
static inline int32_t k_msleep(int32_t ms)
{
	return k_sleep(Z_TIMEOUT_MS(ms));
     bfc:	e7cd      	b.n	b9a <main+0x42>
     bfe:	bf00      	nop
     c00:	00000000 	.word	0x00000000
     c04:	412e8480 	.word	0x412e8480
     c08:	0000729c 	.word	0x0000729c
     c0c:	000072ac 	.word	0x000072ac
     c10:	000072b3 	.word	0x000072b3
     c14:	000072cd 	.word	0x000072cd
     c18:	00007321 	.word	0x00007321
     c1c:	00007349 	.word	0x00007349
     c20:	0000736e 	.word	0x0000736e
     c24:	00007395 	.word	0x00007395

00000c28 <char_out>:

static int char_out(int c, void *ctx_p)
{
	struct out_context *ctx = ctx_p;

	ctx->count++;
     c28:	680b      	ldr	r3, [r1, #0]
     c2a:	3301      	adds	r3, #1
     c2c:	600b      	str	r3, [r1, #0]
	return _char_out(c);
     c2e:	4b01      	ldr	r3, [pc, #4]	; (c34 <char_out+0xc>)
     c30:	681b      	ldr	r3, [r3, #0]
     c32:	4718      	bx	r3
     c34:	20000000 	.word	0x20000000

00000c38 <__printk_hook_install>:
	_char_out = fn;
     c38:	4b01      	ldr	r3, [pc, #4]	; (c40 <__printk_hook_install+0x8>)
     c3a:	6018      	str	r0, [r3, #0]
}
     c3c:	4770      	bx	lr
     c3e:	bf00      	nop
     c40:	20000000 	.word	0x20000000

00000c44 <vprintk>:
}

void vprintk(const char *fmt, va_list ap)
{
     c44:	b507      	push	{r0, r1, r2, lr}
     c46:	460b      	mov	r3, r1

		if (ctx.buf_count) {
			buf_flush(&ctx);
		}
	} else {
		struct out_context ctx = { 0 };
     c48:	2100      	movs	r1, #0
{
     c4a:	4602      	mov	r2, r0
		struct out_context ctx = { 0 };
     c4c:	9101      	str	r1, [sp, #4]
#ifdef CONFIG_PRINTK_SYNC
		k_spinlock_key_t key = k_spin_lock(&lock);
#endif

		cbvprintf(char_out, &ctx, fmt, ap);
     c4e:	4803      	ldr	r0, [pc, #12]	; (c5c <vprintk+0x18>)
     c50:	a901      	add	r1, sp, #4
     c52:	f000 f8e5 	bl	e20 <cbvprintf>

#ifdef CONFIG_PRINTK_SYNC
		k_spin_unlock(&lock, key);
#endif
	}
}
     c56:	b003      	add	sp, #12
     c58:	f85d fb04 	ldr.w	pc, [sp], #4
     c5c:	00000c29 	.word	0x00000c29

00000c60 <process_event>:
 * regions.
 */
static void process_event(struct onoff_manager *mgr,
			  int evt,
			  k_spinlock_key_t key)
{
     c60:	e92d 4ff8 	stmdb	sp!, {r3, r4, r5, r6, r7, r8, r9, sl, fp, lr}
	sys_slist_t clients;
	uint32_t state = mgr->flags & ONOFF_STATE_MASK;
     c64:	f8b0 9018 	ldrh.w	r9, [r0, #24]
	__ASSERT_NO_MSG(evt != EVT_NOP);

	/* If this is a nested call record the event for processing in
	 * the top invocation.
	 */
	if (processing) {
     c68:	f019 0808 	ands.w	r8, r9, #8
{
     c6c:	4604      	mov	r4, r0
     c6e:	4693      	mov	fp, r2
	if (processing) {
     c70:	d00d      	beq.n	c8e <process_event+0x2e>
		if (evt == EVT_COMPLETE) {
     c72:	2901      	cmp	r1, #1
			mgr->flags |= ONOFF_FLAG_COMPLETE;
     c74:	bf0c      	ite	eq
     c76:	f049 0910 	orreq.w	r9, r9, #16
		} else {
			__ASSERT_NO_MSG(evt == EVT_RECHECK);

			mgr->flags |= ONOFF_FLAG_RECHECK;
     c7a:	f049 0920 	orrne.w	r9, r9, #32
     c7e:	f8a0 9018 	strh.w	r9, [r0, #24]
	__asm__ volatile(
		"cpsie i;"
		"isb"
		: : : "memory");
#elif defined(CONFIG_ARMV7_M_ARMV8_M_MAINLINE)
	__asm__ volatile(
     c82:	f38b 8811 	msr	BASEPRI, fp
     c86:	f3bf 8f6f 	isb	sy
		state = mgr->flags & ONOFF_STATE_MASK;
	} while (evt != EVT_NOP);

out:
	k_spin_unlock(&mgr->lock, key);
}
     c8a:	e8bd 8ff8 	ldmia.w	sp!, {r3, r4, r5, r6, r7, r8, r9, sl, fp, pc}
	uint32_t state = mgr->flags & ONOFF_STATE_MASK;
     c8e:	f009 0907 	and.w	r9, r9, #7
		if (evt == EVT_RECHECK) {
     c92:	2902      	cmp	r1, #2
     c94:	d107      	bne.n	ca6 <process_event+0x46>
			evt = process_recheck(mgr);
     c96:	4620      	mov	r0, r4
     c98:	f004 feca 	bl	5a30 <process_recheck>
		if (evt == EVT_NOP) {
     c9c:	2800      	cmp	r0, #0
     c9e:	d0f0      	beq.n	c82 <process_event+0x22>
		if (evt == EVT_COMPLETE) {
     ca0:	2801      	cmp	r0, #1
		     | (mgr->flags & ~ONOFF_STATE_MASK);
     ca2:	8b23      	ldrh	r3, [r4, #24]
		if (evt == EVT_COMPLETE) {
     ca4:	d14e      	bne.n	d44 <process_event+0xe4>
			res = mgr->last_res;
     ca6:	6967      	ldr	r7, [r4, #20]
	uint32_t state = mgr->flags & ONOFF_STATE_MASK;
     ca8:	8b21      	ldrh	r1, [r4, #24]
	if (res < 0) {
     caa:	2f00      	cmp	r7, #0
     cac:	da15      	bge.n	cda <process_event+0x7a>
		*clients = mgr->clients;
     cae:	6825      	ldr	r5, [r4, #0]
		     | (mgr->flags & ~ONOFF_STATE_MASK);
     cb0:	f021 0107 	bic.w	r1, r1, #7
 * @param list A pointer on the list to initialize
 */
static inline void sys_slist_init(sys_slist_t *list)
{
	list->head = NULL;
	list->tail = NULL;
     cb4:	e9c4 8800 	strd	r8, r8, [r4]
     cb8:	f041 0101 	orr.w	r1, r1, #1
	mgr->flags = (state & ONOFF_STATE_MASK)
     cbc:	8321      	strh	r1, [r4, #24]
		onoff_transition_fn transit = NULL;
     cbe:	2600      	movs	r6, #0
		bool do_monitors = (state != (mgr->flags & ONOFF_STATE_MASK))
     cc0:	8b21      	ldrh	r1, [r4, #24]
     cc2:	f001 0a07 	and.w	sl, r1, #7
				   && !sys_slist_is_empty(&mgr->monitors);
     cc6:	45ca      	cmp	sl, r9
     cc8:	d002      	beq.n	cd0 <process_event+0x70>
		if (do_monitors
     cca:	68a3      	ldr	r3, [r4, #8]
     ccc:	2b00      	cmp	r3, #0
     cce:	d15a      	bne.n	d86 <process_event+0x126>
		    || !sys_slist_is_empty(&clients)
     cd0:	b90d      	cbnz	r5, cd6 <process_event+0x76>
		    || (transit != NULL)) {
     cd2:	2e00      	cmp	r6, #0
     cd4:	d071      	beq.n	dba <process_event+0x15a>
     cd6:	2300      	movs	r3, #0
     cd8:	e056      	b.n	d88 <process_event+0x128>
	uint32_t state = mgr->flags & ONOFF_STATE_MASK;
     cda:	f001 0307 	and.w	r3, r1, #7
		   || (state == ONOFF_STATE_RESETTING)) {
     cde:	1f5a      	subs	r2, r3, #5
	} else if ((state == ONOFF_STATE_TO_ON)
     ce0:	2a01      	cmp	r2, #1
     ce2:	d81e      	bhi.n	d22 <process_event+0xc2>
		     | (mgr->flags & ~ONOFF_STATE_MASK);
     ce4:	f021 0107 	bic.w	r1, r1, #7
		if (state == ONOFF_STATE_TO_ON) {
     ce8:	2b06      	cmp	r3, #6
		*clients = mgr->clients;
     cea:	6825      	ldr	r5, [r4, #0]
		     | (mgr->flags & ~ONOFF_STATE_MASK);
     cec:	b289      	uxth	r1, r1
     cee:	e9c4 8800 	strd	r8, r8, [r4]
		if (state == ONOFF_STATE_TO_ON) {
     cf2:	d10a      	bne.n	d0a <process_event+0xaa>
			SYS_SLIST_FOR_EACH_CONTAINER(clients, cp, node) {
     cf4:	b13d      	cbz	r5, d06 <process_event+0xa6>
     cf6:	8b63      	ldrh	r3, [r4, #26]
     cf8:	462a      	mov	r2, r5

#define SYS_SLIST_STATIC_INIT(ptr_to_list) {NULL, NULL}

static inline sys_snode_t *z_snode_next_peek(sys_snode_t *node)
{
	return node->next;
     cfa:	6812      	ldr	r2, [r2, #0]
				mgr->refs += 1U;
     cfc:	3301      	adds	r3, #1
     cfe:	b29b      	uxth	r3, r3
			SYS_SLIST_FOR_EACH_CONTAINER(clients, cp, node) {
     d00:	2a00      	cmp	r2, #0
     d02:	d1fa      	bne.n	cfa <process_event+0x9a>
     d04:	8363      	strh	r3, [r4, #26]
		     | (mgr->flags & ~ONOFF_STATE_MASK);
     d06:	f041 0102 	orr.w	r1, r1, #2
	mgr->flags = (state & ONOFF_STATE_MASK)
     d0a:	8321      	strh	r1, [r4, #24]
		if (process_recheck(mgr) != EVT_NOP) {
     d0c:	4620      	mov	r0, r4
     d0e:	f004 fe8f 	bl	5a30 <process_recheck>
     d12:	4606      	mov	r6, r0
     d14:	2800      	cmp	r0, #0
     d16:	d0d3      	beq.n	cc0 <process_event+0x60>
			mgr->flags |= ONOFF_FLAG_RECHECK;
     d18:	8b23      	ldrh	r3, [r4, #24]
     d1a:	f043 0320 	orr.w	r3, r3, #32
     d1e:	8323      	strh	r3, [r4, #24]
     d20:	e7cd      	b.n	cbe <process_event+0x5e>
	} else if (state == ONOFF_STATE_TO_OFF) {
     d22:	2b04      	cmp	r3, #4
     d24:	d10c      	bne.n	d40 <process_event+0xe0>
		     | (mgr->flags & ~ONOFF_STATE_MASK);
     d26:	f021 0107 	bic.w	r1, r1, #7
     d2a:	b289      	uxth	r1, r1
	mgr->flags = (state & ONOFF_STATE_MASK)
     d2c:	8321      	strh	r1, [r4, #24]
		if (process_recheck(mgr) != EVT_NOP) {
     d2e:	4620      	mov	r0, r4
     d30:	f004 fe7e 	bl	5a30 <process_recheck>
     d34:	4605      	mov	r5, r0
     d36:	2800      	cmp	r0, #0
     d38:	d0c1      	beq.n	cbe <process_event+0x5e>
			mgr->flags |= ONOFF_FLAG_RECHECK;
     d3a:	f041 0120 	orr.w	r1, r1, #32
     d3e:	8321      	strh	r1, [r4, #24]
     d40:	2500      	movs	r5, #0
     d42:	e7bc      	b.n	cbe <process_event+0x5e>
		} else if (evt == EVT_START) {
     d44:	2803      	cmp	r0, #3
     d46:	d109      	bne.n	d5c <process_event+0xfc>
			transit = mgr->transitions->start;
     d48:	6922      	ldr	r2, [r4, #16]
		     | (mgr->flags & ~ONOFF_STATE_MASK);
     d4a:	f023 0307 	bic.w	r3, r3, #7
			transit = mgr->transitions->start;
     d4e:	6816      	ldr	r6, [r2, #0]
		     | (mgr->flags & ~ONOFF_STATE_MASK);
     d50:	f043 0306 	orr.w	r3, r3, #6
	mgr->flags = (state & ONOFF_STATE_MASK)
     d54:	8323      	strh	r3, [r4, #24]
}
     d56:	2500      	movs	r5, #0
		res = 0;
     d58:	462f      	mov	r7, r5
     d5a:	e7b1      	b.n	cc0 <process_event+0x60>
		} else if (evt == EVT_STOP) {
     d5c:	2804      	cmp	r0, #4
     d5e:	d106      	bne.n	d6e <process_event+0x10e>
			transit = mgr->transitions->stop;
     d60:	6922      	ldr	r2, [r4, #16]
		     | (mgr->flags & ~ONOFF_STATE_MASK);
     d62:	f023 0307 	bic.w	r3, r3, #7
			transit = mgr->transitions->stop;
     d66:	6856      	ldr	r6, [r2, #4]
		     | (mgr->flags & ~ONOFF_STATE_MASK);
     d68:	f043 0304 	orr.w	r3, r3, #4
     d6c:	e7f2      	b.n	d54 <process_event+0xf4>
		} else if (evt == EVT_RESET) {
     d6e:	2805      	cmp	r0, #5
     d70:	d106      	bne.n	d80 <process_event+0x120>
			transit = mgr->transitions->reset;
     d72:	6922      	ldr	r2, [r4, #16]
		     | (mgr->flags & ~ONOFF_STATE_MASK);
     d74:	f023 0307 	bic.w	r3, r3, #7
			transit = mgr->transitions->reset;
     d78:	6896      	ldr	r6, [r2, #8]
		     | (mgr->flags & ~ONOFF_STATE_MASK);
     d7a:	f043 0305 	orr.w	r3, r3, #5
     d7e:	e7e9      	b.n	d54 <process_event+0xf4>
     d80:	2500      	movs	r5, #0
		onoff_transition_fn transit = NULL;
     d82:	462e      	mov	r6, r5
     d84:	e7e8      	b.n	d58 <process_event+0xf8>
				   && !sys_slist_is_empty(&mgr->monitors);
     d86:	2301      	movs	r3, #1
			uint32_t flags = mgr->flags | ONOFF_FLAG_PROCESSING;
     d88:	f041 0108 	orr.w	r1, r1, #8
			mgr->flags = flags;
     d8c:	8321      	strh	r1, [r4, #24]
     d8e:	f38b 8811 	msr	BASEPRI, fp
     d92:	f3bf 8f6f 	isb	sy
			if (do_monitors) {
     d96:	b9fb      	cbnz	r3, dd8 <process_event+0x178>
	while (!sys_slist_is_empty(list)) {
     d98:	bb85      	cbnz	r5, dfc <process_event+0x19c>
			if (transit != NULL) {
     d9a:	b116      	cbz	r6, da2 <process_event+0x142>
				transit(mgr, transition_complete);
     d9c:	491f      	ldr	r1, [pc, #124]	; (e1c <process_event+0x1bc>)
     d9e:	4620      	mov	r0, r4
     da0:	47b0      	blx	r6
	__asm__ volatile(
     da2:	f04f 0320 	mov.w	r3, #32
     da6:	f3ef 8b11 	mrs	fp, BASEPRI
     daa:	f383 8812 	msr	BASEPRI_MAX, r3
     dae:	f3bf 8f6f 	isb	sy
			mgr->flags &= ~ONOFF_FLAG_PROCESSING;
     db2:	8b23      	ldrh	r3, [r4, #24]
     db4:	f023 0308 	bic.w	r3, r3, #8
     db8:	8323      	strh	r3, [r4, #24]
		if ((mgr->flags & ONOFF_FLAG_COMPLETE) != 0) {
     dba:	8b23      	ldrh	r3, [r4, #24]
     dbc:	06da      	lsls	r2, r3, #27
     dbe:	d525      	bpl.n	e0c <process_event+0x1ac>
			mgr->flags &= ~ONOFF_FLAG_COMPLETE;
     dc0:	f023 0310 	bic.w	r3, r3, #16
     dc4:	8323      	strh	r3, [r4, #24]
			evt = EVT_COMPLETE;
     dc6:	2101      	movs	r1, #1
		state = mgr->flags & ONOFF_STATE_MASK;
     dc8:	f8b4 9018 	ldrh.w	r9, [r4, #24]
     dcc:	f009 0907 	and.w	r9, r9, #7
	} while (evt != EVT_NOP);
     dd0:	2900      	cmp	r1, #0
     dd2:	f47f af5e 	bne.w	c92 <process_event+0x32>
out:
     dd6:	e754      	b.n	c82 <process_event+0x22>
 *
 * @return A pointer on the first node of the list (or NULL if none)
 */
static inline sys_snode_t *sys_slist_peek_head(sys_slist_t *list)
{
	return list->head;
     dd8:	68a1      	ldr	r1, [r4, #8]
	SYS_SLIST_FOR_EACH_CONTAINER_SAFE(mlist, mon, tmp, node) {
     dda:	2900      	cmp	r1, #0
     ddc:	d0dc      	beq.n	d98 <process_event+0x138>
	return node->next;
     dde:	f8d1 9000 	ldr.w	r9, [r1]
		mon->callback(mgr, mon, state, res);
     de2:	f8d1 b004 	ldr.w	fp, [r1, #4]
     de6:	463b      	mov	r3, r7
     de8:	4652      	mov	r2, sl
     dea:	4620      	mov	r0, r4
     dec:	47d8      	blx	fp
	SYS_SLIST_FOR_EACH_CONTAINER_SAFE(mlist, mon, tmp, node) {
     dee:	f1b9 0f00 	cmp.w	r9, #0
     df2:	d0d1      	beq.n	d98 <process_event+0x138>
     df4:	4649      	mov	r1, r9
     df6:	f8d9 9000 	ldr.w	r9, [r9]
     dfa:	e7f2      	b.n	de2 <process_event+0x182>
     dfc:	4629      	mov	r1, r5
		notify_one(mgr, cli, state, res);
     dfe:	463b      	mov	r3, r7
     e00:	4652      	mov	r2, sl
     e02:	4620      	mov	r0, r4
     e04:	682d      	ldr	r5, [r5, #0]
     e06:	f004 fe2f 	bl	5a68 <notify_one>
     e0a:	e7c5      	b.n	d98 <process_event+0x138>
		} else if ((mgr->flags & ONOFF_FLAG_RECHECK) != 0) {
     e0c:	f013 0120 	ands.w	r1, r3, #32
			mgr->flags &= ~ONOFF_FLAG_RECHECK;
     e10:	bf1e      	ittt	ne
     e12:	f023 0320 	bicne.w	r3, r3, #32
     e16:	8323      	strhne	r3, [r4, #24]
			evt = EVT_RECHECK;
     e18:	2102      	movne	r1, #2
     e1a:	e7d5      	b.n	dc8 <process_event+0x168>
     e1c:	00005a95 	.word	0x00005a95

00000e20 <cbvprintf>:

	return (int)count;
}

int cbvprintf(cbprintf_cb out, void *ctx, const char *fp, va_list ap)
{
     e20:	e92d 4ff0 	stmdb	sp!, {r4, r5, r6, r7, r8, r9, sl, fp, lr}
     e24:	4681      	mov	r9, r0
     e26:	b09b      	sub	sp, #108	; 0x6c
     e28:	468a      	mov	sl, r1
     e2a:	4615      	mov	r5, r2
     e2c:	461c      	mov	r4, r3
	char buf[CONVERTED_BUFLEN];
	size_t count = 0;
     e2e:	2600      	movs	r6, #0
		return rc; \
	} \
	count += rc; \
} while (false)

	while (*fp != 0) {
     e30:	7828      	ldrb	r0, [r5, #0]
     e32:	b910      	cbnz	r0, e3a <cbvprintf+0x1a>
			OUTC(' ');
			--width;
		}
	}

	return count;
     e34:	4630      	mov	r0, r6
     e36:	f000 bdee 	b.w	1a16 <cbvprintf+0xbf6>
			OUTC(*fp++);
     e3a:	1c6b      	adds	r3, r5, #1
		if (*fp != '%') {
     e3c:	2825      	cmp	r0, #37	; 0x25
			OUTC(*fp++);
     e3e:	9302      	str	r3, [sp, #8]
		if (*fp != '%') {
     e40:	d006      	beq.n	e50 <cbvprintf+0x30>
			OUTC(*fp++);
     e42:	4651      	mov	r1, sl
			OUTC('%');
     e44:	47c8      	blx	r9
     e46:	2800      	cmp	r0, #0
     e48:	f2c0 85e5 	blt.w	1a16 <cbvprintf+0xbf6>
     e4c:	3601      	adds	r6, #1
		if (bps == NULL) {
     e4e:	e24c      	b.n	12ea <cbvprintf+0x4ca>
		} state = {
     e50:	2218      	movs	r2, #24
     e52:	2100      	movs	r1, #0
     e54:	a80c      	add	r0, sp, #48	; 0x30
     e56:	f005 f815 	bl	5e84 <memset>
	if (*sp == '%') {
     e5a:	786b      	ldrb	r3, [r5, #1]
     e5c:	2b25      	cmp	r3, #37	; 0x25
     e5e:	d07c      	beq.n	f5a <cbvprintf+0x13a>
     e60:	2200      	movs	r2, #0
     e62:	1c68      	adds	r0, r5, #1
     e64:	4696      	mov	lr, r2
     e66:	4690      	mov	r8, r2
     e68:	4694      	mov	ip, r2
     e6a:	4617      	mov	r7, r2
     e6c:	4601      	mov	r1, r0
		switch (*sp) {
     e6e:	f810 3b01 	ldrb.w	r3, [r0], #1
     e72:	2b2b      	cmp	r3, #43	; 0x2b
     e74:	f000 80a0 	beq.w	fb8 <cbvprintf+0x198>
     e78:	f200 8097 	bhi.w	faa <cbvprintf+0x18a>
     e7c:	2b20      	cmp	r3, #32
     e7e:	f000 809e 	beq.w	fbe <cbvprintf+0x19e>
     e82:	2b23      	cmp	r3, #35	; 0x23
     e84:	f000 809e 	beq.w	fc4 <cbvprintf+0x1a4>
     e88:	b12f      	cbz	r7, e96 <cbvprintf+0x76>
     e8a:	f89d 0038 	ldrb.w	r0, [sp, #56]	; 0x38
     e8e:	f040 0004 	orr.w	r0, r0, #4
     e92:	f88d 0038 	strb.w	r0, [sp, #56]	; 0x38
     e96:	f1bc 0f00 	cmp.w	ip, #0
     e9a:	d005      	beq.n	ea8 <cbvprintf+0x88>
     e9c:	f89d 0038 	ldrb.w	r0, [sp, #56]	; 0x38
     ea0:	f040 0008 	orr.w	r0, r0, #8
     ea4:	f88d 0038 	strb.w	r0, [sp, #56]	; 0x38
     ea8:	f1b8 0f00 	cmp.w	r8, #0
     eac:	d005      	beq.n	eba <cbvprintf+0x9a>
     eae:	f89d 0038 	ldrb.w	r0, [sp, #56]	; 0x38
     eb2:	f040 0010 	orr.w	r0, r0, #16
     eb6:	f88d 0038 	strb.w	r0, [sp, #56]	; 0x38
     eba:	f1be 0f00 	cmp.w	lr, #0
     ebe:	d005      	beq.n	ecc <cbvprintf+0xac>
     ec0:	f89d 0038 	ldrb.w	r0, [sp, #56]	; 0x38
     ec4:	f040 0020 	orr.w	r0, r0, #32
     ec8:	f88d 0038 	strb.w	r0, [sp, #56]	; 0x38
     ecc:	b12a      	cbz	r2, eda <cbvprintf+0xba>
     ece:	f89d 2038 	ldrb.w	r2, [sp, #56]	; 0x38
     ed2:	f042 0240 	orr.w	r2, r2, #64	; 0x40
     ed6:	f88d 2038 	strb.w	r2, [sp, #56]	; 0x38
	if (conv->flag_zero && conv->flag_dash) {
     eda:	f89d 2038 	ldrb.w	r2, [sp, #56]	; 0x38
     ede:	f002 0044 	and.w	r0, r2, #68	; 0x44
     ee2:	2844      	cmp	r0, #68	; 0x44
     ee4:	d103      	bne.n	eee <cbvprintf+0xce>
		conv->flag_zero = false;
     ee6:	f36f 1286 	bfc	r2, #6, #1
     eea:	f88d 2038 	strb.w	r2, [sp, #56]	; 0x38
	conv->width_present = true;
     eee:	f89d 2038 	ldrb.w	r2, [sp, #56]	; 0x38
	if (*sp == '*') {
     ef2:	2b2a      	cmp	r3, #42	; 0x2a
	conv->width_present = true;
     ef4:	f042 0280 	orr.w	r2, r2, #128	; 0x80
     ef8:	f88d 2038 	strb.w	r2, [sp, #56]	; 0x38
	if (*sp == '*') {
     efc:	d17e      	bne.n	ffc <cbvprintf+0x1dc>
		conv->width_star = true;
     efe:	f89d 2039 	ldrb.w	r2, [sp, #57]	; 0x39
     f02:	f042 0201 	orr.w	r2, r2, #1
			++sp;
     f06:	1c4b      	adds	r3, r1, #1
		conv->width_star = true;
     f08:	f88d 2039 	strb.w	r2, [sp, #57]	; 0x39
	conv->prec_present = (*sp == '.');
     f0c:	781a      	ldrb	r2, [r3, #0]
     f0e:	2a2e      	cmp	r2, #46	; 0x2e
     f10:	f89d 2039 	ldrb.w	r2, [sp, #57]	; 0x39
     f14:	bf0c      	ite	eq
     f16:	2101      	moveq	r1, #1
     f18:	2100      	movne	r1, #0
     f1a:	f361 0241 	bfi	r2, r1, #1, #1
     f1e:	f88d 2039 	strb.w	r2, [sp, #57]	; 0x39
	if (!conv->prec_present) {
     f22:	d177      	bne.n	1014 <cbvprintf+0x1f4>
	if (*sp == '*') {
     f24:	785a      	ldrb	r2, [r3, #1]
     f26:	2a2a      	cmp	r2, #42	; 0x2a
     f28:	d06d      	beq.n	1006 <cbvprintf+0x1e6>
	++sp;
     f2a:	3301      	adds	r3, #1
	size_t val = 0;
     f2c:	2100      	movs	r1, #0
		val = 10U * val + *sp++ - '0';
     f2e:	f04f 0c0a 	mov.w	ip, #10
			(((unsigned)c) <= (unsigned)'~'));
}

static inline int isdigit(int a)
{
	return (int)(((unsigned)(a)-(unsigned)'0') < 10U);
     f32:	4618      	mov	r0, r3
     f34:	f810 2b01 	ldrb.w	r2, [r0], #1
     f38:	f1a2 0730 	sub.w	r7, r2, #48	; 0x30
	while (isdigit((int)(unsigned char)*sp)) {
     f3c:	2f09      	cmp	r7, #9
     f3e:	f240 80ab 	bls.w	1098 <cbvprintf+0x278>
	conv->unsupported |= ((conv->prec_value < 0)
     f42:	f89d 2038 	ldrb.w	r2, [sp, #56]	; 0x38
	conv->prec_value = prec;
     f46:	9110      	str	r1, [sp, #64]	; 0x40
	conv->unsupported |= ((conv->prec_value < 0)
     f48:	f3c2 0040 	ubfx	r0, r2, #1, #1
     f4c:	ea40 71d1 	orr.w	r1, r0, r1, lsr #31
     f50:	f361 0241 	bfi	r2, r1, #1, #1
     f54:	f88d 2038 	strb.w	r2, [sp, #56]	; 0x38
	return sp;
     f58:	e05c      	b.n	1014 <cbvprintf+0x1f4>
		conv->specifier = *sp++;
     f5a:	1caa      	adds	r2, r5, #2
     f5c:	9202      	str	r2, [sp, #8]
     f5e:	f88d 303b 	strb.w	r3, [sp, #59]	; 0x3b
		if (conv->width_star) {
     f62:	f89d 3039 	ldrb.w	r3, [sp, #57]	; 0x39
     f66:	07df      	lsls	r7, r3, #31
     f68:	f140 8173 	bpl.w	1252 <cbvprintf+0x432>
			width = va_arg(ap, int);
     f6c:	f854 bb04 	ldr.w	fp, [r4], #4
			if (width < 0) {
     f70:	f1bb 0f00 	cmp.w	fp, #0
     f74:	da07      	bge.n	f86 <cbvprintf+0x166>
				conv->flag_dash = true;
     f76:	f89d 2038 	ldrb.w	r2, [sp, #56]	; 0x38
     f7a:	f042 0204 	orr.w	r2, r2, #4
     f7e:	f88d 2038 	strb.w	r2, [sp, #56]	; 0x38
				width = -width;
     f82:	f1cb 0b00 	rsb	fp, fp, #0
		if (conv->prec_star) {
     f86:	0758      	lsls	r0, r3, #29
     f88:	f140 816c 	bpl.w	1264 <cbvprintf+0x444>
			int arg = va_arg(ap, int);
     f8c:	f854 8b04 	ldr.w	r8, [r4], #4
			if (arg < 0) {
     f90:	f1b8 0f00 	cmp.w	r8, #0
     f94:	f280 816b 	bge.w	126e <cbvprintf+0x44e>
				conv->prec_present = false;
     f98:	f89d 3039 	ldrb.w	r3, [sp, #57]	; 0x39
     f9c:	f36f 0341 	bfc	r3, #1, #1
     fa0:	f88d 3039 	strb.w	r3, [sp, #57]	; 0x39
		int precision = -1;
     fa4:	f04f 38ff 	mov.w	r8, #4294967295	; 0xffffffff
     fa8:	e161      	b.n	126e <cbvprintf+0x44e>
		switch (*sp) {
     faa:	2b2d      	cmp	r3, #45	; 0x2d
     fac:	d00d      	beq.n	fca <cbvprintf+0x1aa>
     fae:	2b30      	cmp	r3, #48	; 0x30
     fb0:	f47f af6a 	bne.w	e88 <cbvprintf+0x68>
			conv->flag_zero = true;
     fb4:	2201      	movs	r2, #1
	} while (loop);
     fb6:	e759      	b.n	e6c <cbvprintf+0x4c>
			conv->flag_plus = true;
     fb8:	f04f 0c01 	mov.w	ip, #1
     fbc:	e756      	b.n	e6c <cbvprintf+0x4c>
			conv->flag_space = true;
     fbe:	f04f 0801 	mov.w	r8, #1
     fc2:	e753      	b.n	e6c <cbvprintf+0x4c>
			conv->flag_hash = true;
     fc4:	f04f 0e01 	mov.w	lr, #1
     fc8:	e750      	b.n	e6c <cbvprintf+0x4c>
		switch (*sp) {
     fca:	2701      	movs	r7, #1
     fcc:	e74e      	b.n	e6c <cbvprintf+0x4c>
		val = 10U * val + *sp++ - '0';
     fce:	fb0c 7202 	mla	r2, ip, r2, r7
     fd2:	3a30      	subs	r2, #48	; 0x30
     fd4:	4603      	mov	r3, r0
     fd6:	4618      	mov	r0, r3
     fd8:	f810 7b01 	ldrb.w	r7, [r0], #1
     fdc:	f1a7 0e30 	sub.w	lr, r7, #48	; 0x30
	while (isdigit((int)(unsigned char)*sp)) {
     fe0:	f1be 0f09 	cmp.w	lr, #9
     fe4:	d9f3      	bls.n	fce <cbvprintf+0x1ae>
	if (sp != wp) {
     fe6:	4299      	cmp	r1, r3
     fe8:	d090      	beq.n	f0c <cbvprintf+0xec>
		conv->unsupported |= ((conv->width_value < 0)
     fea:	f89d 1038 	ldrb.w	r1, [sp, #56]	; 0x38
		conv->width_value = width;
     fee:	920f      	str	r2, [sp, #60]	; 0x3c
				      || (width != (size_t)conv->width_value));
     ff0:	0fd2      	lsrs	r2, r2, #31
		conv->unsupported |= ((conv->width_value < 0)
     ff2:	f362 0141 	bfi	r1, r2, #1, #1
     ff6:	f88d 1038 	strb.w	r1, [sp, #56]	; 0x38
     ffa:	e787      	b.n	f0c <cbvprintf+0xec>
     ffc:	460b      	mov	r3, r1
	size_t val = 0;
     ffe:	2200      	movs	r2, #0
		val = 10U * val + *sp++ - '0';
    1000:	f04f 0c0a 	mov.w	ip, #10
    1004:	e7e7      	b.n	fd6 <cbvprintf+0x1b6>
		conv->prec_star = true;
    1006:	f89d 2039 	ldrb.w	r2, [sp, #57]	; 0x39
    100a:	f042 0204 	orr.w	r2, r2, #4
    100e:	f88d 2039 	strb.w	r2, [sp, #57]	; 0x39
		return ++sp;
    1012:	3302      	adds	r3, #2
	switch (*sp) {
    1014:	4619      	mov	r1, r3
    1016:	f811 2b01 	ldrb.w	r2, [r1], #1
    101a:	2a6c      	cmp	r2, #108	; 0x6c
    101c:	d05c      	beq.n	10d8 <cbvprintf+0x2b8>
    101e:	d840      	bhi.n	10a2 <cbvprintf+0x282>
    1020:	2a68      	cmp	r2, #104	; 0x68
    1022:	d046      	beq.n	10b2 <cbvprintf+0x292>
    1024:	2a6a      	cmp	r2, #106	; 0x6a
    1026:	d061      	beq.n	10ec <cbvprintf+0x2cc>
    1028:	2a4c      	cmp	r2, #76	; 0x4c
    102a:	d067      	beq.n	10fc <cbvprintf+0x2dc>
    102c:	4619      	mov	r1, r3
	conv->specifier = *sp++;
    102e:	460b      	mov	r3, r1
    1030:	f813 2b01 	ldrb.w	r2, [r3], #1
    1034:	9302      	str	r3, [sp, #8]
	switch (conv->specifier) {
    1036:	2a78      	cmp	r2, #120	; 0x78
	conv->specifier = *sp++;
    1038:	f88d 203b 	strb.w	r2, [sp, #59]	; 0x3b
	switch (conv->specifier) {
    103c:	f200 80df 	bhi.w	11fe <cbvprintf+0x3de>
    1040:	2a57      	cmp	r2, #87	; 0x57
    1042:	d868      	bhi.n	1116 <cbvprintf+0x2f6>
    1044:	2a41      	cmp	r2, #65	; 0x41
    1046:	d004      	beq.n	1052 <cbvprintf+0x232>
    1048:	f1a2 0345 	sub.w	r3, r2, #69	; 0x45
    104c:	2b02      	cmp	r3, #2
    104e:	f200 80d6 	bhi.w	11fe <cbvprintf+0x3de>
		conv->specifier_cat = SPECIFIER_FP;
    1052:	f89d 303a 	ldrb.w	r3, [sp, #58]	; 0x3a
			|| (conv->specifier == 'A');
    1056:	f002 02df 	and.w	r2, r2, #223	; 0xdf
		conv->specifier_cat = SPECIFIER_FP;
    105a:	2104      	movs	r1, #4
			|| (conv->specifier == 'A');
    105c:	f1a2 0841 	sub.w	r8, r2, #65	; 0x41
		conv->specifier_cat = SPECIFIER_FP;
    1060:	f361 0302 	bfi	r3, r1, #0, #3
			|| (conv->specifier == 'A');
    1064:	f1d8 0200 	rsbs	r2, r8, #0
		conv->specifier_a = (conv->specifier == 'a')
    1068:	f89d 1039 	ldrb.w	r1, [sp, #57]	; 0x39
		conv->specifier_cat = SPECIFIER_FP;
    106c:	f88d 303a 	strb.w	r3, [sp, #58]	; 0x3a
			|| (conv->specifier == 'A');
    1070:	eb42 0208 	adc.w	r2, r2, r8
		conv->specifier_a = (conv->specifier == 'a')
    1074:	f362 11c7 	bfi	r1, r2, #7, #1
		if (conv->specifier_a
    1078:	060a      	lsls	r2, r1, #24
		conv->specifier_a = (conv->specifier == 'a')
    107a:	f88d 1039 	strb.w	r1, [sp, #57]	; 0x39
		if (conv->specifier_a
    107e:	b2cb      	uxtb	r3, r1
    1080:	f100 80e5 	bmi.w	124e <cbvprintf+0x42e>
		if (conv->length_mod == LENGTH_L) {
    1084:	f003 0278 	and.w	r2, r3, #120	; 0x78
    1088:	2a18      	cmp	r2, #24
    108a:	f040 80b5 	bne.w	11f8 <cbvprintf+0x3d8>
			conv->length_mod = LENGTH_NONE;
    108e:	f36f 03c6 	bfc	r3, #3, #4
    1092:	f88d 3039 	strb.w	r3, [sp, #57]	; 0x39
    1096:	e09c      	b.n	11d2 <cbvprintf+0x3b2>
		val = 10U * val + *sp++ - '0';
    1098:	fb0c 2101 	mla	r1, ip, r1, r2
    109c:	3930      	subs	r1, #48	; 0x30
    109e:	4603      	mov	r3, r0
    10a0:	e747      	b.n	f32 <cbvprintf+0x112>
	switch (*sp) {
    10a2:	2a74      	cmp	r2, #116	; 0x74
    10a4:	d026      	beq.n	10f4 <cbvprintf+0x2d4>
    10a6:	2a7a      	cmp	r2, #122	; 0x7a
    10a8:	d1c0      	bne.n	102c <cbvprintf+0x20c>
		conv->length_mod = LENGTH_Z;
    10aa:	f89d 3039 	ldrb.w	r3, [sp, #57]	; 0x39
    10ae:	2206      	movs	r2, #6
    10b0:	e00d      	b.n	10ce <cbvprintf+0x2ae>
		if (*++sp == 'h') {
    10b2:	785a      	ldrb	r2, [r3, #1]
    10b4:	2a68      	cmp	r2, #104	; 0x68
    10b6:	f89d 2039 	ldrb.w	r2, [sp, #57]	; 0x39
    10ba:	d106      	bne.n	10ca <cbvprintf+0x2aa>
			conv->length_mod = LENGTH_HH;
    10bc:	2101      	movs	r1, #1
			conv->length_mod = LENGTH_LL;
    10be:	f361 02c6 	bfi	r2, r1, #3, #4
    10c2:	f88d 2039 	strb.w	r2, [sp, #57]	; 0x39
			++sp;
    10c6:	1c99      	adds	r1, r3, #2
    10c8:	e7b1      	b.n	102e <cbvprintf+0x20e>
			conv->length_mod = LENGTH_H;
    10ca:	4613      	mov	r3, r2
    10cc:	2202      	movs	r2, #2
		conv->length_mod = LENGTH_T;
    10ce:	f362 03c6 	bfi	r3, r2, #3, #4
    10d2:	f88d 3039 	strb.w	r3, [sp, #57]	; 0x39
		break;
    10d6:	e7aa      	b.n	102e <cbvprintf+0x20e>
		if (*++sp == 'l') {
    10d8:	785a      	ldrb	r2, [r3, #1]
    10da:	2a6c      	cmp	r2, #108	; 0x6c
    10dc:	f89d 2039 	ldrb.w	r2, [sp, #57]	; 0x39
    10e0:	d101      	bne.n	10e6 <cbvprintf+0x2c6>
			conv->length_mod = LENGTH_LL;
    10e2:	2104      	movs	r1, #4
    10e4:	e7eb      	b.n	10be <cbvprintf+0x29e>
			conv->length_mod = LENGTH_L;
    10e6:	4613      	mov	r3, r2
    10e8:	2203      	movs	r2, #3
    10ea:	e7f0      	b.n	10ce <cbvprintf+0x2ae>
		conv->length_mod = LENGTH_J;
    10ec:	f89d 3039 	ldrb.w	r3, [sp, #57]	; 0x39
    10f0:	2205      	movs	r2, #5
    10f2:	e7ec      	b.n	10ce <cbvprintf+0x2ae>
		conv->length_mod = LENGTH_T;
    10f4:	f89d 3039 	ldrb.w	r3, [sp, #57]	; 0x39
    10f8:	2207      	movs	r2, #7
    10fa:	e7e8      	b.n	10ce <cbvprintf+0x2ae>
		conv->unsupported = true;
    10fc:	f8bd 3038 	ldrh.w	r3, [sp, #56]	; 0x38
    1100:	f423 43f0 	bic.w	r3, r3, #30720	; 0x7800
    1104:	f023 0302 	bic.w	r3, r3, #2
    1108:	f443 4380 	orr.w	r3, r3, #16384	; 0x4000
    110c:	f043 0302 	orr.w	r3, r3, #2
    1110:	f8ad 3038 	strh.w	r3, [sp, #56]	; 0x38
		break;
    1114:	e78b      	b.n	102e <cbvprintf+0x20e>
	switch (conv->specifier) {
    1116:	f1a2 0358 	sub.w	r3, r2, #88	; 0x58
    111a:	2b20      	cmp	r3, #32
    111c:	d86f      	bhi.n	11fe <cbvprintf+0x3de>
    111e:	a101      	add	r1, pc, #4	; (adr r1, 1124 <cbvprintf+0x304>)
    1120:	f851 f023 	ldr.w	pc, [r1, r3, lsl #2]
    1124:	000011d7 	.word	0x000011d7
    1128:	000011ff 	.word	0x000011ff
    112c:	000011ff 	.word	0x000011ff
    1130:	000011ff 	.word	0x000011ff
    1134:	000011ff 	.word	0x000011ff
    1138:	000011ff 	.word	0x000011ff
    113c:	000011ff 	.word	0x000011ff
    1140:	000011ff 	.word	0x000011ff
    1144:	000011ff 	.word	0x000011ff
    1148:	00001053 	.word	0x00001053
    114c:	000011ff 	.word	0x000011ff
    1150:	000011d7 	.word	0x000011d7
    1154:	000011a9 	.word	0x000011a9
    1158:	00001053 	.word	0x00001053
    115c:	00001053 	.word	0x00001053
    1160:	00001053 	.word	0x00001053
    1164:	000011ff 	.word	0x000011ff
    1168:	000011a9 	.word	0x000011a9
    116c:	000011ff 	.word	0x000011ff
    1170:	000011ff 	.word	0x000011ff
    1174:	000011ff 	.word	0x000011ff
    1178:	000011ff 	.word	0x000011ff
    117c:	0000120d 	.word	0x0000120d
    1180:	000011d7 	.word	0x000011d7
    1184:	00001231 	.word	0x00001231
    1188:	000011ff 	.word	0x000011ff
    118c:	000011ff 	.word	0x000011ff
    1190:	00001231 	.word	0x00001231
    1194:	000011ff 	.word	0x000011ff
    1198:	000011d7 	.word	0x000011d7
    119c:	000011ff 	.word	0x000011ff
    11a0:	000011ff 	.word	0x000011ff
    11a4:	000011d7 	.word	0x000011d7
		conv->specifier_cat = SPECIFIER_SINT;
    11a8:	f89d 303a 	ldrb.w	r3, [sp, #58]	; 0x3a
    11ac:	2101      	movs	r1, #1
		conv->specifier_cat = SPECIFIER_UINT;
    11ae:	f361 0302 	bfi	r3, r1, #0, #3
    11b2:	f88d 303a 	strb.w	r3, [sp, #58]	; 0x3a
		if (conv->length_mod == LENGTH_UPPER_L) {
    11b6:	f89d 3039 	ldrb.w	r3, [sp, #57]	; 0x39
    11ba:	f003 0378 	and.w	r3, r3, #120	; 0x78
    11be:	2b40      	cmp	r3, #64	; 0x40
			conv->invalid = true;
    11c0:	bf02      	ittt	eq
    11c2:	f89d 1038 	ldrbeq.w	r1, [sp, #56]	; 0x38
    11c6:	f041 0101 	orreq.w	r1, r1, #1
    11ca:	f88d 1038 	strbeq.w	r1, [sp, #56]	; 0x38
		if (conv->specifier == 'c') {
    11ce:	2a63      	cmp	r2, #99	; 0x63
    11d0:	d005      	beq.n	11de <cbvprintf+0x3be>
	bool unsupported = false;
    11d2:	2300      	movs	r3, #0
    11d4:	e006      	b.n	11e4 <cbvprintf+0x3c4>
		conv->specifier_cat = SPECIFIER_UINT;
    11d6:	f89d 303a 	ldrb.w	r3, [sp, #58]	; 0x3a
    11da:	2102      	movs	r1, #2
    11dc:	e7e7      	b.n	11ae <cbvprintf+0x38e>
			unsupported = (conv->length_mod != LENGTH_NONE);
    11de:	3b00      	subs	r3, #0
    11e0:	bf18      	it	ne
    11e2:	2301      	movne	r3, #1
	conv->unsupported |= unsupported;
    11e4:	f89d 2038 	ldrb.w	r2, [sp, #56]	; 0x38
    11e8:	f3c2 0140 	ubfx	r1, r2, #1, #1
    11ec:	430b      	orrs	r3, r1
    11ee:	f363 0241 	bfi	r2, r3, #1, #1
    11f2:	f88d 2038 	strb.w	r2, [sp, #56]	; 0x38
	return sp;
    11f6:	e6b4      	b.n	f62 <cbvprintf+0x142>
		} else if ((conv->length_mod != LENGTH_NONE)
    11f8:	f013 0f38 	tst.w	r3, #56	; 0x38
    11fc:	d0e9      	beq.n	11d2 <cbvprintf+0x3b2>
			conv->invalid = true;
    11fe:	f89d 3038 	ldrb.w	r3, [sp, #56]	; 0x38
    1202:	f043 0301 	orr.w	r3, r3, #1
    1206:	f88d 3038 	strb.w	r3, [sp, #56]	; 0x38
    120a:	e7e2      	b.n	11d2 <cbvprintf+0x3b2>
		conv->specifier_cat = SPECIFIER_PTR;
    120c:	f89d 303a 	ldrb.w	r3, [sp, #58]	; 0x3a
    1210:	2203      	movs	r2, #3
    1212:	f362 0302 	bfi	r3, r2, #0, #3
    1216:	f88d 303a 	strb.w	r3, [sp, #58]	; 0x3a
		if (conv->length_mod == LENGTH_UPPER_L) {
    121a:	f89d 3039 	ldrb.w	r3, [sp, #57]	; 0x39
    121e:	f003 0378 	and.w	r3, r3, #120	; 0x78
    1222:	f1a3 0c40 	sub.w	ip, r3, #64	; 0x40
    1226:	f1dc 0300 	rsbs	r3, ip, #0
    122a:	eb43 030c 	adc.w	r3, r3, ip
    122e:	e7d9      	b.n	11e4 <cbvprintf+0x3c4>
		conv->specifier_cat = SPECIFIER_PTR;
    1230:	f89d 303a 	ldrb.w	r3, [sp, #58]	; 0x3a
    1234:	2203      	movs	r2, #3
    1236:	f362 0302 	bfi	r3, r2, #0, #3
    123a:	f88d 303a 	strb.w	r3, [sp, #58]	; 0x3a
		if (conv->length_mod != LENGTH_NONE) {
    123e:	f89d 3039 	ldrb.w	r3, [sp, #57]	; 0x39
    1242:	f013 0f78 	tst.w	r3, #120	; 0x78
    1246:	bf14      	ite	ne
    1248:	2301      	movne	r3, #1
    124a:	2300      	moveq	r3, #0
    124c:	e7ca      	b.n	11e4 <cbvprintf+0x3c4>
			unsupported = true;
    124e:	2301      	movs	r3, #1
    1250:	e7c8      	b.n	11e4 <cbvprintf+0x3c4>
		} else if (conv->width_present) {
    1252:	f99d 2038 	ldrsb.w	r2, [sp, #56]	; 0x38
    1256:	2a00      	cmp	r2, #0
			width = conv->width_value;
    1258:	bfb4      	ite	lt
    125a:	f8dd b03c 	ldrlt.w	fp, [sp, #60]	; 0x3c
		int width = -1;
    125e:	f04f 3bff 	movge.w	fp, #4294967295	; 0xffffffff
    1262:	e690      	b.n	f86 <cbvprintf+0x166>
		} else if (conv->prec_present) {
    1264:	0799      	lsls	r1, r3, #30
    1266:	f57f ae9d 	bpl.w	fa4 <cbvprintf+0x184>
			precision = conv->prec_value;
    126a:	f8dd 8040 	ldr.w	r8, [sp, #64]	; 0x40
		conv->pad0_value = 0;
    126e:	f89d 1039 	ldrb.w	r1, [sp, #57]	; 0x39
    1272:	2300      	movs	r3, #0
		conv->pad0_pre_exp = 0;
    1274:	e9cd 330f 	strd	r3, r3, [sp, #60]	; 0x3c
		    && (conv->specifier_cat == SPECIFIER_FP)
    1278:	f89d 303a 	ldrb.w	r3, [sp, #58]	; 0x3a
		if (IS_ENABLED(CONFIG_CBPRINTF_FP_SUPPORT)
    127c:	f003 0207 	and.w	r2, r3, #7
    1280:	2a04      	cmp	r2, #4
    1282:	d109      	bne.n	1298 <cbvprintf+0x478>
		    && !conv->prec_present) {
    1284:	078a      	lsls	r2, r1, #30
    1286:	d407      	bmi.n	1298 <cbvprintf+0x478>
			if (conv->specifier_a) {
    1288:	f99d 2039 	ldrsb.w	r2, [sp, #57]	; 0x39
				precision = 6;
    128c:	2a00      	cmp	r2, #0
    128e:	bfb4      	ite	lt
    1290:	f04f 080d 	movlt.w	r8, #13
    1294:	f04f 0806 	movge.w	r8, #6
		enum specifier_cat_enum specifier_cat
    1298:	f003 0307 	and.w	r3, r3, #7
		if (specifier_cat == SPECIFIER_SINT) {
    129c:	2b01      	cmp	r3, #1
			= (enum length_mod_enum)conv->length_mod;
    129e:	f3c1 01c3 	ubfx	r1, r1, #3, #4
		if (specifier_cat == SPECIFIER_SINT) {
    12a2:	d137      	bne.n	1314 <cbvprintf+0x4f4>
			switch (length_mod) {
    12a4:	1ecb      	subs	r3, r1, #3
    12a6:	2b04      	cmp	r3, #4
    12a8:	d821      	bhi.n	12ee <cbvprintf+0x4ce>
    12aa:	e8df f003 	tbb	[pc, r3]
    12ae:	0903      	.short	0x0903
    12b0:	2009      	.short	0x2009
    12b2:	20          	.byte	0x20
    12b3:	00          	.byte	0x00
					value->sint = va_arg(ap, long);
    12b4:	f854 3b04 	ldr.w	r3, [r4], #4
				value->sint = (short)value->sint;
    12b8:	17da      	asrs	r2, r3, #31
    12ba:	e9cd 320c 	strd	r3, r2, [sp, #48]	; 0x30
    12be:	e006      	b.n	12ce <cbvprintf+0x4ae>
					(sint_value_type)va_arg(ap, intmax_t);
    12c0:	3407      	adds	r4, #7
    12c2:	f024 0407 	bic.w	r4, r4, #7
				value->sint =
    12c6:	e8f4 2302 	ldrd	r2, r3, [r4], #8
    12ca:	e9cd 230c 	strd	r2, r3, [sp, #48]	; 0x30
		if (conv->invalid || conv->unsupported) {
    12ce:	f89d 7038 	ldrb.w	r7, [sp, #56]	; 0x38
    12d2:	07bb      	lsls	r3, r7, #30
    12d4:	d056      	beq.n	1384 <cbvprintf+0x564>
			OUTS(sp, fp);
    12d6:	9b02      	ldr	r3, [sp, #8]
    12d8:	462a      	mov	r2, r5
    12da:	4651      	mov	r1, sl
    12dc:	4648      	mov	r0, r9
    12de:	f004 fd22 	bl	5d26 <outs>
    12e2:	2800      	cmp	r0, #0
    12e4:	f2c0 8397 	blt.w	1a16 <cbvprintf+0xbf6>
    12e8:	4406      	add	r6, r0
			while (pad_len-- > 0) {
    12ea:	9d02      	ldr	r5, [sp, #8]
    12ec:	e5a0      	b.n	e30 <cbvprintf+0x10>
					(sint_value_type)va_arg(ap, ptrdiff_t);
    12ee:	f854 3b04 	ldr.w	r3, [r4], #4
			if (length_mod == LENGTH_HH) {
    12f2:	2901      	cmp	r1, #1
					(sint_value_type)va_arg(ap, ptrdiff_t);
    12f4:	ea4f 72e3 	mov.w	r2, r3, asr #31
    12f8:	e9cd 320c 	strd	r3, r2, [sp, #48]	; 0x30
			if (length_mod == LENGTH_HH) {
    12fc:	d105      	bne.n	130a <cbvprintf+0x4ea>
				value->uint = (unsigned char)value->uint;
    12fe:	f89d 3030 	ldrb.w	r3, [sp, #48]	; 0x30
				value->uint = (unsigned short)value->uint;
    1302:	930c      	str	r3, [sp, #48]	; 0x30
    1304:	2300      	movs	r3, #0
    1306:	930d      	str	r3, [sp, #52]	; 0x34
    1308:	e7e1      	b.n	12ce <cbvprintf+0x4ae>
			} else if (length_mod == LENGTH_H) {
    130a:	2902      	cmp	r1, #2
    130c:	d1df      	bne.n	12ce <cbvprintf+0x4ae>
				value->sint = (short)value->sint;
    130e:	f9bd 3030 	ldrsh.w	r3, [sp, #48]	; 0x30
    1312:	e7d1      	b.n	12b8 <cbvprintf+0x498>
		} else if (specifier_cat == SPECIFIER_UINT) {
    1314:	2b02      	cmp	r3, #2
    1316:	d123      	bne.n	1360 <cbvprintf+0x540>
			switch (length_mod) {
    1318:	1ecb      	subs	r3, r1, #3
    131a:	2b04      	cmp	r3, #4
    131c:	d813      	bhi.n	1346 <cbvprintf+0x526>
    131e:	e8df f003 	tbb	[pc, r3]
    1322:	0a03      	.short	0x0a03
    1324:	120a      	.short	0x120a
    1326:	12          	.byte	0x12
    1327:	00          	.byte	0x00
					value->uint = (wchar_t)va_arg(ap,
    1328:	6822      	ldr	r2, [r4, #0]
    132a:	920c      	str	r2, [sp, #48]	; 0x30
    132c:	2300      	movs	r3, #0
				value->sint = va_arg(ap, int);
    132e:	1d20      	adds	r0, r4, #4
					value->uint = (wchar_t)va_arg(ap,
    1330:	930d      	str	r3, [sp, #52]	; 0x34
					(uint_value_type)va_arg(ap, size_t);
    1332:	4604      	mov	r4, r0
    1334:	e7cb      	b.n	12ce <cbvprintf+0x4ae>
					(uint_value_type)va_arg(ap,
    1336:	1de0      	adds	r0, r4, #7
    1338:	f020 0007 	bic.w	r0, r0, #7
				value->uint =
    133c:	e8f0 2302 	ldrd	r2, r3, [r0], #8
    1340:	e9cd 230c 	strd	r2, r3, [sp, #48]	; 0x30
				break;
    1344:	e7f5      	b.n	1332 <cbvprintf+0x512>
					(uint_value_type)va_arg(ap, size_t);
    1346:	f854 3b04 	ldr.w	r3, [r4], #4
    134a:	930c      	str	r3, [sp, #48]	; 0x30
			if (length_mod == LENGTH_HH) {
    134c:	2901      	cmp	r1, #1
					(uint_value_type)va_arg(ap, size_t);
    134e:	f04f 0300 	mov.w	r3, #0
    1352:	930d      	str	r3, [sp, #52]	; 0x34
			if (length_mod == LENGTH_HH) {
    1354:	d0d3      	beq.n	12fe <cbvprintf+0x4de>
			} else if (length_mod == LENGTH_H) {
    1356:	2902      	cmp	r1, #2
    1358:	d1b9      	bne.n	12ce <cbvprintf+0x4ae>
				value->uint = (unsigned short)value->uint;
    135a:	f8bd 3030 	ldrh.w	r3, [sp, #48]	; 0x30
    135e:	e7d0      	b.n	1302 <cbvprintf+0x4e2>
		} else if (specifier_cat == SPECIFIER_FP) {
    1360:	2b04      	cmp	r3, #4
    1362:	d109      	bne.n	1378 <cbvprintf+0x558>
					(sint_value_type)va_arg(ap, long long);
    1364:	1de3      	adds	r3, r4, #7
    1366:	f023 0307 	bic.w	r3, r3, #7
    136a:	f103 0408 	add.w	r4, r3, #8
				value->ldbl = va_arg(ap, long double);
    136e:	e9d3 2300 	ldrd	r2, r3, [r3]
    1372:	e9cd 230c 	strd	r2, r3, [sp, #48]	; 0x30
    1376:	e7aa      	b.n	12ce <cbvprintf+0x4ae>
		} else if (specifier_cat == SPECIFIER_PTR) {
    1378:	2b03      	cmp	r3, #3
			value->ptr = va_arg(ap, void *);
    137a:	bf04      	itt	eq
    137c:	f854 3b04 	ldreq.w	r3, [r4], #4
    1380:	930c      	streq	r3, [sp, #48]	; 0x30
    1382:	e7a4      	b.n	12ce <cbvprintf+0x4ae>
		switch (conv->specifier) {
    1384:	f89d 203b 	ldrb.w	r2, [sp, #59]	; 0x3b
    1388:	2a78      	cmp	r2, #120	; 0x78
    138a:	d8ae      	bhi.n	12ea <cbvprintf+0x4ca>
    138c:	2a57      	cmp	r2, #87	; 0x57
    138e:	f200 808c 	bhi.w	14aa <cbvprintf+0x68a>
    1392:	2a25      	cmp	r2, #37	; 0x25
    1394:	f000 80d4 	beq.w	1540 <cbvprintf+0x720>
    1398:	2a24      	cmp	r2, #36	; 0x24
    139a:	d9a6      	bls.n	12ea <cbvprintf+0x4ca>
    139c:	2a41      	cmp	r2, #65	; 0x41
    139e:	d003      	beq.n	13a8 <cbvprintf+0x588>
    13a0:	f1a2 0345 	sub.w	r3, r2, #69	; 0x45
    13a4:	2b02      	cmp	r3, #2
    13a6:	d8a0      	bhi.n	12ea <cbvprintf+0x4ca>
	} u = {
    13a8:	e9dd 130c 	ldrd	r1, r3, [sp, #48]	; 0x30
	if ((u.u64 & SIGN_MASK) != 0U) {
    13ac:	2b00      	cmp	r3, #0
    13ae:	f2c0 81be 	blt.w	172e <cbvprintf+0x90e>
	} else if (conv->flag_plus) {
    13b2:	0738      	lsls	r0, r7, #28
    13b4:	f100 81bd 	bmi.w	1732 <cbvprintf+0x912>
		*sign = ' ';
    13b8:	f017 0710 	ands.w	r7, r7, #16
    13bc:	bf18      	it	ne
    13be:	2720      	movne	r7, #32
	int expo = (u.u64 >> FRACTION_BITS) & BIT_MASK(EXPONENT_BITS);
    13c0:	f3c3 550a 	ubfx	r5, r3, #20, #11
	uint64_t fract = u.u64 & BIT64_MASK(FRACTION_BITS);
    13c4:	f3c3 0313 	ubfx	r3, r3, #0, #20
    13c8:	e9cd 1308 	strd	r1, r3, [sp, #32]
	bool is_subnormal = (expo == 0) && (fract != 0);
    13cc:	2d00      	cmp	r5, #0
    13ce:	f040 81b2 	bne.w	1736 <cbvprintf+0x916>
    13d2:	ea51 0003 	orrs.w	r0, r1, r3
    13d6:	bf14      	ite	ne
    13d8:	2001      	movne	r0, #1
    13da:	2000      	moveq	r0, #0
	fract <<= EXPONENT_BITS;
    13dc:	02db      	lsls	r3, r3, #11
    13de:	ea43 5351 	orr.w	r3, r3, r1, lsr #21
    13e2:	02c9      	lsls	r1, r1, #11
		c = 'f';
    13e4:	2a46      	cmp	r2, #70	; 0x46
	if ((expo | fract) != 0) {
    13e6:	ea45 0e01 	orr.w	lr, r5, r1
    13ea:	ea43 7ce5 	orr.w	ip, r3, r5, asr #31
		c = 'f';
    13ee:	bf08      	it	eq
    13f0:	2266      	moveq	r2, #102	; 0x66
	if ((expo | fract) != 0) {
    13f2:	ea5e 0c0c 	orrs.w	ip, lr, ip
	fract &= ~SIGN_MASK;
    13f6:	e9cd 1308 	strd	r1, r3, [sp, #32]
	if ((expo | fract) != 0) {
    13fa:	f000 8206 	beq.w	180a <cbvprintf+0x9ea>
		if (is_subnormal) {
    13fe:	2800      	cmp	r0, #0
    1400:	f040 81ce 	bne.w	17a0 <cbvprintf+0x980>
		fract |= BIT_63;
    1404:	e9dd 0108 	ldrd	r0, r1, [sp, #32]
    1408:	f04f 0c00 	mov.w	ip, #0
    140c:	f041 4100 	orr.w	r1, r1, #2147483648	; 0x80000000
		expo -= (1023 - 1);	/* +1 since .1 vs 1. */
    1410:	f2a5 35fe 	subw	r5, r5, #1022	; 0x3fe
		fract |= BIT_63;
    1414:	9109      	str	r1, [sp, #36]	; 0x24
    1416:	4663      	mov	r3, ip
		fract *= 5U;
    1418:	f04f 0e05 	mov.w	lr, #5
	while (expo < -2) {
    141c:	f115 0f02 	cmn.w	r5, #2
    1420:	f2c0 81c5 	blt.w	17ae <cbvprintf+0x98e>
    1424:	f1bc 0f00 	cmp.w	ip, #0
    1428:	d001      	beq.n	142e <cbvprintf+0x60e>
    142a:	e9cd 0108 	strd	r0, r1, [sp, #32]
	while (expo > 0) {
    142e:	2d00      	cmp	r5, #0
		fract += 2;
    1430:	e9dd 1008 	ldrd	r1, r0, [sp, #32]
	while (expo > 0) {
    1434:	f300 81d0 	bgt.w	17d8 <cbvprintf+0x9b8>
	fract >>= (4 - expo);
    1438:	9809      	ldr	r0, [sp, #36]	; 0x24
    143a:	9908      	ldr	r1, [sp, #32]
    143c:	f1c5 0c04 	rsb	ip, r5, #4
    1440:	351c      	adds	r5, #28
    1442:	fa00 f505 	lsl.w	r5, r0, r5
    1446:	f1ac 0e20 	sub.w	lr, ip, #32
    144a:	fa21 f10c 	lsr.w	r1, r1, ip
    144e:	fa20 fe0e 	lsr.w	lr, r0, lr
    1452:	4329      	orrs	r1, r5
    1454:	ea41 010e 	orr.w	r1, r1, lr
    1458:	fa20 f00c 	lsr.w	r0, r0, ip
    145c:	e9cd 1008 	strd	r1, r0, [sp, #32]
	if ((c == 'g') || (c == 'G')) {
    1460:	f002 01df 	and.w	r1, r2, #223	; 0xdf
    1464:	2947      	cmp	r1, #71	; 0x47
    1466:	f040 81d7 	bne.w	1818 <cbvprintf+0x9f8>
		if (decexp < (-4 + 1) || decexp > precision) {
    146a:	1cdd      	adds	r5, r3, #3
    146c:	db02      	blt.n	1474 <cbvprintf+0x654>
    146e:	4598      	cmp	r8, r3
    1470:	f280 81ce 	bge.w	1810 <cbvprintf+0x9f0>
			c += 'e' - 'g';  /* e or E */
    1474:	3a02      	subs	r2, #2
			if (precision > 0) {
    1476:	f1b8 0f00 	cmp.w	r8, #0
			c += 'e' - 'g';  /* e or E */
    147a:	b2d2      	uxtb	r2, r2
			if (precision > 0) {
    147c:	dd01      	ble.n	1482 <cbvprintf+0x662>
				precision--;
    147e:	f108 38ff 	add.w	r8, r8, #4294967295	; 0xffffffff
		if (!conv->flag_hash && (precision > 0)) {
    1482:	f89d 1038 	ldrb.w	r1, [sp, #56]	; 0x38
    1486:	0688      	lsls	r0, r1, #26
    1488:	f100 81c6 	bmi.w	1818 <cbvprintf+0x9f8>
    148c:	f1b8 0f00 	cmp.w	r8, #0
    1490:	bfd4      	ite	le
    1492:	2100      	movle	r1, #0
    1494:	2101      	movgt	r1, #1
	if (c == 'f') {
    1496:	2a66      	cmp	r2, #102	; 0x66
	bool prune_zero = false;
    1498:	9103      	str	r1, [sp, #12]
	if (c == 'f') {
    149a:	f040 81bf 	bne.w	181c <cbvprintf+0x9fc>
		if (decimals < 0) {
    149e:	eb18 0503 	adds.w	r5, r8, r3
    14a2:	f140 81bd 	bpl.w	1820 <cbvprintf+0xa00>
			decimals = 0;
    14a6:	2500      	movs	r5, #0
    14a8:	e1bd      	b.n	1826 <cbvprintf+0xa06>
		switch (conv->specifier) {
    14aa:	f1a2 0358 	sub.w	r3, r2, #88	; 0x58
    14ae:	2b20      	cmp	r3, #32
    14b0:	f63f af1b 	bhi.w	12ea <cbvprintf+0x4ca>
    14b4:	a001      	add	r0, pc, #4	; (adr r0, 14bc <cbvprintf+0x69c>)
    14b6:	f850 f023 	ldr.w	pc, [r0, r3, lsl #2]
    14ba:	bf00      	nop
    14bc:	000016d1 	.word	0x000016d1
    14c0:	000012eb 	.word	0x000012eb
    14c4:	000012eb 	.word	0x000012eb
    14c8:	000012eb 	.word	0x000012eb
    14cc:	000012eb 	.word	0x000012eb
    14d0:	000012eb 	.word	0x000012eb
    14d4:	000012eb 	.word	0x000012eb
    14d8:	000012eb 	.word	0x000012eb
    14dc:	000012eb 	.word	0x000012eb
    14e0:	000013a9 	.word	0x000013a9
    14e4:	000012eb 	.word	0x000012eb
    14e8:	0000156d 	.word	0x0000156d
    14ec:	00001671 	.word	0x00001671
    14f0:	000013a9 	.word	0x000013a9
    14f4:	000013a9 	.word	0x000013a9
    14f8:	000013a9 	.word	0x000013a9
    14fc:	000012eb 	.word	0x000012eb
    1500:	00001671 	.word	0x00001671
    1504:	000012eb 	.word	0x000012eb
    1508:	000012eb 	.word	0x000012eb
    150c:	000012eb 	.word	0x000012eb
    1510:	000012eb 	.word	0x000012eb
    1514:	00001707 	.word	0x00001707
    1518:	000016d1 	.word	0x000016d1
    151c:	000016d5 	.word	0x000016d5
    1520:	000012eb 	.word	0x000012eb
    1524:	000012eb 	.word	0x000012eb
    1528:	00001547 	.word	0x00001547
    152c:	000012eb 	.word	0x000012eb
    1530:	000016d1 	.word	0x000016d1
    1534:	000012eb 	.word	0x000012eb
    1538:	000012eb 	.word	0x000012eb
    153c:	000016d1 	.word	0x000016d1
			OUTC('%');
    1540:	4651      	mov	r1, sl
    1542:	4610      	mov	r0, r2
    1544:	e47e      	b.n	e44 <cbvprintf+0x24>
			if (precision >= 0) {
    1546:	f1b8 0f00 	cmp.w	r8, #0
			bps = (const char *)value->ptr;
    154a:	9a0c      	ldr	r2, [sp, #48]	; 0x30
			if (precision >= 0) {
    154c:	db09      	blt.n	1562 <cbvprintf+0x742>
				len = strnlen(bps, precision);
    154e:	4641      	mov	r1, r8
    1550:	4610      	mov	r0, r2
    1552:	9203      	str	r2, [sp, #12]
    1554:	f004 fc76 	bl	5e44 <strnlen>
				len = strlen(bps);
    1558:	9a03      	ldr	r2, [sp, #12]
		char sign = 0;
    155a:	2700      	movs	r7, #0
			bpe = bps + len;
    155c:	1815      	adds	r5, r2, r0
		if (bps == NULL) {
    155e:	b962      	cbnz	r2, 157a <cbvprintf+0x75a>
    1560:	e6c3      	b.n	12ea <cbvprintf+0x4ca>
				len = strlen(bps);
    1562:	4610      	mov	r0, r2
    1564:	9203      	str	r2, [sp, #12]
    1566:	f004 fc66 	bl	5e36 <strlen>
    156a:	e7f5      	b.n	1558 <cbvprintf+0x738>
			buf[0] = CHAR_IS_SIGNED ? value->sint : value->uint;
    156c:	9b0c      	ldr	r3, [sp, #48]	; 0x30
    156e:	f88d 304c 	strb.w	r3, [sp, #76]	; 0x4c
		char sign = 0;
    1572:	2700      	movs	r7, #0
			bpe = buf + 1;
    1574:	f10d 054d 	add.w	r5, sp, #77	; 0x4d
				bps = encode_float(value->dbl, conv, precision,
    1578:	aa13      	add	r2, sp, #76	; 0x4c
		size_t nj_len = (bpe - bps);
    157a:	1aab      	subs	r3, r5, r2
		if (sign != 0) {
    157c:	b107      	cbz	r7, 1580 <cbvprintf+0x760>
			nj_len += 1U;
    157e:	3301      	adds	r3, #1
		if (conv->altform_0c) {
    1580:	f89d 003a 	ldrb.w	r0, [sp, #58]	; 0x3a
    1584:	06c1      	lsls	r1, r0, #27
    1586:	f140 823a 	bpl.w	19fe <cbvprintf+0xbde>
			nj_len += 2U;
    158a:	3302      	adds	r3, #2
		nj_len += conv->pad0_value;
    158c:	990f      	ldr	r1, [sp, #60]	; 0x3c
		if (conv->pad_fp) {
    158e:	0640      	lsls	r0, r0, #25
		nj_len += conv->pad0_value;
    1590:	440b      	add	r3, r1
			nj_len += conv->pad0_pre_exp;
    1592:	bf44      	itt	mi
    1594:	9910      	ldrmi	r1, [sp, #64]	; 0x40
    1596:	185b      	addmi	r3, r3, r1
		if (width > 0) {
    1598:	f1bb 0f00 	cmp.w	fp, #0
    159c:	dd23      	ble.n	15e6 <cbvprintf+0x7c6>
			width -= (int)nj_len;
    159e:	ebab 0b03 	sub.w	fp, fp, r3
			if (!conv->flag_dash) {
    15a2:	f89d 3038 	ldrb.w	r3, [sp, #56]	; 0x38
    15a6:	0759      	lsls	r1, r3, #29
    15a8:	f3c3 0880 	ubfx	r8, r3, #2, #1
    15ac:	d41b      	bmi.n	15e6 <cbvprintf+0x7c6>
				if (conv->flag_zero) {
    15ae:	0658      	lsls	r0, r3, #25
    15b0:	f140 8234 	bpl.w	1a1c <cbvprintf+0xbfc>
					if (sign != 0) {
    15b4:	2f00      	cmp	r7, #0
    15b6:	f000 8234 	beq.w	1a22 <cbvprintf+0xc02>
						OUTC(sign);
    15ba:	4651      	mov	r1, sl
    15bc:	4638      	mov	r0, r7
    15be:	9203      	str	r2, [sp, #12]
    15c0:	47c8      	blx	r9
    15c2:	2800      	cmp	r0, #0
    15c4:	f2c0 8227 	blt.w	1a16 <cbvprintf+0xbf6>
    15c8:	9a03      	ldr	r2, [sp, #12]
						sign = 0;
    15ca:	4647      	mov	r7, r8
						OUTC(sign);
    15cc:	3601      	adds	r6, #1
					pad = '0';
    15ce:	f04f 0830 	mov.w	r8, #48	; 0x30
    15d2:	445e      	add	r6, fp
    15d4:	465b      	mov	r3, fp
				while (width-- > 0) {
    15d6:	2b00      	cmp	r3, #0
    15d8:	eba6 000b 	sub.w	r0, r6, fp
    15dc:	f10b 3bff 	add.w	fp, fp, #4294967295	; 0xffffffff
    15e0:	f300 8211 	bgt.w	1a06 <cbvprintf+0xbe6>
    15e4:	4606      	mov	r6, r0
		if (sign != 0) {
    15e6:	b147      	cbz	r7, 15fa <cbvprintf+0x7da>
			OUTC(sign);
    15e8:	4651      	mov	r1, sl
    15ea:	4638      	mov	r0, r7
    15ec:	9203      	str	r2, [sp, #12]
    15ee:	47c8      	blx	r9
    15f0:	2800      	cmp	r0, #0
    15f2:	f2c0 8210 	blt.w	1a16 <cbvprintf+0xbf6>
    15f6:	9a03      	ldr	r2, [sp, #12]
    15f8:	3601      	adds	r6, #1
		if (IS_ENABLED(CONFIG_CBPRINTF_FP_SUPPORT) && conv->pad_fp) {
    15fa:	f89d 303a 	ldrb.w	r3, [sp, #58]	; 0x3a
    15fe:	0659      	lsls	r1, r3, #25
    1600:	f140 8265 	bpl.w	1ace <cbvprintf+0xcae>
			if (conv->specifier_a) {
    1604:	f99d 3039 	ldrsb.w	r3, [sp, #57]	; 0x39
    1608:	2b00      	cmp	r3, #0
    160a:	eba6 0302 	sub.w	r3, r6, r2
    160e:	9303      	str	r3, [sp, #12]
    1610:	f2c0 820a 	blt.w	1a28 <cbvprintf+0xc08>
    1614:	4617      	mov	r7, r2
				while (isdigit((int)*cp)) {
    1616:	7838      	ldrb	r0, [r7, #0]
    1618:	9b03      	ldr	r3, [sp, #12]
    161a:	f1a0 0230 	sub.w	r2, r0, #48	; 0x30
    161e:	2a09      	cmp	r2, #9
    1620:	46b8      	mov	r8, r7
    1622:	eb03 0607 	add.w	r6, r3, r7
    1626:	f107 0701 	add.w	r7, r7, #1
    162a:	f240 8229 	bls.w	1a80 <cbvprintf+0xc60>
				if (!conv->pad_postdp) {
    162e:	f89d 203a 	ldrb.w	r2, [sp, #58]	; 0x3a
				pad_len = conv->pad0_value;
    1632:	9f0f      	ldr	r7, [sp, #60]	; 0x3c
				if (!conv->pad_postdp) {
    1634:	0693      	lsls	r3, r2, #26
    1636:	d408      	bmi.n	164a <cbvprintf+0x82a>
    1638:	443e      	add	r6, r7
					while (pad_len-- > 0) {
    163a:	2f00      	cmp	r7, #0
    163c:	eba6 0307 	sub.w	r3, r6, r7
    1640:	f107 37ff 	add.w	r7, r7, #4294967295	; 0xffffffff
    1644:	f300 8222 	bgt.w	1a8c <cbvprintf+0xc6c>
    1648:	461e      	mov	r6, r3
				if (*cp == '.') {
    164a:	f898 0000 	ldrb.w	r0, [r8]
    164e:	282e      	cmp	r0, #46	; 0x2e
    1650:	d10b      	bne.n	166a <cbvprintf+0x84a>
					OUTC(*cp++);
    1652:	4651      	mov	r1, sl
    1654:	47c8      	blx	r9
						OUTC('0');
    1656:	2800      	cmp	r0, #0
    1658:	f2c0 81dd 	blt.w	1a16 <cbvprintf+0xbf6>
					while (pad_len-- > 0) {
    165c:	2f00      	cmp	r7, #0
						OUTC('0');
    165e:	f106 0601 	add.w	r6, r6, #1
					while (pad_len-- > 0) {
    1662:	f300 821a 	bgt.w	1a9a <cbvprintf+0xc7a>
					OUTC(*cp++);
    1666:	f108 0801 	add.w	r8, r8, #1
    166a:	eba6 0608 	sub.w	r6, r6, r8
    166e:	e21d      	b.n	1aac <cbvprintf+0xc8c>
			if (conv->flag_plus) {
    1670:	073d      	lsls	r5, r7, #28
    1672:	d42b      	bmi.n	16cc <cbvprintf+0x8ac>
				sign = ' ';
    1674:	f017 0710 	ands.w	r7, r7, #16
    1678:	bf18      	it	ne
    167a:	2720      	movne	r7, #32
			sint = value->sint;
    167c:	e9dd 230c 	ldrd	r2, r3, [sp, #48]	; 0x30
			if (sint < 0) {
    1680:	2b00      	cmp	r3, #0
    1682:	da05      	bge.n	1690 <cbvprintf+0x870>
				value->uint = (uint_value_type)-sint;
    1684:	4252      	negs	r2, r2
    1686:	eb63 0343 	sbc.w	r3, r3, r3, lsl #1
    168a:	e9cd 230c 	strd	r2, r3, [sp, #48]	; 0x30
				sign = '-';
    168e:	272d      	movs	r7, #45	; 0x2d
			bps = encode_uint(value->uint, conv, buf, bpe);
    1690:	f10d 0365 	add.w	r3, sp, #101	; 0x65
    1694:	9300      	str	r3, [sp, #0]
    1696:	aa0e      	add	r2, sp, #56	; 0x38
    1698:	e9dd 010c 	ldrd	r0, r1, [sp, #48]	; 0x30
    169c:	ab13      	add	r3, sp, #76	; 0x4c
    169e:	f004 fafc 	bl	5c9a <encode_uint>
    16a2:	4602      	mov	r2, r0
			if (precision >= 0) {
    16a4:	f1b8 0f00 	cmp.w	r8, #0
    16a8:	f10d 0565 	add.w	r5, sp, #101	; 0x65
    16ac:	f6ff af57 	blt.w	155e <cbvprintf+0x73e>
				conv->flag_zero = false;
    16b0:	f89d 1038 	ldrb.w	r1, [sp, #56]	; 0x38
				size_t len = bpe - bps;
    16b4:	1aab      	subs	r3, r5, r2
				conv->flag_zero = false;
    16b6:	f36f 1186 	bfc	r1, #6, #1
				if (len < (size_t)precision) {
    16ba:	4598      	cmp	r8, r3
				conv->flag_zero = false;
    16bc:	f88d 1038 	strb.w	r1, [sp, #56]	; 0x38
				if (len < (size_t)precision) {
    16c0:	f67f af4d 	bls.w	155e <cbvprintf+0x73e>
					conv->pad0_value = precision - (int)len;
    16c4:	eba8 0303 	sub.w	r3, r8, r3
    16c8:	930f      	str	r3, [sp, #60]	; 0x3c
    16ca:	e748      	b.n	155e <cbvprintf+0x73e>
				sign = '+';
    16cc:	272b      	movs	r7, #43	; 0x2b
    16ce:	e7d5      	b.n	167c <cbvprintf+0x85c>
		switch (conv->specifier) {
    16d0:	2700      	movs	r7, #0
    16d2:	e7dd      	b.n	1690 <cbvprintf+0x870>
			if (value->ptr != NULL) {
    16d4:	980c      	ldr	r0, [sp, #48]	; 0x30
    16d6:	2800      	cmp	r0, #0
    16d8:	f000 818d 	beq.w	19f6 <cbvprintf+0xbd6>
				bps = encode_uint((uintptr_t)value->ptr, conv,
    16dc:	f10d 0365 	add.w	r3, sp, #101	; 0x65
    16e0:	9300      	str	r3, [sp, #0]
    16e2:	aa0e      	add	r2, sp, #56	; 0x38
    16e4:	ab13      	add	r3, sp, #76	; 0x4c
    16e6:	2100      	movs	r1, #0
    16e8:	f004 fad7 	bl	5c9a <encode_uint>
				conv->altform_0c = true;
    16ec:	f8bd 303a 	ldrh.w	r3, [sp, #58]	; 0x3a
    16f0:	f003 03ef 	and.w	r3, r3, #239	; 0xef
    16f4:	f443 43f0 	orr.w	r3, r3, #30720	; 0x7800
    16f8:	f043 0310 	orr.w	r3, r3, #16
				bps = encode_uint((uintptr_t)value->ptr, conv,
    16fc:	4602      	mov	r2, r0
				conv->altform_0c = true;
    16fe:	f8ad 303a 	strh.w	r3, [sp, #58]	; 0x3a
		char sign = 0;
    1702:	2700      	movs	r7, #0
				goto prec_int_pad0;
    1704:	e7ce      	b.n	16a4 <cbvprintf+0x884>
				store_count(conv, value->ptr, count);
    1706:	9b0c      	ldr	r3, [sp, #48]	; 0x30
	switch ((enum length_mod_enum)conv->length_mod) {
    1708:	2907      	cmp	r1, #7
    170a:	f63f adee 	bhi.w	12ea <cbvprintf+0x4ca>
    170e:	e8df f001 	tbb	[pc, r1]
    1712:	040c      	.short	0x040c
    1714:	08080c06 	.word	0x08080c06
    1718:	0c0c      	.short	0x0c0c
		*(signed char *)dp = (signed char)count;
    171a:	701e      	strb	r6, [r3, #0]
		break;
    171c:	e5e5      	b.n	12ea <cbvprintf+0x4ca>
		*(short *)dp = (short)count;
    171e:	801e      	strh	r6, [r3, #0]
		break;
    1720:	e5e3      	b.n	12ea <cbvprintf+0x4ca>
		*(intmax_t *)dp = (intmax_t)count;
    1722:	17f2      	asrs	r2, r6, #31
    1724:	e9c3 6200 	strd	r6, r2, [r3]
		break;
    1728:	e5df      	b.n	12ea <cbvprintf+0x4ca>
		*(ptrdiff_t *)dp = (ptrdiff_t)count;
    172a:	601e      	str	r6, [r3, #0]
		break;
    172c:	e5dd      	b.n	12ea <cbvprintf+0x4ca>
		*sign = '-';
    172e:	272d      	movs	r7, #45	; 0x2d
    1730:	e646      	b.n	13c0 <cbvprintf+0x5a0>
		*sign = '+';
    1732:	272b      	movs	r7, #43	; 0x2b
    1734:	e644      	b.n	13c0 <cbvprintf+0x5a0>
	if (expo == BIT_MASK(EXPONENT_BITS)) {
    1736:	f240 70ff 	movw	r0, #2047	; 0x7ff
    173a:	4285      	cmp	r5, r0
    173c:	d12d      	bne.n	179a <cbvprintf+0x97a>
		if (fract == 0) {
    173e:	430b      	orrs	r3, r1
	return (int)(((unsigned)(a)-(unsigned)'A') < 26U);
    1740:	f1a2 0241 	sub.w	r2, r2, #65	; 0x41
    1744:	d11b      	bne.n	177e <cbvprintf+0x95e>
			if (isupper((int)c)) {
    1746:	2a19      	cmp	r2, #25
    1748:	d811      	bhi.n	176e <cbvprintf+0x94e>
				*buf++ = 'I';
    174a:	2349      	movs	r3, #73	; 0x49
    174c:	f88d 304c 	strb.w	r3, [sp, #76]	; 0x4c
				*buf++ = 'N';
    1750:	234e      	movs	r3, #78	; 0x4e
    1752:	f88d 304d 	strb.w	r3, [sp, #77]	; 0x4d
				*buf++ = 'F';
    1756:	2346      	movs	r3, #70	; 0x46
				*buf++ = 'n';
    1758:	f88d 304e 	strb.w	r3, [sp, #78]	; 0x4e
		conv->flag_zero = false;
    175c:	f89d 3038 	ldrb.w	r3, [sp, #56]	; 0x38
    1760:	f36f 1386 	bfc	r3, #6, #1
    1764:	f88d 3038 	strb.w	r3, [sp, #56]	; 0x38
		*bpe = buf;
    1768:	f10d 054f 	add.w	r5, sp, #79	; 0x4f
		return bps;
    176c:	e704      	b.n	1578 <cbvprintf+0x758>
				*buf++ = 'i';
    176e:	2369      	movs	r3, #105	; 0x69
    1770:	f88d 304c 	strb.w	r3, [sp, #76]	; 0x4c
				*buf++ = 'n';
    1774:	236e      	movs	r3, #110	; 0x6e
    1776:	f88d 304d 	strb.w	r3, [sp, #77]	; 0x4d
				*buf++ = 'f';
    177a:	2366      	movs	r3, #102	; 0x66
    177c:	e7ec      	b.n	1758 <cbvprintf+0x938>
			if (isupper((int)c)) {
    177e:	2a19      	cmp	r2, #25
				*buf++ = 'N';
    1780:	bf99      	ittee	ls
    1782:	234e      	movls	r3, #78	; 0x4e
				*buf++ = 'A';
    1784:	2241      	movls	r2, #65	; 0x41
				*buf++ = 'n';
    1786:	236e      	movhi	r3, #110	; 0x6e
				*buf++ = 'a';
    1788:	2261      	movhi	r2, #97	; 0x61
				*buf++ = 'N';
    178a:	bf94      	ite	ls
    178c:	f88d 304c 	strbls.w	r3, [sp, #76]	; 0x4c
				*buf++ = 'n';
    1790:	f88d 304c 	strbhi.w	r3, [sp, #76]	; 0x4c
				*buf++ = 'a';
    1794:	f88d 204d 	strb.w	r2, [sp, #77]	; 0x4d
    1798:	e7de      	b.n	1758 <cbvprintf+0x938>
	bool is_subnormal = (expo == 0) && (fract != 0);
    179a:	2000      	movs	r0, #0
    179c:	e61e      	b.n	13dc <cbvprintf+0x5bc>
				expo--;
    179e:	3d01      	subs	r5, #1
			while (((fract <<= 1) & BIT_63) == 0) {
    17a0:	1849      	adds	r1, r1, r1
    17a2:	415b      	adcs	r3, r3
    17a4:	2b00      	cmp	r3, #0
    17a6:	dafa      	bge.n	179e <cbvprintf+0x97e>
    17a8:	e9cd 1308 	strd	r1, r3, [sp, #32]
    17ac:	e62a      	b.n	1404 <cbvprintf+0x5e4>
			fract >>= 1;
    17ae:	0840      	lsrs	r0, r0, #1
    17b0:	ea40 70c1 	orr.w	r0, r0, r1, lsl #31
    17b4:	0849      	lsrs	r1, r1, #1
		} while ((uint32_t)(fract >> 32) >= (UINT32_MAX / 5U));
    17b6:	f1b1 3f33 	cmp.w	r1, #858993459	; 0x33333333
    17ba:	46ac      	mov	ip, r5
			expo++;
    17bc:	f105 0501 	add.w	r5, r5, #1
		} while ((uint32_t)(fract >> 32) >= (UINT32_MAX / 5U));
    17c0:	d2f5      	bcs.n	17ae <cbvprintf+0x98e>
		fract *= 5U;
    17c2:	fb0e f501 	mul.w	r5, lr, r1
    17c6:	fba0 010e 	umull	r0, r1, r0, lr
    17ca:	4429      	add	r1, r5
		decexp--;
    17cc:	3b01      	subs	r3, #1
		expo++;
    17ce:	f10c 0502 	add.w	r5, ip, #2
		decexp--;
    17d2:	f04f 0c01 	mov.w	ip, #1
    17d6:	e621      	b.n	141c <cbvprintf+0x5fc>
		fract += 2;
    17d8:	3102      	adds	r1, #2
    17da:	f140 0000 	adc.w	r0, r0, #0
    17de:	e9cd 1008 	strd	r1, r0, [sp, #32]
		_ldiv5(&fract);
    17e2:	a808      	add	r0, sp, #32
    17e4:	e9cd 2303 	strd	r2, r3, [sp, #12]
    17e8:	f004 fa28 	bl	5c3c <_ldiv5>
		decexp++;
    17ec:	9b04      	ldr	r3, [sp, #16]
    17ee:	9a03      	ldr	r2, [sp, #12]
    17f0:	e9dd 1008 	ldrd	r1, r0, [sp, #32]
		expo--;
    17f4:	3d01      	subs	r5, #1
		decexp++;
    17f6:	3301      	adds	r3, #1
			fract <<= 1;
    17f8:	1849      	adds	r1, r1, r1
    17fa:	4140      	adcs	r0, r0
		} while (!(fract & BIT_63));
    17fc:	2800      	cmp	r0, #0
			expo--;
    17fe:	f105 35ff 	add.w	r5, r5, #4294967295	; 0xffffffff
		} while (!(fract & BIT_63));
    1802:	daf9      	bge.n	17f8 <cbvprintf+0x9d8>
    1804:	e9cd 1008 	strd	r1, r0, [sp, #32]
    1808:	e611      	b.n	142e <cbvprintf+0x60e>
    180a:	2300      	movs	r3, #0
    180c:	461d      	mov	r5, r3
    180e:	e613      	b.n	1438 <cbvprintf+0x618>
			precision -= decexp;
    1810:	eba8 0803 	sub.w	r8, r8, r3
			c = 'f';
    1814:	2266      	movs	r2, #102	; 0x66
    1816:	e634      	b.n	1482 <cbvprintf+0x662>
	bool prune_zero = false;
    1818:	2100      	movs	r1, #0
    181a:	e63c      	b.n	1496 <cbvprintf+0x676>
		decimals = precision + 1;
    181c:	f108 0501 	add.w	r5, r8, #1
	if (decimals > 16) {
    1820:	2d10      	cmp	r5, #16
    1822:	bfa8      	it	ge
    1824:	2510      	movge	r5, #16
    1826:	2110      	movs	r1, #16
    1828:	9107      	str	r1, [sp, #28]
	uint64_t round = BIT64(59); /* 0.5 */
    182a:	2000      	movs	r0, #0
    182c:	f04f 6100 	mov.w	r1, #134217728	; 0x8000000
    1830:	e9cd 010a 	strd	r0, r1, [sp, #40]	; 0x28
	*v >>= 1;
    1834:	e9dd 100a 	ldrd	r1, r0, [sp, #40]	; 0x28
	while (decimals--) {
    1838:	b9a5      	cbnz	r5, 1864 <cbvprintf+0xa44>
	fract += round;
    183a:	9d08      	ldr	r5, [sp, #32]
    183c:	1949      	adds	r1, r1, r5
    183e:	9d09      	ldr	r5, [sp, #36]	; 0x24
    1840:	eb40 0505 	adc.w	r5, r0, r5
	if (fract >= BIT64(60)) {
    1844:	f1b5 5f80 	cmp.w	r5, #268435456	; 0x10000000
    1848:	d21b      	bcs.n	1882 <cbvprintf+0xa62>
	fract += round;
    184a:	e9cd 1508 	strd	r1, r5, [sp, #32]
	if (c == 'f') {
    184e:	2a66      	cmp	r2, #102	; 0x66
    1850:	f040 8099 	bne.w	1986 <cbvprintf+0xb66>
		if (decexp > 0) {
    1854:	2b00      	cmp	r3, #0
    1856:	dc23      	bgt.n	18a0 <cbvprintf+0xa80>
			*buf++ = '0';
    1858:	2130      	movs	r1, #48	; 0x30
    185a:	f88d 104c 	strb.w	r1, [sp, #76]	; 0x4c
    185e:	f10d 054d 	add.w	r5, sp, #77	; 0x4d
    1862:	e02f      	b.n	18c4 <cbvprintf+0xaa4>
	*v >>= 1;
    1864:	0849      	lsrs	r1, r1, #1
    1866:	ea41 71c0 	orr.w	r1, r1, r0, lsl #31
    186a:	0840      	lsrs	r0, r0, #1
    186c:	e9cd 100a 	strd	r1, r0, [sp, #40]	; 0x28
	_ldiv5(v);
    1870:	a80a      	add	r0, sp, #40	; 0x28
    1872:	e9cd 2304 	strd	r2, r3, [sp, #16]
    1876:	3d01      	subs	r5, #1
    1878:	f004 f9e0 	bl	5c3c <_ldiv5>
    187c:	e9dd 2304 	ldrd	r2, r3, [sp, #16]
}
    1880:	e7d8      	b.n	1834 <cbvprintf+0xa14>
	*v >>= 1;
    1882:	0849      	lsrs	r1, r1, #1
    1884:	ea41 71c5 	orr.w	r1, r1, r5, lsl #31
	_ldiv5(v);
    1888:	a808      	add	r0, sp, #32
	*v >>= 1;
    188a:	086d      	lsrs	r5, r5, #1
    188c:	e9cd 2304 	strd	r2, r3, [sp, #16]
    1890:	e9cd 1508 	strd	r1, r5, [sp, #32]
	_ldiv5(v);
    1894:	f004 f9d2 	bl	5c3c <_ldiv5>
		decexp++;
    1898:	9b05      	ldr	r3, [sp, #20]
    189a:	9a04      	ldr	r2, [sp, #16]
    189c:	3301      	adds	r3, #1
    189e:	e7d6      	b.n	184e <cbvprintf+0xa2e>
	char *buf = bps;
    18a0:	ad13      	add	r5, sp, #76	; 0x4c
			while (decexp > 0 && digit_count > 0) {
    18a2:	9907      	ldr	r1, [sp, #28]
    18a4:	2900      	cmp	r1, #0
    18a6:	dd0b      	ble.n	18c0 <cbvprintf+0xaa0>
				*buf++ = _get_digit(&fract, &digit_count);
    18a8:	a907      	add	r1, sp, #28
    18aa:	a808      	add	r0, sp, #32
    18ac:	e9cd 2304 	strd	r2, r3, [sp, #16]
    18b0:	f004 f9dc 	bl	5c6c <_get_digit>
			while (decexp > 0 && digit_count > 0) {
    18b4:	9b05      	ldr	r3, [sp, #20]
				*buf++ = _get_digit(&fract, &digit_count);
    18b6:	f805 0b01 	strb.w	r0, [r5], #1
			while (decexp > 0 && digit_count > 0) {
    18ba:	3b01      	subs	r3, #1
    18bc:	9a04      	ldr	r2, [sp, #16]
    18be:	d1f0      	bne.n	18a2 <cbvprintf+0xa82>
			conv->pad0_value = decexp;
    18c0:	930f      	str	r3, [sp, #60]	; 0x3c
			decexp = 0;
    18c2:	2300      	movs	r3, #0
		if (conv->flag_hash || (precision > 0)) {
    18c4:	f89d 1038 	ldrb.w	r1, [sp, #56]	; 0x38
    18c8:	0689      	lsls	r1, r1, #26
    18ca:	d402      	bmi.n	18d2 <cbvprintf+0xab2>
    18cc:	f1b8 0f00 	cmp.w	r8, #0
    18d0:	dd1d      	ble.n	190e <cbvprintf+0xaee>
			*buf++ = '.';
    18d2:	212e      	movs	r1, #46	; 0x2e
    18d4:	f805 1b01 	strb.w	r1, [r5], #1
		if (decexp < 0 && precision > 0) {
    18d8:	b19b      	cbz	r3, 1902 <cbvprintf+0xae2>
    18da:	f1b8 0f00 	cmp.w	r8, #0
    18de:	dd16      	ble.n	190e <cbvprintf+0xaee>
			conv->pad0_value = -decexp;
    18e0:	4259      	negs	r1, r3
    18e2:	4541      	cmp	r1, r8
    18e4:	bfa8      	it	ge
    18e6:	4641      	movge	r1, r8
			conv->pad_postdp = (conv->pad0_value > 0);
    18e8:	f89d 003a 	ldrb.w	r0, [sp, #58]	; 0x3a
			conv->pad0_value = -decexp;
    18ec:	910f      	str	r1, [sp, #60]	; 0x3c
			conv->pad_postdp = (conv->pad0_value > 0);
    18ee:	2900      	cmp	r1, #0
			precision -= conv->pad0_value;
    18f0:	eba8 0801 	sub.w	r8, r8, r1
			conv->pad_postdp = (conv->pad0_value > 0);
    18f4:	bfd4      	ite	le
    18f6:	2100      	movle	r1, #0
    18f8:	2101      	movgt	r1, #1
    18fa:	f361 1045 	bfi	r0, r1, #5, #1
    18fe:	f88d 003a 	strb.w	r0, [sp, #58]	; 0x3a
	while (precision > 0 && digit_count > 0) {
    1902:	f1b8 0f00 	cmp.w	r8, #0
    1906:	dd02      	ble.n	190e <cbvprintf+0xaee>
    1908:	9907      	ldr	r1, [sp, #28]
    190a:	2900      	cmp	r1, #0
    190c:	dc56      	bgt.n	19bc <cbvprintf+0xb9c>
	if (prune_zero) {
    190e:	9903      	ldr	r1, [sp, #12]
    1910:	2900      	cmp	r1, #0
    1912:	d163      	bne.n	19dc <cbvprintf+0xbbc>
	conv->pad0_pre_exp = precision;
    1914:	f8cd 8040 	str.w	r8, [sp, #64]	; 0x40
	if ((c == 'e') || (c == 'E')) {
    1918:	f002 01df 	and.w	r1, r2, #223	; 0xdf
    191c:	2945      	cmp	r1, #69	; 0x45
    191e:	d121      	bne.n	1964 <cbvprintf+0xb44>
		if (decexp < 0) {
    1920:	2b00      	cmp	r3, #0
		*buf++ = c;
    1922:	4629      	mov	r1, r5
			decexp = -decexp;
    1924:	bfb8      	it	lt
    1926:	425b      	neglt	r3, r3
		*buf++ = c;
    1928:	f801 2b02 	strb.w	r2, [r1], #2
			*buf++ = '-';
    192c:	bfb4      	ite	lt
    192e:	222d      	movlt	r2, #45	; 0x2d
			*buf++ = '+';
    1930:	222b      	movge	r2, #43	; 0x2b
		if (decexp >= 100) {
    1932:	2b63      	cmp	r3, #99	; 0x63
    1934:	706a      	strb	r2, [r5, #1]
    1936:	dd09      	ble.n	194c <cbvprintf+0xb2c>
			*buf++ = (decexp / 100) + '0';
    1938:	2064      	movs	r0, #100	; 0x64
    193a:	fbb3 f2f0 	udiv	r2, r3, r0
    193e:	f102 0c30 	add.w	ip, r2, #48	; 0x30
    1942:	1ce9      	adds	r1, r5, #3
    1944:	f885 c002 	strb.w	ip, [r5, #2]
			decexp %= 100;
    1948:	fb00 3312 	mls	r3, r0, r2, r3
		*buf++ = (decexp / 10) + '0';
    194c:	200a      	movs	r0, #10
    194e:	460d      	mov	r5, r1
    1950:	fbb3 f2f0 	udiv	r2, r3, r0
		*buf++ = (decexp % 10) + '0';
    1954:	fb00 3312 	mls	r3, r0, r2, r3
		*buf++ = (decexp / 10) + '0';
    1958:	f102 0c30 	add.w	ip, r2, #48	; 0x30
		*buf++ = (decexp % 10) + '0';
    195c:	3330      	adds	r3, #48	; 0x30
		*buf++ = (decexp / 10) + '0';
    195e:	f805 cb02 	strb.w	ip, [r5], #2
		*buf++ = (decexp % 10) + '0';
    1962:	704b      	strb	r3, [r1, #1]
		|| (conv->pad0_pre_exp > 0);
    1964:	9b0f      	ldr	r3, [sp, #60]	; 0x3c
    1966:	2b00      	cmp	r3, #0
    1968:	dc43      	bgt.n	19f2 <cbvprintf+0xbd2>
    196a:	9b10      	ldr	r3, [sp, #64]	; 0x40
    196c:	2b00      	cmp	r3, #0
    196e:	bfd4      	ite	le
    1970:	2300      	movle	r3, #0
    1972:	2301      	movgt	r3, #1
	conv->pad_fp = (conv->pad0_value > 0)
    1974:	f89d 203a 	ldrb.w	r2, [sp, #58]	; 0x3a
    1978:	f363 1286 	bfi	r2, r3, #6, #1
	*buf = 0;
    197c:	2300      	movs	r3, #0
	conv->pad_fp = (conv->pad0_value > 0)
    197e:	f88d 203a 	strb.w	r2, [sp, #58]	; 0x3a
	*buf = 0;
    1982:	702b      	strb	r3, [r5, #0]
	return bps;
    1984:	e5f8      	b.n	1578 <cbvprintf+0x758>
		*buf = _get_digit(&fract, &digit_count);
    1986:	a907      	add	r1, sp, #28
    1988:	a808      	add	r0, sp, #32
    198a:	e9cd 2304 	strd	r2, r3, [sp, #16]
    198e:	f004 f96d 	bl	5c6c <_get_digit>
		if (*buf++ != '0') {
    1992:	e9dd 2304 	ldrd	r2, r3, [sp, #16]
		if (conv->flag_hash || (precision > 0)) {
    1996:	f89d 1038 	ldrb.w	r1, [sp, #56]	; 0x38
		*buf = _get_digit(&fract, &digit_count);
    199a:	f88d 004c 	strb.w	r0, [sp, #76]	; 0x4c
		if (*buf++ != '0') {
    199e:	2830      	cmp	r0, #48	; 0x30
			decexp--;
    19a0:	bf18      	it	ne
    19a2:	f103 33ff 	addne.w	r3, r3, #4294967295	; 0xffffffff
		if (conv->flag_hash || (precision > 0)) {
    19a6:	0688      	lsls	r0, r1, #26
    19a8:	d402      	bmi.n	19b0 <cbvprintf+0xb90>
    19aa:	f1b8 0f00 	cmp.w	r8, #0
    19ae:	dd12      	ble.n	19d6 <cbvprintf+0xbb6>
			*buf++ = '.';
    19b0:	212e      	movs	r1, #46	; 0x2e
    19b2:	f88d 104d 	strb.w	r1, [sp, #77]	; 0x4d
    19b6:	f10d 054e 	add.w	r5, sp, #78	; 0x4e
    19ba:	e7a2      	b.n	1902 <cbvprintf+0xae2>
		*buf++ = _get_digit(&fract, &digit_count);
    19bc:	a907      	add	r1, sp, #28
    19be:	a808      	add	r0, sp, #32
    19c0:	e9cd 2304 	strd	r2, r3, [sp, #16]
    19c4:	f004 f952 	bl	5c6c <_get_digit>
		precision--;
    19c8:	f108 38ff 	add.w	r8, r8, #4294967295	; 0xffffffff
    19cc:	e9dd 2304 	ldrd	r2, r3, [sp, #16]
		*buf++ = _get_digit(&fract, &digit_count);
    19d0:	f805 0b01 	strb.w	r0, [r5], #1
		precision--;
    19d4:	e795      	b.n	1902 <cbvprintf+0xae2>
		if (*buf++ != '0') {
    19d6:	f10d 054d 	add.w	r5, sp, #77	; 0x4d
    19da:	e798      	b.n	190e <cbvprintf+0xaee>
		conv->pad0_pre_exp = 0;
    19dc:	2100      	movs	r1, #0
    19de:	9110      	str	r1, [sp, #64]	; 0x40
		while (*--buf == '0') {
    19e0:	4628      	mov	r0, r5
    19e2:	f815 1d01 	ldrb.w	r1, [r5, #-1]!
    19e6:	2930      	cmp	r1, #48	; 0x30
    19e8:	d0fa      	beq.n	19e0 <cbvprintf+0xbc0>
		if (*buf != '.') {
    19ea:	292e      	cmp	r1, #46	; 0x2e
    19ec:	bf18      	it	ne
    19ee:	4605      	movne	r5, r0
    19f0:	e792      	b.n	1918 <cbvprintf+0xaf8>
		|| (conv->pad0_pre_exp > 0);
    19f2:	2301      	movs	r3, #1
    19f4:	e7be      	b.n	1974 <cbvprintf+0xb54>
			bpe = bps + 5;
    19f6:	4d4b      	ldr	r5, [pc, #300]	; (1b24 <cbvprintf+0xd04>)
		char sign = 0;
    19f8:	4607      	mov	r7, r0
			bps = "(nil)";
    19fa:	1f6a      	subs	r2, r5, #5
    19fc:	e5bd      	b.n	157a <cbvprintf+0x75a>
		} else if (conv->altform_0) {
    19fe:	0701      	lsls	r1, r0, #28
			nj_len += 1U;
    1a00:	bf48      	it	mi
    1a02:	3301      	addmi	r3, #1
    1a04:	e5c2      	b.n	158c <cbvprintf+0x76c>
					OUTC(pad);
    1a06:	4651      	mov	r1, sl
    1a08:	4640      	mov	r0, r8
    1a0a:	9203      	str	r2, [sp, #12]
    1a0c:	47c8      	blx	r9
    1a0e:	2800      	cmp	r0, #0
    1a10:	9a03      	ldr	r2, [sp, #12]
    1a12:	f6bf addf 	bge.w	15d4 <cbvprintf+0x7b4>
#undef OUTS
#undef OUTC
}
    1a16:	b01b      	add	sp, #108	; 0x6c
    1a18:	e8bd 8ff0 	ldmia.w	sp!, {r4, r5, r6, r7, r8, r9, sl, fp, pc}
				char pad = ' ';
    1a1c:	f04f 0820 	mov.w	r8, #32
    1a20:	e5d7      	b.n	15d2 <cbvprintf+0x7b2>
					pad = '0';
    1a22:	f04f 0830 	mov.w	r8, #48	; 0x30
    1a26:	e5d4      	b.n	15d2 <cbvprintf+0x7b2>
			if (conv->specifier_a) {
    1a28:	4690      	mov	r8, r2
    1a2a:	9b03      	ldr	r3, [sp, #12]
    1a2c:	4647      	mov	r7, r8
    1a2e:	4443      	add	r3, r8
				while (*cp != 'p') {
    1a30:	f818 0b01 	ldrb.w	r0, [r8], #1
    1a34:	2870      	cmp	r0, #112	; 0x70
    1a36:	d11e      	bne.n	1a76 <cbvprintf+0xc56>
			while (pad_len-- > 0) {
    1a38:	461e      	mov	r6, r3
    1a3a:	9b10      	ldr	r3, [sp, #64]	; 0x40
    1a3c:	eb03 0806 	add.w	r8, r3, r6
    1a40:	eba8 0306 	sub.w	r3, r8, r6
    1a44:	2b00      	cmp	r3, #0
    1a46:	dc3b      	bgt.n	1ac0 <cbvprintf+0xca0>
			OUTS(cp, bpe);
    1a48:	462b      	mov	r3, r5
    1a4a:	463a      	mov	r2, r7
			OUTS(bps, bpe);
    1a4c:	4651      	mov	r1, sl
    1a4e:	4648      	mov	r0, r9
    1a50:	f004 f969 	bl	5d26 <outs>
    1a54:	2800      	cmp	r0, #0
    1a56:	dbde      	blt.n	1a16 <cbvprintf+0xbf6>
    1a58:	4430      	add	r0, r6
			while (pad_len-- > 0) {
    1a5a:	4606      	mov	r6, r0
    1a5c:	4483      	add	fp, r0
		while (width > 0) {
    1a5e:	ebab 0306 	sub.w	r3, fp, r6
    1a62:	2b00      	cmp	r3, #0
    1a64:	f77f ac41 	ble.w	12ea <cbvprintf+0x4ca>
			OUTC(' ');
    1a68:	4651      	mov	r1, sl
    1a6a:	2020      	movs	r0, #32
    1a6c:	47c8      	blx	r9
    1a6e:	2800      	cmp	r0, #0
    1a70:	dbd1      	blt.n	1a16 <cbvprintf+0xbf6>
    1a72:	3601      	adds	r6, #1
			--width;
    1a74:	e7f3      	b.n	1a5e <cbvprintf+0xc3e>
					OUTC(*cp++);
    1a76:	4651      	mov	r1, sl
    1a78:	47c8      	blx	r9
    1a7a:	2800      	cmp	r0, #0
    1a7c:	dad5      	bge.n	1a2a <cbvprintf+0xc0a>
    1a7e:	e7ca      	b.n	1a16 <cbvprintf+0xbf6>
					OUTC(*cp++);
    1a80:	4651      	mov	r1, sl
    1a82:	47c8      	blx	r9
    1a84:	2800      	cmp	r0, #0
    1a86:	f6bf adc6 	bge.w	1616 <cbvprintf+0x7f6>
    1a8a:	e7c4      	b.n	1a16 <cbvprintf+0xbf6>
						OUTC('0');
    1a8c:	4651      	mov	r1, sl
    1a8e:	2030      	movs	r0, #48	; 0x30
    1a90:	47c8      	blx	r9
    1a92:	2800      	cmp	r0, #0
    1a94:	f6bf add1 	bge.w	163a <cbvprintf+0x81a>
    1a98:	e7bd      	b.n	1a16 <cbvprintf+0xbf6>
						OUTC('0');
    1a9a:	4651      	mov	r1, sl
    1a9c:	2030      	movs	r0, #48	; 0x30
    1a9e:	47c8      	blx	r9
    1aa0:	3f01      	subs	r7, #1
    1aa2:	e5d8      	b.n	1656 <cbvprintf+0x836>
					OUTC(*cp++);
    1aa4:	4651      	mov	r1, sl
    1aa6:	47c8      	blx	r9
    1aa8:	2800      	cmp	r0, #0
    1aaa:	dbb4      	blt.n	1a16 <cbvprintf+0xbf6>
    1aac:	4647      	mov	r7, r8
    1aae:	eb06 0308 	add.w	r3, r6, r8
				while (isdigit((int)*cp)) {
    1ab2:	f818 0b01 	ldrb.w	r0, [r8], #1
	return (int)(((unsigned)(a)-(unsigned)'0') < 10U);
    1ab6:	f1a0 0230 	sub.w	r2, r0, #48	; 0x30
    1aba:	2a09      	cmp	r2, #9
    1abc:	d9f2      	bls.n	1aa4 <cbvprintf+0xc84>
    1abe:	e7bb      	b.n	1a38 <cbvprintf+0xc18>
				OUTC('0');
    1ac0:	4651      	mov	r1, sl
    1ac2:	2030      	movs	r0, #48	; 0x30
    1ac4:	47c8      	blx	r9
    1ac6:	2800      	cmp	r0, #0
    1ac8:	dba5      	blt.n	1a16 <cbvprintf+0xbf6>
    1aca:	3601      	adds	r6, #1
    1acc:	e7b8      	b.n	1a40 <cbvprintf+0xc20>
			if (conv->altform_0c | conv->altform_0) {
    1ace:	06d8      	lsls	r0, r3, #27
    1ad0:	d401      	bmi.n	1ad6 <cbvprintf+0xcb6>
    1ad2:	0719      	lsls	r1, r3, #28
    1ad4:	d507      	bpl.n	1ae6 <cbvprintf+0xcc6>
				OUTC('0');
    1ad6:	4651      	mov	r1, sl
    1ad8:	2030      	movs	r0, #48	; 0x30
    1ada:	9203      	str	r2, [sp, #12]
    1adc:	47c8      	blx	r9
    1ade:	2800      	cmp	r0, #0
    1ae0:	db99      	blt.n	1a16 <cbvprintf+0xbf6>
    1ae2:	9a03      	ldr	r2, [sp, #12]
    1ae4:	3601      	adds	r6, #1
			if (conv->altform_0c) {
    1ae6:	f89d 303a 	ldrb.w	r3, [sp, #58]	; 0x3a
    1aea:	06db      	lsls	r3, r3, #27
    1aec:	d508      	bpl.n	1b00 <cbvprintf+0xce0>
				OUTC(conv->specifier);
    1aee:	f89d 003b 	ldrb.w	r0, [sp, #59]	; 0x3b
    1af2:	9203      	str	r2, [sp, #12]
    1af4:	4651      	mov	r1, sl
    1af6:	47c8      	blx	r9
    1af8:	2800      	cmp	r0, #0
    1afa:	db8c      	blt.n	1a16 <cbvprintf+0xbf6>
    1afc:	9a03      	ldr	r2, [sp, #12]
    1afe:	3601      	adds	r6, #1
			while (pad_len-- > 0) {
    1b00:	9f0f      	ldr	r7, [sp, #60]	; 0x3c
    1b02:	4437      	add	r7, r6
    1b04:	1bbb      	subs	r3, r7, r6
    1b06:	2b00      	cmp	r3, #0
    1b08:	dc01      	bgt.n	1b0e <cbvprintf+0xcee>
			OUTS(bps, bpe);
    1b0a:	462b      	mov	r3, r5
    1b0c:	e79e      	b.n	1a4c <cbvprintf+0xc2c>
				OUTC('0');
    1b0e:	4651      	mov	r1, sl
    1b10:	2030      	movs	r0, #48	; 0x30
    1b12:	9203      	str	r2, [sp, #12]
    1b14:	47c8      	blx	r9
    1b16:	2800      	cmp	r0, #0
    1b18:	f6ff af7d 	blt.w	1a16 <cbvprintf+0xbf6>
    1b1c:	9a03      	ldr	r2, [sp, #12]
    1b1e:	3601      	adds	r6, #1
    1b20:	e7f0      	b.n	1b04 <cbvprintf+0xce4>
    1b22:	bf00      	nop
    1b24:	000073ac 	.word	0x000073ac

00001b28 <pm_state_notify>:
/*
 * Function called to notify when the system is entering / exiting a
 * power state
 */
static inline void pm_state_notify(bool entering_state)
{
    1b28:	e92d 43f8 	stmdb	sp!, {r3, r4, r5, r6, r7, r8, r9, lr}
    1b2c:	4605      	mov	r5, r0
    1b2e:	f04f 0320 	mov.w	r3, #32
    1b32:	f3ef 8611 	mrs	r6, BASEPRI
    1b36:	f383 8812 	msr	BASEPRI_MAX, r3
    1b3a:	f3bf 8f6f 	isb	sy
	return list->head;
    1b3e:	4b0e      	ldr	r3, [pc, #56]	; (1b78 <pm_state_notify+0x50>)
    1b40:	681c      	ldr	r4, [r3, #0]
	struct pm_notifier *notifier;
	k_spinlock_key_t pm_notifier_key;
	void (*callback)(enum pm_state state);

	pm_notifier_key = k_spin_lock(&pm_notifier_lock);
	SYS_SLIST_FOR_EACH_CONTAINER(&pm_notifiers, notifier, _node) {
    1b42:	b19c      	cbz	r4, 1b6c <pm_state_notify+0x44>
		} else {
			callback = notifier->state_exit;
		}

		if (callback) {
			callback(z_cpus_pm_state[_current_cpu->id].state);
    1b44:	4f0d      	ldr	r7, [pc, #52]	; (1b7c <pm_state_notify+0x54>)
    1b46:	f8df 8038 	ldr.w	r8, [pc, #56]	; 1b80 <pm_state_notify+0x58>
    1b4a:	f04f 090c 	mov.w	r9, #12
			callback = notifier->state_exit;
    1b4e:	e9d4 3201 	ldrd	r3, r2, [r4, #4]
    1b52:	2d00      	cmp	r5, #0
    1b54:	bf08      	it	eq
    1b56:	4613      	moveq	r3, r2
		if (callback) {
    1b58:	b12b      	cbz	r3, 1b66 <pm_state_notify+0x3e>
			callback(z_cpus_pm_state[_current_cpu->id].state);
    1b5a:	f898 2014 	ldrb.w	r2, [r8, #20]
    1b5e:	fb09 f202 	mul.w	r2, r9, r2
    1b62:	5cb8      	ldrb	r0, [r7, r2]
    1b64:	4798      	blx	r3
	return node->next;
    1b66:	6824      	ldr	r4, [r4, #0]
	SYS_SLIST_FOR_EACH_CONTAINER(&pm_notifiers, notifier, _node) {
    1b68:	2c00      	cmp	r4, #0
    1b6a:	d1f0      	bne.n	1b4e <pm_state_notify+0x26>
	__asm__ volatile(
    1b6c:	f386 8811 	msr	BASEPRI, r6
    1b70:	f3bf 8f6f 	isb	sy
		}
	}
	k_spin_unlock(&pm_notifier_lock, pm_notifier_key);
}
    1b74:	e8bd 83f8 	ldmia.w	sp!, {r3, r4, r5, r6, r7, r8, r9, pc}
    1b78:	20000418 	.word	0x20000418
    1b7c:	20000420 	.word	0x20000420
    1b80:	200005fc 	.word	0x200005fc

00001b84 <atomic_test_and_set_bit.constprop.0>:
 *
 * @return true if the bit was set, false if it wasn't.
 */
static inline bool atomic_test_and_set_bit(atomic_t *target, int bit)
{
	atomic_val_t mask = ATOMIC_MASK(bit);
    1b84:	f000 031f 	and.w	r3, r0, #31
    1b88:	2201      	movs	r2, #1
    1b8a:	409a      	lsls	r2, r3
 *
 * @return Previous value of @a target.
 */
static inline atomic_val_t atomic_or(atomic_t *target, atomic_val_t value)
{
	return __atomic_fetch_or(target, value, __ATOMIC_SEQ_CST);
    1b8c:	4b0a      	ldr	r3, [pc, #40]	; (1bb8 <atomic_test_and_set_bit.constprop.0+0x34>)
    1b8e:	f3bf 8f5b 	dmb	ish
	atomic_val_t old;

	old = atomic_or(ATOMIC_ELEM(target, bit), mask);
    1b92:	0940      	lsrs	r0, r0, #5
    1b94:	eb03 0080 	add.w	r0, r3, r0, lsl #2
    1b98:	e850 3f00 	ldrex	r3, [r0]
    1b9c:	ea43 0102 	orr.w	r1, r3, r2
    1ba0:	e840 1c00 	strex	ip, r1, [r0]
    1ba4:	f1bc 0f00 	cmp.w	ip, #0
    1ba8:	d1f6      	bne.n	1b98 <atomic_test_and_set_bit.constprop.0+0x14>
    1baa:	f3bf 8f5b 	dmb	ish

	return (old & mask) != 0;
    1bae:	421a      	tst	r2, r3
}
    1bb0:	bf14      	ite	ne
    1bb2:	2001      	movne	r0, #1
    1bb4:	2000      	moveq	r0, #0
    1bb6:	4770      	bx	lr
    1bb8:	2000042c 	.word	0x2000042c

00001bbc <pm_system_resume>:

void pm_system_resume(void)
{
    1bbc:	b530      	push	{r4, r5, lr}
	uint8_t id = _current_cpu->id;
    1bbe:	4b1d      	ldr	r3, [pc, #116]	; (1c34 <pm_system_resume+0x78>)
    1bc0:	7d1c      	ldrb	r4, [r3, #20]
 *
 * @return Previous value of @a target.
 */
static inline atomic_val_t atomic_and(atomic_t *target, atomic_val_t value)
{
	return __atomic_fetch_and(target, value, __ATOMIC_SEQ_CST);
    1bc2:	f3bf 8f5b 	dmb	ish
	atomic_val_t mask = ATOMIC_MASK(bit);
    1bc6:	f004 031f 	and.w	r3, r4, #31
    1bca:	2201      	movs	r2, #1
    1bcc:	409a      	lsls	r2, r3
    1bce:	4b1a      	ldr	r3, [pc, #104]	; (1c38 <pm_system_resume+0x7c>)
	old = atomic_and(ATOMIC_ELEM(target, bit), ~mask);
    1bd0:	0961      	lsrs	r1, r4, #5
{
    1bd2:	b085      	sub	sp, #20
    1bd4:	43d0      	mvns	r0, r2
    1bd6:	eb03 0381 	add.w	r3, r3, r1, lsl #2
    1bda:	e853 1f00 	ldrex	r1, [r3]
    1bde:	ea01 0500 	and.w	r5, r1, r0
    1be2:	e843 5c00 	strex	ip, r5, [r3]
    1be6:	f1bc 0f00 	cmp.w	ip, #0
    1bea:	d1f6      	bne.n	1bda <pm_system_resume+0x1e>
    1bec:	f3bf 8f5b 	dmb	ish
	 * that caused the wake. This hook will be called from the ISR.
	 * For such CPU LPS states, do post operations and restores here.
	 * The kernel scheduler will get control after the ISR finishes
	 * and it may schedule another thread.
	 */
	if (atomic_test_and_clear_bit(z_post_ops_required, id)) {
    1bf0:	4211      	tst	r1, r2
    1bf2:	d017      	beq.n	1c24 <pm_system_resume+0x68>
		exit_pos_ops(z_cpus_pm_state[id]);
    1bf4:	4d11      	ldr	r5, [pc, #68]	; (1c3c <pm_system_resume+0x80>)
    1bf6:	220c      	movs	r2, #12
    1bf8:	fb02 5204 	mla	r2, r2, r4, r5
    1bfc:	ca07      	ldmia	r2, {r0, r1, r2}
    1bfe:	ab01      	add	r3, sp, #4
    1c00:	e883 0007 	stmia.w	r3, {r0, r1, r2}
	if (pm_power_state_exit_post_ops != NULL) {
    1c04:	4a0e      	ldr	r2, [pc, #56]	; (1c40 <pm_system_resume+0x84>)
    1c06:	b17a      	cbz	r2, 1c28 <pm_system_resume+0x6c>
		pm_power_state_exit_post_ops(info);
    1c08:	e893 0007 	ldmia.w	r3, {r0, r1, r2}
    1c0c:	f004 f959 	bl	5ec2 <pm_power_state_exit_post_ops>
		pm_state_notify(false);
    1c10:	2000      	movs	r0, #0
    1c12:	f7ff ff89 	bl	1b28 <pm_state_notify>
		z_cpus_pm_state[id] = (struct pm_state_info){PM_STATE_ACTIVE,
    1c16:	230c      	movs	r3, #12
    1c18:	435c      	muls	r4, r3
    1c1a:	192a      	adds	r2, r5, r4
    1c1c:	2300      	movs	r3, #0
    1c1e:	512b      	str	r3, [r5, r4]
    1c20:	e9c2 3301 	strd	r3, r3, [r2, #4]
			0, 0};
	}
}
    1c24:	b005      	add	sp, #20
    1c26:	bd30      	pop	{r4, r5, pc}
    1c28:	f382 8811 	msr	BASEPRI, r2
    1c2c:	f3bf 8f6f 	isb	sy
		"cpsie i;"
		: : : "memory", "cc");
#else
#error Unknown ARM architecture
#endif /* CONFIG_ARMV6_M_ARMV8_M_BASELINE */
}
    1c30:	e7ee      	b.n	1c10 <pm_system_resume+0x54>
    1c32:	bf00      	nop
    1c34:	200005fc 	.word	0x200005fc
    1c38:	20000430 	.word	0x20000430
    1c3c:	20000420 	.word	0x20000420
    1c40:	00005ec3 	.word	0x00005ec3

00001c44 <pm_system_suspend>:

	return ret;
}

bool pm_system_suspend(int32_t ticks)
{
    1c44:	e92d 41ff 	stmdb	sp!, {r0, r1, r2, r3, r4, r5, r6, r7, r8, lr}
	bool ret = true;
	uint8_t id = _current_cpu->id;
    1c48:	4b35      	ldr	r3, [pc, #212]	; (1d20 <pm_system_suspend+0xdc>)
    1c4a:	4c36      	ldr	r4, [pc, #216]	; (1d24 <pm_system_suspend+0xe0>)
    1c4c:	7d1d      	ldrb	r5, [r3, #20]
{
    1c4e:	4680      	mov	r8, r0

	SYS_PORT_TRACING_FUNC_ENTER(pm, system_suspend, ticks);

	if (!atomic_test_and_set_bit(z_cpus_pm_state_forced, id)) {
    1c50:	4628      	mov	r0, r5
    1c52:	f7ff ff97 	bl	1b84 <atomic_test_and_set_bit.constprop.0>
    1c56:	b950      	cbnz	r0, 1c6e <pm_system_suspend+0x2a>
		const struct pm_state_info *info;

		info = pm_policy_next_state(id, ticks);
    1c58:	4641      	mov	r1, r8
    1c5a:	4628      	mov	r0, r5
    1c5c:	f000 f884 	bl	1d68 <pm_policy_next_state>
		if (info != NULL) {
    1c60:	b128      	cbz	r0, 1c6e <pm_system_suspend+0x2a>
			z_cpus_pm_state[id] = *info;
    1c62:	c807      	ldmia	r0, {r0, r1, r2}
    1c64:	230c      	movs	r3, #12
    1c66:	fb03 4305 	mla	r3, r3, r5, r4
    1c6a:	e883 0007 	stmia.w	r3, {r0, r1, r2}
		}
	}

	if (z_cpus_pm_state[id].state == PM_STATE_ACTIVE) {
    1c6e:	230c      	movs	r3, #12
    1c70:	436b      	muls	r3, r5
    1c72:	18e2      	adds	r2, r4, r3
    1c74:	5ce0      	ldrb	r0, [r4, r3]
    1c76:	096e      	lsrs	r6, r5, #5
    1c78:	f005 071f 	and.w	r7, r5, #31
    1c7c:	2800      	cmp	r0, #0
    1c7e:	d03b      	beq.n	1cf8 <pm_system_suspend+0xb4>
				   z_cpus_pm_state[id].state);
		ret = false;
		goto end;
	}

	if (ticks != K_TICKS_FOREVER) {
    1c80:	f1b8 3fff 	cmp.w	r8, #4294967295	; 0xffffffff
    1c84:	d010      	beq.n	1ca8 <pm_system_suspend+0x64>
		} else {
			return t * ((uint64_t)to_hz / from_hz);
		}
	} else {
		if (result32) {
			return (uint32_t)((t * to_hz + off) / from_hz);
    1c86:	f8d2 e008 	ldr.w	lr, [r2, #8]
    1c8a:	4827      	ldr	r0, [pc, #156]	; (1d28 <pm_system_suspend+0xe4>)
    1c8c:	4a27      	ldr	r2, [pc, #156]	; (1d2c <pm_system_suspend+0xe8>)
    1c8e:	f44f 4c00 	mov.w	ip, #32768	; 0x8000
    1c92:	2100      	movs	r1, #0
    1c94:	2300      	movs	r3, #0
    1c96:	fbee 010c 	umlal	r0, r1, lr, ip
    1c9a:	f7fe fdef 	bl	87c <__aeabi_uldivmod>
		/*
		 * We need to set the timer to interrupt a little bit early to
		 * accommodate the time required by the CPU to fully wake up.
		 */
		z_set_timeout_expiry(ticks -
    1c9e:	2101      	movs	r1, #1
    1ca0:	eba8 0000 	sub.w	r0, r8, r0
    1ca4:	f004 ffdd 	bl	6c62 <z_set_timeout_expiry>
	 * state. We don't want to be scheduled out yet, first we need
	 * to send a notification about leaving the idle state. So,
	 * we lock the scheduler here and unlock just after we have
	 * sent the notification in pm_system_resume().
	 */
	k_sched_lock();
    1ca8:	f003 fa60 	bl	516c <k_sched_lock>
	pm_stats_start();
	/* Enter power state */
	pm_state_notify(true);
    1cac:	2001      	movs	r0, #1
    1cae:	f7ff ff3b 	bl	1b28 <pm_state_notify>
	return __atomic_fetch_or(target, value, __ATOMIC_SEQ_CST);
    1cb2:	f3bf 8f5b 	dmb	ish
    1cb6:	4b1e      	ldr	r3, [pc, #120]	; (1d30 <pm_system_suspend+0xec>)
 * @param target Address of atomic variable or array.
 * @param bit Bit number (starting from 0).
 */
static inline void atomic_set_bit(atomic_t *target, int bit)
{
	atomic_val_t mask = ATOMIC_MASK(bit);
    1cb8:	2201      	movs	r2, #1
    1cba:	40ba      	lsls	r2, r7
    1cbc:	eb03 0386 	add.w	r3, r3, r6, lsl #2
    1cc0:	e853 1f00 	ldrex	r1, [r3]
    1cc4:	4311      	orrs	r1, r2
    1cc6:	e843 1000 	strex	r0, r1, [r3]
    1cca:	2800      	cmp	r0, #0
    1ccc:	d1f8      	bne.n	1cc0 <pm_system_suspend+0x7c>
    1cce:	f3bf 8f5b 	dmb	ish
	atomic_set_bit(z_post_ops_required, id);
	pm_state_set(z_cpus_pm_state[id]);
    1cd2:	230c      	movs	r3, #12
    1cd4:	fb03 4405 	mla	r4, r3, r5, r4
    1cd8:	e894 0007 	ldmia.w	r4, {r0, r1, r2}
    1cdc:	ab01      	add	r3, sp, #4
    1cde:	e883 0007 	stmia.w	r3, {r0, r1, r2}
	if (pm_power_state_set != NULL) {
    1ce2:	4a14      	ldr	r2, [pc, #80]	; (1d34 <pm_system_suspend+0xf0>)
    1ce4:	b11a      	cbz	r2, 1cee <pm_system_suspend+0xaa>
		pm_power_state_set(info);
    1ce6:	e893 0007 	ldmia.w	r3, {r0, r1, r2}
    1cea:	f004 f8d7 	bl	5e9c <pm_power_state_set>
	if (atomic_add(&z_cpus_active, 1) == 0) {
		pm_resume_devices();
	}
#endif
	pm_stats_update(z_cpus_pm_state[id].state);
	pm_system_resume();
    1cee:	f7ff ff65 	bl	1bbc <pm_system_resume>
	k_sched_unlock();
    1cf2:	f003 fbc1 	bl	5478 <k_sched_unlock>
	bool ret = true;
    1cf6:	2001      	movs	r0, #1
	return __atomic_fetch_and(target, value, __ATOMIC_SEQ_CST);
    1cf8:	4a0f      	ldr	r2, [pc, #60]	; (1d38 <pm_system_suspend+0xf4>)
    1cfa:	f3bf 8f5b 	dmb	ish
	atomic_val_t mask = ATOMIC_MASK(bit);
    1cfe:	2301      	movs	r3, #1
    1d00:	40bb      	lsls	r3, r7
	(void)atomic_and(ATOMIC_ELEM(target, bit), ~mask);
    1d02:	43db      	mvns	r3, r3
    1d04:	eb02 0686 	add.w	r6, r2, r6, lsl #2
    1d08:	e856 2f00 	ldrex	r2, [r6]
    1d0c:	401a      	ands	r2, r3
    1d0e:	e846 2100 	strex	r1, r2, [r6]
    1d12:	2900      	cmp	r1, #0
    1d14:	d1f8      	bne.n	1d08 <pm_system_suspend+0xc4>
    1d16:	f3bf 8f5b 	dmb	ish
				   z_cpus_pm_state[id].state);

end:
	atomic_clear_bit(z_cpus_pm_state_forced, id);
	return ret;
}
    1d1a:	b004      	add	sp, #16
    1d1c:	e8bd 81f0 	ldmia.w	sp!, {r4, r5, r6, r7, r8, pc}
    1d20:	200005fc 	.word	0x200005fc
    1d24:	20000420 	.word	0x20000420
    1d28:	000f423f 	.word	0x000f423f
    1d2c:	000f4240 	.word	0x000f4240
    1d30:	20000430 	.word	0x20000430
    1d34:	00005e9d 	.word	0x00005e9d
    1d38:	2000042c 	.word	0x2000042c

00001d3c <pm_constraint_get>:
	return __atomic_load_n(target, __ATOMIC_SEQ_CST);
    1d3c:	4b05      	ldr	r3, [pc, #20]	; (1d54 <pm_constraint_get+0x18>)
    1d3e:	f3bf 8f5b 	dmb	ish
    1d42:	f853 0020 	ldr.w	r0, [r3, r0, lsl #2]
    1d46:	f3bf 8f5b 	dmb	ish
__weak bool pm_constraint_get(enum pm_state state)
{
	__ASSERT(state < PM_STATE_COUNT, "Invalid power state!");

	return (atomic_get(&power_state_disable_count[state]) == 0);
}
    1d4a:	fab0 f080 	clz	r0, r0
    1d4e:	0940      	lsrs	r0, r0, #5
    1d50:	4770      	bx	lr
    1d52:	bf00      	nop
    1d54:	20000434 	.word	0x20000434

00001d58 <pm_state_cpu_get_all>:
	DT_FOREACH_CHILD(DT_PATH(cpus), NUM_CPU_STATES)
};

uint8_t pm_state_cpu_get_all(uint8_t cpu, const struct pm_state_info **states)
{
	if (cpu >= ARRAY_SIZE(cpus_states)) {
    1d58:	b908      	cbnz	r0, 1d5e <pm_state_cpu_get_all+0x6>
		return 0;
	}

	*states = cpus_states[cpu];
    1d5a:	4b02      	ldr	r3, [pc, #8]	; (1d64 <pm_state_cpu_get_all+0xc>)
    1d5c:	600b      	str	r3, [r1, #0]

	return states_per_cpu[cpu];
}
    1d5e:	2000      	movs	r0, #0
    1d60:	4770      	bx	lr
    1d62:	bf00      	nop
    1d64:	20000450 	.word	0x20000450

00001d68 <pm_policy_next_state>:

#include <logging/log.h>
LOG_MODULE_DECLARE(pm, CONFIG_PM_LOG_LEVEL);

const struct pm_state_info *pm_policy_next_state(uint8_t cpu, int32_t ticks)
{
    1d68:	e92d 4ff0 	stmdb	sp!, {r4, r5, r6, r7, r8, r9, sl, fp, lr}
    1d6c:	b085      	sub	sp, #20
    1d6e:	460e      	mov	r6, r1
	uint8_t num_cpu_states;
	const struct pm_state_info *cpu_states;

	num_cpu_states = pm_state_cpu_get_all(cpu, &cpu_states);
    1d70:	a903      	add	r1, sp, #12
    1d72:	f7ff fff1 	bl	1d58 <pm_state_cpu_get_all>
    1d76:	f8df a074 	ldr.w	sl, [pc, #116]	; 1dec <pm_policy_next_state+0x84>
    1d7a:	f8df 8074 	ldr.w	r8, [pc, #116]	; 1df0 <pm_policy_next_state+0x88>

	for (int16_t i = (int16_t)num_cpu_states - 1; i >= 0; i--) {
    1d7e:	1e44      	subs	r4, r0, #1
    1d80:	b224      	sxth	r4, r4
    1d82:	f44f 4700 	mov.w	r7, #32768	; 0x8000
    1d86:	f04f 0900 	mov.w	r9, #0
    1d8a:	1c63      	adds	r3, r4, #1
    1d8c:	d104      	bne.n	1d98 <pm_policy_next_state+0x30>
		    (ticks >= (min_residency + exit_latency))) {
			return state;
		}
	}

	return NULL;
    1d8e:	2500      	movs	r5, #0
}
    1d90:	4628      	mov	r0, r5
    1d92:	b005      	add	sp, #20
    1d94:	e8bd 8ff0 	ldmia.w	sp!, {r4, r5, r6, r7, r8, r9, sl, fp, pc}
		const struct pm_state_info *state = &cpu_states[i];
    1d98:	9a03      	ldr	r2, [sp, #12]
    1d9a:	eb04 0344 	add.w	r3, r4, r4, lsl #1
    1d9e:	eb02 0583 	add.w	r5, r2, r3, lsl #2
		if (!pm_constraint_get(state->state)) {
    1da2:	f812 0023 	ldrb.w	r0, [r2, r3, lsl #2]
    1da6:	f7ff ffc9 	bl	1d3c <pm_constraint_get>
    1daa:	b1e0      	cbz	r0, 1de6 <pm_policy_next_state+0x7e>
    1dac:	6868      	ldr	r0, [r5, #4]
    1dae:	f04f 0b00 	mov.w	fp, #0
    1db2:	46d4      	mov	ip, sl
    1db4:	4659      	mov	r1, fp
    1db6:	fbe0 c107 	umlal	ip, r1, r0, r7
    1dba:	4642      	mov	r2, r8
    1dbc:	464b      	mov	r3, r9
    1dbe:	4660      	mov	r0, ip
    1dc0:	f7fe fd5c 	bl	87c <__aeabi_uldivmod>
    1dc4:	9001      	str	r0, [sp, #4]
    1dc6:	68a8      	ldr	r0, [r5, #8]
    1dc8:	46d4      	mov	ip, sl
    1dca:	4659      	mov	r1, fp
    1dcc:	fbe0 c107 	umlal	ip, r1, r0, r7
    1dd0:	4642      	mov	r2, r8
    1dd2:	464b      	mov	r3, r9
    1dd4:	4660      	mov	r0, ip
    1dd6:	f7fe fd51 	bl	87c <__aeabi_uldivmod>
		if ((ticks == K_TICKS_FOREVER) ||
    1dda:	1c72      	adds	r2, r6, #1
    1ddc:	d0d8      	beq.n	1d90 <pm_policy_next_state+0x28>
		    (ticks >= (min_residency + exit_latency))) {
    1dde:	9b01      	ldr	r3, [sp, #4]
    1de0:	4418      	add	r0, r3
		if ((ticks == K_TICKS_FOREVER) ||
    1de2:	42b0      	cmp	r0, r6
    1de4:	d9d4      	bls.n	1d90 <pm_policy_next_state+0x28>
	for (int16_t i = (int16_t)num_cpu_states - 1; i >= 0; i--) {
    1de6:	3c01      	subs	r4, #1
    1de8:	b224      	sxth	r4, r4
    1dea:	e7ce      	b.n	1d8a <pm_policy_next_state+0x22>
    1dec:	000f423f 	.word	0x000f423f
    1df0:	000f4240 	.word	0x000f4240

00001df4 <z_arm_cpu_idle_init>:
 * void z_arm_cpu_idle_init(void);
 */

SECTION_FUNC(TEXT, z_arm_cpu_idle_init)
#if defined(CONFIG_CPU_CORTEX_M)
	ldr	r1, =_SCB_SCR
    1df4:	4901      	ldr	r1, [pc, #4]	; (1dfc <z_arm_cpu_idle_init+0x8>)
	movs.n	r2, #_SCR_INIT_BITS
    1df6:	2210      	movs	r2, #16
	str	r2, [r1]
    1df8:	600a      	str	r2, [r1, #0]
#endif
	bx	lr
    1dfa:	4770      	bx	lr
	ldr	r1, =_SCB_SCR
    1dfc:	e000ed10 	.word	0xe000ed10

00001e00 <arch_cpu_idle>:
	 * before entering low power state.
	 *
	 * Set PRIMASK before configuring BASEPRI to prevent interruption
	 * before wake-up.
	 */
	cpsid	i
    1e00:	b672      	cpsid	i

	/*
	 * Set wake-up interrupt priority to the lowest and synchronise to
	 * ensure that this is visible to the WFI instruction.
	 */
	eors.n	r0, r0
    1e02:	4040      	eors	r0, r0
	msr	BASEPRI, r0
    1e04:	f380 8811 	msr	BASEPRI, r0
	isb
    1e08:	f3bf 8f6f 	isb	sy

	/*
	 * Wait for all memory transactions to complete before entering low
	 * power state.
	 */
	dsb
    1e0c:	f3bf 8f4f 	dsb	sy

	/* Enter low power state */
	wfi
    1e10:	bf30      	wfi

	/*
	 * Clear PRIMASK and flush instruction buffer to immediately service
	 * the wake-up interrupt.
	 */
	cpsie	i
    1e12:	b662      	cpsie	i
	isb
    1e14:	f3bf 8f6f 	isb	sy

	bx	lr
    1e18:	4770      	bx	lr
    1e1a:	bf00      	nop

00001e1c <arch_cpu_atomic_idle>:

	/*
	 * Lock PRIMASK while sleeping: wfe will still get interrupted by
	 * incoming interrupts but the CPU will not service them right away.
	 */
	cpsid	i
    1e1c:	b672      	cpsid	i
	cpsie	i
_irq_disabled:

#elif defined(CONFIG_ARMV7_M_ARMV8_M_MAINLINE)
	/* r1: zero, for setting BASEPRI (needs a register) */
	eors.n	r1, r1
    1e1e:	4049      	eors	r1, r1

	/* unlock BASEPRI so wfe gets interrupted by incoming interrupts */
	msr	BASEPRI, r1
    1e20:	f381 8811 	msr	BASEPRI, r1

	wfe
    1e24:	bf20      	wfe

	msr	BASEPRI, r0
    1e26:	f380 8811 	msr	BASEPRI, r0
	cpsie	i
    1e2a:	b662      	cpsie	i
#else
#error Unknown ARM architecture
#endif /* CONFIG_ARMV6_M_ARMV8_M_BASELINE */
	bx	lr
    1e2c:	4770      	bx	lr
    1e2e:	bf00      	nop

00001e30 <arch_irq_enable>:
#define REG_FROM_IRQ(irq) (irq / NUM_IRQS_PER_REG)
#define BIT_FROM_IRQ(irq) (irq % NUM_IRQS_PER_REG)

void arch_irq_enable(unsigned int irq)
{
	NVIC_EnableIRQ((IRQn_Type)irq);
    1e30:	b243      	sxtb	r3, r0
  \param [in]      IRQn  Device specific interrupt number.
  \note    IRQn must not be negative.
 */
__STATIC_INLINE void __NVIC_EnableIRQ(IRQn_Type IRQn)
{
  if ((int32_t)(IRQn) >= 0)
    1e32:	2b00      	cmp	r3, #0
    1e34:	db08      	blt.n	1e48 <arch_irq_enable+0x18>
  {
    __COMPILER_BARRIER();
    NVIC->ISER[(((uint32_t)IRQn) >> 5UL)] = (uint32_t)(1UL << (((uint32_t)IRQn) & 0x1FUL));
    1e36:	2201      	movs	r2, #1
    1e38:	f000 001f 	and.w	r0, r0, #31
    1e3c:	fa02 f000 	lsl.w	r0, r2, r0
    1e40:	095b      	lsrs	r3, r3, #5
    1e42:	4a02      	ldr	r2, [pc, #8]	; (1e4c <arch_irq_enable+0x1c>)
    1e44:	f842 0023 	str.w	r0, [r2, r3, lsl #2]
}
    1e48:	4770      	bx	lr
    1e4a:	bf00      	nop
    1e4c:	e000e100 	.word	0xe000e100

00001e50 <arch_irq_is_enabled>:
	NVIC_DisableIRQ((IRQn_Type)irq);
}

int arch_irq_is_enabled(unsigned int irq)
{
	return NVIC->ISER[REG_FROM_IRQ(irq)] & BIT(BIT_FROM_IRQ(irq));
    1e50:	4b05      	ldr	r3, [pc, #20]	; (1e68 <arch_irq_is_enabled+0x18>)
    1e52:	0942      	lsrs	r2, r0, #5
    1e54:	f000 001f 	and.w	r0, r0, #31
    1e58:	f853 2022 	ldr.w	r2, [r3, r2, lsl #2]
    1e5c:	2301      	movs	r3, #1
    1e5e:	fa03 f000 	lsl.w	r0, r3, r0
}
    1e62:	4010      	ands	r0, r2
    1e64:	4770      	bx	lr
    1e66:	bf00      	nop
    1e68:	e000e100 	.word	0xe000e100

00001e6c <z_arm_irq_priority_set>:
	 */
	__ASSERT(prio <= (BIT(NUM_IRQ_PRIO_BITS) - 1),
		 "invalid priority %d for %d irq! values must be less than %lu\n",
		 prio - _IRQ_PRIO_OFFSET, irq,
		 BIT(NUM_IRQ_PRIO_BITS) - (_IRQ_PRIO_OFFSET));
	NVIC_SetPriority((IRQn_Type)irq, prio);
    1e6c:	b243      	sxtb	r3, r0
  \param [in]  priority  Priority to set.
  \note    The priority cannot be set for every processor exception.
 */
__STATIC_INLINE void __NVIC_SetPriority(IRQn_Type IRQn, uint32_t priority)
{
  if ((int32_t)(IRQn) >= 0)
    1e6e:	2b00      	cmp	r3, #0
  {
    NVIC->IP[((uint32_t)IRQn)]               = (uint8_t)((priority << (8U - __NVIC_PRIO_BITS)) & (uint32_t)0xFFUL);
    1e70:	bfa8      	it	ge
    1e72:	f103 4360 	addge.w	r3, r3, #3758096384	; 0xe0000000
		prio += _IRQ_PRIO_OFFSET;
    1e76:	f101 0101 	add.w	r1, r1, #1
  }
  else
  {
    SCB->SHP[(((uint32_t)IRQn) & 0xFUL)-4UL] = (uint8_t)((priority << (8U - __NVIC_PRIO_BITS)) & (uint32_t)0xFFUL);
    1e7a:	bfb8      	it	lt
    1e7c:	4b06      	ldrlt	r3, [pc, #24]	; (1e98 <z_arm_irq_priority_set+0x2c>)
    NVIC->IP[((uint32_t)IRQn)]               = (uint8_t)((priority << (8U - __NVIC_PRIO_BITS)) & (uint32_t)0xFFUL);
    1e7e:	ea4f 1141 	mov.w	r1, r1, lsl #5
    1e82:	bfac      	ite	ge
    1e84:	f503 4361 	addge.w	r3, r3, #57600	; 0xe100
    SCB->SHP[(((uint32_t)IRQn) & 0xFUL)-4UL] = (uint8_t)((priority << (8U - __NVIC_PRIO_BITS)) & (uint32_t)0xFFUL);
    1e88:	f000 000f 	andlt.w	r0, r0, #15
    NVIC->IP[((uint32_t)IRQn)]               = (uint8_t)((priority << (8U - __NVIC_PRIO_BITS)) & (uint32_t)0xFFUL);
    1e8c:	b2c9      	uxtb	r1, r1
    SCB->SHP[(((uint32_t)IRQn) & 0xFUL)-4UL] = (uint8_t)((priority << (8U - __NVIC_PRIO_BITS)) & (uint32_t)0xFFUL);
    1e8e:	bfb4      	ite	lt
    1e90:	5419      	strblt	r1, [r3, r0]
    NVIC->IP[((uint32_t)IRQn)]               = (uint8_t)((priority << (8U - __NVIC_PRIO_BITS)) & (uint32_t)0xFFUL);
    1e92:	f883 1300 	strbge.w	r1, [r3, #768]	; 0x300
}
    1e96:	4770      	bx	lr
    1e98:	e000ed14 	.word	0xe000ed14

00001e9c <z_SysNmiOnReset>:
_ASM_FILE_PROLOGUE

GTEXT(z_SysNmiOnReset)

SECTION_FUNC(TEXT, z_SysNmiOnReset)
    wfi
    1e9c:	bf30      	wfi
    b z_SysNmiOnReset
    1e9e:	f7ff bffd 	b.w	1e9c <z_SysNmiOnReset>
    1ea2:	bf00      	nop

00001ea4 <z_arm_prep_c>:

#define VECTOR_ADDRESS ((uintptr_t)_vector_start)

static inline void relocate_vector_table(void)
{
	SCB->VTOR = VECTOR_ADDRESS & SCB_VTOR_TBLOFF_Msk;
    1ea4:	4a0f      	ldr	r2, [pc, #60]	; (1ee4 <z_arm_prep_c+0x40>)
 *
 * This routine prepares for the execution of and runs C code.
 *
 */
void z_arm_prep_c(void)
{
    1ea6:	b508      	push	{r3, lr}
	SCB->VTOR = VECTOR_ADDRESS & SCB_VTOR_TBLOFF_Msk;
    1ea8:	4b0f      	ldr	r3, [pc, #60]	; (1ee8 <z_arm_prep_c+0x44>)
    1eaa:	f022 027f 	bic.w	r2, r2, #127	; 0x7f
    1eae:	609a      	str	r2, [r3, #8]
  \details Acts as a special kind of Data Memory Barrier.
           It completes when all explicit memory accesses before this instruction complete.
 */
__STATIC_FORCEINLINE void __DSB(void)
{
  __ASM volatile ("dsb 0xF":::"memory");
    1eb0:	f3bf 8f4f 	dsb	sy
  __ASM volatile ("isb 0xF":::"memory");
    1eb4:	f3bf 8f6f 	isb	sy
	SCB->CPACR &= (~(CPACR_CP10_Msk | CPACR_CP11_Msk));
    1eb8:	f8d3 2088 	ldr.w	r2, [r3, #136]	; 0x88
    1ebc:	f422 0270 	bic.w	r2, r2, #15728640	; 0xf00000
    1ec0:	f8c3 2088 	str.w	r2, [r3, #136]	; 0x88
 */
__STATIC_FORCEINLINE uint32_t __get_CONTROL(void)
{
  uint32_t result;

  __ASM volatile ("MRS %0, control" : "=r" (result) );
    1ec4:	f3ef 8314 	mrs	r3, CONTROL
	__set_CONTROL(__get_CONTROL() & (~(CONTROL_FPCA_Msk)));
    1ec8:	f023 0304 	bic.w	r3, r3, #4
  \details Writes the given value to the Control Register.
  \param [in]    control  Control Register value to set
 */
__STATIC_FORCEINLINE void __set_CONTROL(uint32_t control)
{
  __ASM volatile ("MSR control, %0" : : "r" (control) : "memory");
    1ecc:	f383 8814 	msr	CONTROL, r3
  __ASM volatile ("isb 0xF":::"memory");
    1ed0:	f3bf 8f6f 	isb	sy
	relocate_vector_table();
#if defined(CONFIG_CPU_HAS_FPU)
	z_arm_floating_point_init();
#endif
	z_bss_zero();
    1ed4:	f002 fe08 	bl	4ae8 <z_bss_zero>
	z_data_copy();
    1ed8:	f003 fc02 	bl	56e0 <z_data_copy>
#if ((defined(CONFIG_ARMV7_R) || defined(CONFIG_ARMV7_A)) && defined(CONFIG_INIT_STACKS))
	z_arm_init_stacks();
#endif
	z_arm_interrupt_init();
    1edc:	f000 f9ca 	bl	2274 <z_arm_interrupt_init>
	z_cstart();
    1ee0:	f002 fe0c 	bl	4afc <z_cstart>
    1ee4:	00000000 	.word	0x00000000
    1ee8:	e000ed00 	.word	0xe000ed00

00001eec <arch_swap>:
 * as BASEPRI is not available.
 */
int arch_swap(unsigned int key)
{
	/* store off key and return value */
	_current->arch.basepri = key;
    1eec:	4a09      	ldr	r2, [pc, #36]	; (1f14 <arch_swap+0x28>)
	_current->arch.swap_return_value = _k_neg_eagain;
    1eee:	490a      	ldr	r1, [pc, #40]	; (1f18 <arch_swap+0x2c>)
	_current->arch.basepri = key;
    1ef0:	6893      	ldr	r3, [r2, #8]
	_current->arch.swap_return_value = _k_neg_eagain;
    1ef2:	6809      	ldr	r1, [r1, #0]
    1ef4:	6799      	str	r1, [r3, #120]	; 0x78

#if defined(CONFIG_CPU_CORTEX_M)
	/* set pending bit to make sure we will take a PendSV exception */
	SCB->ICSR |= SCB_ICSR_PENDSVSET_Msk;
    1ef6:	4909      	ldr	r1, [pc, #36]	; (1f1c <arch_swap+0x30>)
	_current->arch.basepri = key;
    1ef8:	6758      	str	r0, [r3, #116]	; 0x74
	SCB->ICSR |= SCB_ICSR_PENDSVSET_Msk;
    1efa:	684b      	ldr	r3, [r1, #4]
    1efc:	f043 5380 	orr.w	r3, r3, #268435456	; 0x10000000
    1f00:	604b      	str	r3, [r1, #4]
	__asm__ volatile(
    1f02:	2300      	movs	r3, #0
    1f04:	f383 8811 	msr	BASEPRI, r3
    1f08:	f3bf 8f6f 	isb	sy
#endif

	/* Context switch is performed here. Returning implies the
	 * thread has been context-switched-in again.
	 */
	return _current->arch.swap_return_value;
    1f0c:	6893      	ldr	r3, [r2, #8]
}
    1f0e:	6f98      	ldr	r0, [r3, #120]	; 0x78
    1f10:	4770      	bx	lr
    1f12:	bf00      	nop
    1f14:	200005fc 	.word	0x200005fc
    1f18:	00007298 	.word	0x00007298
    1f1c:	e000ed00 	.word	0xe000ed00

00001f20 <z_arm_pendsv>:
    pop {r0, lr}
#endif /* CONFIG_ARMV6_M_ARMV8_M_BASELINE */
#endif /* CONFIG_INSTRUMENT_THREAD_SWITCHING */

    /* load _kernel into r1 and current k_thread into r2 */
    ldr r1, =_kernel
    1f20:	4912      	ldr	r1, [pc, #72]	; (1f6c <z_arm_pendsv+0x4c>)
    ldr r2, [r1, #_kernel_offset_to_current]
    1f22:	688a      	ldr	r2, [r1, #8]
    /* Store LSB of LR (EXC_RETURN) to the thread's 'mode' word. */
    strb lr, [r2, #_thread_offset_to_mode_exc_return]
#endif

    /* addr of callee-saved regs in thread in r0 */
    ldr r0, =_thread_offset_to_callee_saved
    1f24:	f04f 0030 	mov.w	r0, #48	; 0x30
    add r0, r2
    1f28:	4410      	add	r0, r2

    /* save callee-saved + psp in thread */
#if defined(CONFIG_CPU_CORTEX_M)
    mrs ip, PSP
    1f2a:	f3ef 8c09 	mrs	ip, PSP
    mov r6, r11
    mov r7, ip
    /* store r8-12 */
    stmea r0!, {r3-r7}
#elif defined(CONFIG_ARMV7_M_ARMV8_M_MAINLINE)
    stmia r0, {v1-v8, ip}
    1f2e:	e880 1ff0 	stmia.w	r0, {r4, r5, r6, r7, r8, r9, sl, fp, ip}

    /* Protect the kernel state while we play with the thread lists */
#if defined(CONFIG_ARMV6_M_ARMV8_M_BASELINE)
    cpsid i
#elif defined(CONFIG_ARMV7_M_ARMV8_M_MAINLINE)
    movs.n r0, #_EXC_IRQ_DEFAULT_PRIO
    1f32:	2020      	movs	r0, #32
    msr BASEPRI_MAX, r0
    1f34:	f380 8812 	msr	BASEPRI_MAX, r0
    isb /* Make the effect of disabling interrupts be realized immediately */
    1f38:	f3bf 8f6f 	isb	sy
     * the new thread is context-switched in since all decisions
     * to pend PendSV have been taken with the current kernel
     * state and this is what we're handling currently.
     */
#if defined(CONFIG_CPU_CORTEX_M)
    ldr v4, =_SCS_ICSR
    1f3c:	4f0c      	ldr	r7, [pc, #48]	; (1f70 <z_arm_pendsv+0x50>)
    ldr v3, =_SCS_ICSR_UNPENDSV
    1f3e:	f04f 6600 	mov.w	r6, #134217728	; 0x8000000
#endif

    /* _kernel is still in r1 */

    /* fetch the thread to run from the ready queue cache */
    ldr r2, [r1, #_kernel_offset_to_ready_q_cache]
    1f42:	69ca      	ldr	r2, [r1, #28]

    str r2, [r1, #_kernel_offset_to_current]
    1f44:	608a      	str	r2, [r1, #8]
     * has been handled.
     */

    /* _SCS_ICSR is still in v4 and _SCS_ICSR_UNPENDSV in v3 */
#if defined(CONFIG_CPU_CORTEX_M)
    str v3, [v4, #0]
    1f46:	603e      	str	r6, [r7, #0]

    ldr r0, [r4]
    movs.n r3, #0
    str r3, [r4]
#else
    ldr r0, [r2, #_thread_offset_to_basepri]
    1f48:	6f50      	ldr	r0, [r2, #116]	; 0x74
    movs r3, #0
    1f4a:	2300      	movs	r3, #0
    str r3, [r2, #_thread_offset_to_basepri]
    1f4c:	6753      	str	r3, [r2, #116]	; 0x74
    /* restore r4-r7, go back 9*4 bytes to the start of the stored block */
    subs r0, #36
    ldmia r0!, {r4-r7}
#elif defined(CONFIG_ARMV7_M_ARMV8_M_MAINLINE)
    /* restore BASEPRI for the incoming thread */
    msr BASEPRI, r0
    1f4e:	f380 8811 	msr	BASEPRI, r0
    isb
#endif

#if defined(CONFIG_MPU_STACK_GUARD) || defined(CONFIG_USERSPACE)
    /* Re-program dynamic memory map */
    push {r2,lr}
    1f52:	b504      	push	{r2, lr}
    mov r0, r2 /* _current thread */
    1f54:	4610      	mov	r0, r2
    bl z_arm_configure_dynamic_mpu_regions
    1f56:	f000 f9cf 	bl	22f8 <z_arm_configure_dynamic_mpu_regions>
    pop {r2,lr}
    1f5a:	e8bd 4004 	ldmia.w	sp!, {r2, lr}
    isb

#endif

    /* load callee-saved + psp from thread */
    add r0, r2, #_thread_offset_to_callee_saved
    1f5e:	f102 0030 	add.w	r0, r2, #48	; 0x30
    ldmia r0, {v1-v8, ip}
    1f62:	e890 1ff0 	ldmia.w	r0, {r4, r5, r6, r7, r8, r9, sl, fp, ip}
#else
#error Unknown ARM architecture
#endif /* CONFIG_ARMV6_M_ARMV8_M_BASELINE */

#if defined(CONFIG_CPU_CORTEX_M)
    msr PSP, ip
    1f66:	f38c 8809 	msr	PSP, ip

    /*
     * Cortex-M: return from PendSV exception
     * Cortex-R: return to the caller (z_arm_{exc,int}_exit, or z_arm_svc)
     */
    bx lr
    1f6a:	4770      	bx	lr
    ldr r1, =_kernel
    1f6c:	200005fc 	.word	0x200005fc
    ldr v4, =_SCS_ICSR
    1f70:	e000ed04 	.word	0xe000ed04

00001f74 <z_arm_svc>:
  bne _stack_frame_endif
_stack_frame_msp:
  mrs r0, MSP
_stack_frame_endif:
#elif defined(CONFIG_ARMV7_M_ARMV8_M_MAINLINE)
    tst lr, #_EXC_RETURN_SPSEL_Msk /* did we come from thread mode ? */
    1f74:	f01e 0f04 	tst.w	lr, #4
    ite eq  /* if zero (equal), came from handler mode */
    1f78:	bf0c      	ite	eq
        mrseq r0, MSP   /* handler mode, stack frame is on MSP */
    1f7a:	f3ef 8008 	mrseq	r0, MSP
        mrsne r0, PSP   /* thread mode, stack frame is on PSP */
    1f7e:	f3ef 8009 	mrsne	r0, PSP
#endif


    /* Figure out what SVC call number was invoked */

    ldr r1, [r0, #24]   /* grab address of PC from stack frame */
    1f82:	6981      	ldr	r1, [r0, #24]
     */
#if defined(CONFIG_ARMV6_M_ARMV8_M_BASELINE)
    subs r1, r1, #2
    ldrb r1, [r1]
#elif defined(CONFIG_ARMV7_M_ARMV8_M_MAINLINE)
    ldrb r1, [r1, #-2]
    1f84:	f811 1c02 	ldrb.w	r1, [r1, #-2]
#endif
    bne _oops

#endif /* CONFIG_USERSPACE */

    cmp r1, #2
    1f88:	2902      	cmp	r1, #2
    beq _oops
    1f8a:	d0ff      	beq.n	1f8c <_oops>

00001f8c <_oops>:
    /* exception return is done in z_arm_int_exit() */
    b z_arm_int_exit
#endif

_oops:
    push {r0, lr}
    1f8c:	b501      	push	{r0, lr}
    bl z_do_kernel_oops
    1f8e:	f003 ff39 	bl	5e04 <z_do_kernel_oops>
    /* return from SVC exception is done here */
    pop {r0, pc}
    1f92:	bd01      	pop	{r0, pc}

00001f94 <arch_new_thread>:

#if defined(CONFIG_CPU_CORTEX_M)
	/* force ARM mode by clearing LSB of address */
	iframe->pc &= 0xfffffffe;
#endif
	iframe->a1 = (uint32_t)entry;
    1f94:	f842 3c20 	str.w	r3, [r2, #-32]
	iframe->a2 = (uint32_t)p1;
    1f98:	9b00      	ldr	r3, [sp, #0]
    1f9a:	f842 3c1c 	str.w	r3, [r2, #-28]
	iframe->pc &= 0xfffffffe;
    1f9e:	490a      	ldr	r1, [pc, #40]	; (1fc8 <arch_new_thread+0x34>)
	iframe->a3 = (uint32_t)p2;
    1fa0:	9b01      	ldr	r3, [sp, #4]
    1fa2:	f842 3c18 	str.w	r3, [r2, #-24]
	iframe->a4 = (uint32_t)p3;
    1fa6:	9b02      	ldr	r3, [sp, #8]
    1fa8:	f842 3c14 	str.w	r3, [r2, #-20]
	iframe->pc &= 0xfffffffe;
    1fac:	f021 0101 	bic.w	r1, r1, #1

#if defined(CONFIG_CPU_CORTEX_M)
	iframe->xpsr =
    1fb0:	f04f 7380 	mov.w	r3, #16777216	; 0x1000000
    1fb4:	f842 3c04 	str.w	r3, [r2, #-4]
	iframe->pc &= 0xfffffffe;
    1fb8:	f842 1c08 	str.w	r1, [r2, #-8]
	iframe->xpsr |= T_BIT;
#endif /* CONFIG_COMPILER_ISA_THUMB2 */
#endif /* CONFIG_CPU_CORTEX_M */

	thread->callee_saved.psp = (uint32_t)iframe;
	thread->arch.basepri = 0;
    1fbc:	2300      	movs	r3, #0
	iframe = Z_STACK_PTR_TO_FRAME(struct __basic_sf, stack_ptr);
    1fbe:	3a20      	subs	r2, #32
	thread->callee_saved.psp = (uint32_t)iframe;
    1fc0:	6502      	str	r2, [r0, #80]	; 0x50
	thread->arch.basepri = 0;
    1fc2:	6743      	str	r3, [r0, #116]	; 0x74
#endif
	/*
	 * initial values in all other registers/thread entries are
	 * irrelevant.
	 */
}
    1fc4:	4770      	bx	lr
    1fc6:	bf00      	nop
    1fc8:	00005c29 	.word	0x00005c29

00001fcc <z_check_thread_stack_fail>:
 *         thread stack corruption, otherwise return 0.
 */
uint32_t z_check_thread_stack_fail(const uint32_t fault_addr, const uint32_t psp)
{
#if defined(CONFIG_MULTITHREADING)
	const struct k_thread *thread = _current;
    1fcc:	4a09      	ldr	r2, [pc, #36]	; (1ff4 <z_check_thread_stack_fail+0x28>)
{
    1fce:	4603      	mov	r3, r0
	const struct k_thread *thread = _current;
    1fd0:	6890      	ldr	r0, [r2, #8]

	if (thread == NULL) {
    1fd2:	b170      	cbz	r0, 1ff2 <z_check_thread_stack_fail+0x26>
			return thread->stack_info.start;
		}
	}
#else /* CONFIG_USERSPACE */
#if defined(CONFIG_MULTITHREADING)
	if (IS_MPU_GUARD_VIOLATION(thread->stack_info.start - guard_len,
    1fd4:	f113 0f16 	cmn.w	r3, #22
    1fd8:	6e40      	ldr	r0, [r0, #100]	; 0x64
    1fda:	d005      	beq.n	1fe8 <z_check_thread_stack_fail+0x1c>
    1fdc:	f1a0 0220 	sub.w	r2, r0, #32
    1fe0:	429a      	cmp	r2, r3
    1fe2:	d805      	bhi.n	1ff0 <z_check_thread_stack_fail+0x24>
    1fe4:	4283      	cmp	r3, r0
    1fe6:	d203      	bcs.n	1ff0 <z_check_thread_stack_fail+0x24>
		return (uint32_t)Z_THREAD_STACK_BUFFER(z_main_stack);
	}
#endif
#endif /* CONFIG_USERSPACE */

	return 0;
    1fe8:	4281      	cmp	r1, r0
    1fea:	bf28      	it	cs
    1fec:	2000      	movcs	r0, #0
    1fee:	4770      	bx	lr
    1ff0:	2000      	movs	r0, #0
}
    1ff2:	4770      	bx	lr
    1ff4:	200005fc 	.word	0x200005fc

00001ff8 <arch_switch_to_main_thread>:
#endif /* CONFIG_FPU */
}

void arch_switch_to_main_thread(struct k_thread *main_thread, char *stack_ptr,
				k_thread_entry_t _main)
{
    1ff8:	b508      	push	{r3, lr}
	z_arm_prepare_switch_to_main();

	_current = main_thread;
    1ffa:	4b09      	ldr	r3, [pc, #36]	; (2020 <arch_switch_to_main_thread+0x28>)
    1ffc:	6098      	str	r0, [r3, #8]
{
    1ffe:	460d      	mov	r5, r1
    2000:	4614      	mov	r4, r2
#if defined(CONFIG_MPU_STACK_GUARD) || defined(CONFIG_USERSPACE)
	/*
	 * If stack protection is enabled, make sure to set it
	 * before jumping to thread entry function
	 */
	z_arm_configure_dynamic_mpu_regions(main_thread);
    2002:	f000 f979 	bl	22f8 <z_arm_configure_dynamic_mpu_regions>

	/*
	 * Set PSP to the highest address of the main stack
	 * before enabling interrupts and jumping to main.
	 */
	__asm__ volatile (
    2006:	4620      	mov	r0, r4
    2008:	f385 8809 	msr	PSP, r5
    200c:	2100      	movs	r1, #0
    200e:	b663      	cpsie	if
    2010:	f381 8811 	msr	BASEPRI, r1
    2014:	f3bf 8f6f 	isb	sy
    2018:	2200      	movs	r2, #0
    201a:	2300      	movs	r3, #0
    201c:	f003 fe04 	bl	5c28 <z_thread_entry>
	:
	: "r" (_main), "r" (stack_ptr)
	: "r0" /* not to be overwritten by msr PSP, %1 */
	);

	CODE_UNREACHABLE;
    2020:	200005fc 	.word	0x200005fc

00002024 <_isr_wrapper>:
 *
 */
SECTION_FUNC(TEXT, _isr_wrapper)

#if defined(CONFIG_CPU_CORTEX_M)
	push {r0,lr}		/* r0, lr are now the first items on the stack */
    2024:	b501      	push	{r0, lr}
	 * Disable interrupts to prevent nesting while exiting idle state. This
	 * is only necessary for the Cortex-M because it is the only ARM
	 * architecture variant that automatically enables interrupts when
	 * entering an ISR.
	 */
	cpsid i  /* PRIMASK = 1 */
    2026:	b672      	cpsid	i
#endif

	/* is this a wakeup from idle ? */
	ldr r2, =_kernel
    2028:	4a0b      	ldr	r2, [pc, #44]	; (2058 <_isr_wrapper+0x34>)
	/* requested idle duration, in ticks */
	ldr r0, [r2, #_kernel_offset_to_idle]
    202a:	6990      	ldr	r0, [r2, #24]
	cmp r0, #0
    202c:	2800      	cmp	r0, #0
	str r1, [r2, #_kernel_offset_to_idle]
	bl z_pm_save_idle_exit
_idle_state_cleared:

#elif defined(CONFIG_ARMV7_M_ARMV8_M_MAINLINE)
	ittt ne
    202e:	bf1e      	ittt	ne
	movne	r1, #0
    2030:	2100      	movne	r1, #0
		/* clear kernel idle state */
		strne	r1, [r2, #_kernel_offset_to_idle]
    2032:	6191      	strne	r1, [r2, #24]
		blne	z_pm_save_idle_exit
    2034:	f004 fcec 	blne	6a10 <z_pm_save_idle_exit>
#else
#error Unknown ARM architecture
#endif /* CONFIG_ARMV6_M_ARMV8_M_BASELINE */

#if defined(CONFIG_CPU_CORTEX_M)
	cpsie i		/* re-enable interrupts (PRIMASK = 0) */
    2038:	b662      	cpsie	i
#endif

#endif /* CONFIG_PM */

#if defined(CONFIG_CPU_CORTEX_M)
	mrs r0, IPSR	/* get exception number */
    203a:	f3ef 8005 	mrs	r0, IPSR
#if defined(CONFIG_ARMV6_M_ARMV8_M_BASELINE)
	ldr r1, =16
	subs r0, r1	/* get IRQ number */
	lsls r0, #3	/* table is 8-byte wide */
#elif defined(CONFIG_ARMV7_M_ARMV8_M_MAINLINE)
	sub r0, r0, #16	/* get IRQ number */
    203e:	f1a0 0010 	sub.w	r0, r0, #16
	lsl r0, r0, #3	/* table is 8-byte wide */
    2042:	ea4f 00c0 	mov.w	r0, r0, lsl #3
	lsl r1, r1, #3
	cmp r0, r1
	bge spurious_continue
#endif /* !CONFIG_CPU_CORTEX_M */

	ldr r1, =_sw_isr_table
    2046:	4905      	ldr	r1, [pc, #20]	; (205c <_isr_wrapper+0x38>)
	add r1, r1, r0	/* table entry: ISRs must have their MSB set to stay
    2048:	4401      	add	r1, r0
			 * in thumb mode */

	ldm r1!,{r0,r3}	/* arg in r0, ISR in r3 */
    204a:	c909      	ldmia	r1!, {r0, r3}
	blx r3		/* call ISR */
    204c:	4798      	blx	r3

#if defined(CONFIG_ARMV6_M_ARMV8_M_BASELINE)
	pop {r0, r3}
	mov lr, r3
#elif defined(CONFIG_ARMV7_M_ARMV8_M_MAINLINE)
	pop {r0, lr}
    204e:	e8bd 4001 	ldmia.w	sp!, {r0, lr}
#endif /* CONFIG_ARMV6_M_ARMV8_M_BASELINE */

	/* Use 'bx' instead of 'b' because 'bx' can jump further, and use
	 * 'bx' instead of 'blx' because exception return is done in
	 * z_arm_int_exit() */
	ldr r1, =z_arm_int_exit
    2052:	4903      	ldr	r1, [pc, #12]	; (2060 <_isr_wrapper+0x3c>)
	bx r1
    2054:	4708      	bx	r1
    2056:	0000      	.short	0x0000
	ldr r2, =_kernel
    2058:	200005fc 	.word	0x200005fc
	ldr r1, =_sw_isr_table
    205c:	00006e9c 	.word	0x00006e9c
	ldr r1, =z_arm_int_exit
    2060:	00002065 	.word	0x00002065

00002064 <z_arm_exc_exit>:
 */

SECTION_SUBSEC_FUNC(TEXT, _HandlerModeExit, z_arm_exc_exit)

#ifdef CONFIG_PREEMPT_ENABLED
	ldr r3, =_kernel
    2064:	4b04      	ldr	r3, [pc, #16]	; (2078 <_EXIT_EXC+0x2>)

	ldr r1, [r3, #_kernel_offset_to_current]
    2066:	6899      	ldr	r1, [r3, #8]
	ldr r0, [r3, #_kernel_offset_to_ready_q_cache]
    2068:	69d8      	ldr	r0, [r3, #28]
	cmp r0, r1
    206a:	4288      	cmp	r0, r1
	beq _EXIT_EXC
    206c:	d003      	beq.n	2076 <_EXIT_EXC>

	/* context switch required, pend the PendSV exception */
	ldr r1, =_SCS_ICSR
    206e:	4903      	ldr	r1, [pc, #12]	; (207c <_EXIT_EXC+0x6>)
	ldr r2, =_SCS_ICSR_PENDSV
    2070:	f04f 5280 	mov.w	r2, #268435456	; 0x10000000
	str r2, [r1]
    2074:	600a      	str	r2, [r1, #0]

00002076 <_EXIT_EXC>:
#else
	pop {r0, lr}
#endif /* CONFIG_ARMV6_M_ARMV8_M_BASELINE */
#endif /* CONFIG_STACK_SENTINEL */

	bx lr
    2076:	4770      	bx	lr
	ldr r3, =_kernel
    2078:	200005fc 	.word	0x200005fc
	ldr r1, =_SCS_ICSR
    207c:	e000ed04 	.word	0xe000ed04

00002080 <mem_manage_fault>:
 *
 * @return error code to identify the fatal error reason
 */
static uint32_t mem_manage_fault(z_arch_esf_t *esf, int from_hard_fault,
			      bool *recoverable)
{
    2080:	b538      	push	{r3, r4, r5, lr}
	uint32_t reason = K_ERR_CPU_EXCEPTION;
	uint32_t mmfar = -EINVAL;

	PR_FAULT_INFO("***** MPU FAULT *****");

	if ((SCB->CFSR & SCB_CFSR_MSTKERR_Msk) != 0) {
    2082:	4b19      	ldr	r3, [pc, #100]	; (20e8 <mem_manage_fault+0x68>)
{
    2084:	4614      	mov	r4, r2
	if ((SCB->CFSR & SCB_CFSR_MSTKERR_Msk) != 0) {
    2086:	6a9a      	ldr	r2, [r3, #40]	; 0x28
		PR_FAULT_INFO("  Stacking error (context area might be"
			" not valid)");
	}
	if ((SCB->CFSR & SCB_CFSR_MUNSTKERR_Msk) != 0) {
    2088:	6a9a      	ldr	r2, [r3, #40]	; 0x28
		PR_FAULT_INFO("  Unstacking error");
	}
	if ((SCB->CFSR & SCB_CFSR_DACCVIOL_Msk) != 0) {
    208a:	6a9a      	ldr	r2, [r3, #40]	; 0x28
{
    208c:	4605      	mov	r5, r0
	if ((SCB->CFSR & SCB_CFSR_DACCVIOL_Msk) != 0) {
    208e:	0790      	lsls	r0, r2, #30
    2090:	d519      	bpl.n	20c6 <mem_manage_fault+0x46>
		 * The MMFAR address is valid only if this bit is 1.
		 *
		 * Software must follow this sequence because another higher
		 * priority exception might change the MMFAR value.
		 */
		uint32_t temp = SCB->MMFAR;
    2092:	6b58      	ldr	r0, [r3, #52]	; 0x34

		if ((SCB->CFSR & SCB_CFSR_MMARVALID_Msk) != 0) {
    2094:	6a9a      	ldr	r2, [r3, #40]	; 0x28
    2096:	0612      	lsls	r2, r2, #24
    2098:	d515      	bpl.n	20c6 <mem_manage_fault+0x46>
			mmfar = temp;
			PR_EXC("  MMFAR Address: 0x%x", mmfar);
			if (from_hard_fault != 0) {
    209a:	b119      	cbz	r1, 20a4 <mem_manage_fault+0x24>
				/* clear SCB_MMAR[VALID] to reset */
				SCB->CFSR &= ~SCB_CFSR_MMARVALID_Msk;
    209c:	6a9a      	ldr	r2, [r3, #40]	; 0x28
    209e:	f022 0280 	bic.w	r2, r2, #128	; 0x80
    20a2:	629a      	str	r2, [r3, #40]	; 0x28
			}
		}
	}
	if ((SCB->CFSR & SCB_CFSR_IACCVIOL_Msk) != 0) {
    20a4:	6a9a      	ldr	r2, [r3, #40]	; 0x28
		PR_FAULT_INFO("  Instruction Access Violation");
	}
#if defined(CONFIG_ARMV7_M_ARMV8_M_FP)
	if ((SCB->CFSR & SCB_CFSR_MLSPERR_Msk) != 0) {
    20a6:	6a9a      	ldr	r2, [r3, #40]	; 0x28
	 * crossed into an area beyond the thread stack.]
	 *
	 * Data Access Violation errors may or may not be caused by
	 * thread stack overflows.
	 */
	if ((SCB->CFSR & SCB_CFSR_MSTKERR_Msk) ||
    20a8:	6a9a      	ldr	r2, [r3, #40]	; 0x28
    20aa:	06d1      	lsls	r1, r2, #27
    20ac:	d40e      	bmi.n	20cc <mem_manage_fault+0x4c>
		(SCB->CFSR & SCB_CFSR_DACCVIOL_Msk)) {
    20ae:	6a9b      	ldr	r3, [r3, #40]	; 0x28
	if ((SCB->CFSR & SCB_CFSR_MSTKERR_Msk) ||
    20b0:	079a      	lsls	r2, r3, #30
    20b2:	d40b      	bmi.n	20cc <mem_manage_fault+0x4c>
	uint32_t reason = K_ERR_CPU_EXCEPTION;
    20b4:	2000      	movs	r0, #0
		"without stack guard, user-mode or null-pointer detection\n");
#endif /* CONFIG_MPU_STACK_GUARD || CONFIG_USERSPACE */
	}

	/* clear MMFSR sticky bits */
	SCB->CFSR |= SCB_CFSR_MEMFAULTSR_Msk;
    20b6:	4a0c      	ldr	r2, [pc, #48]	; (20e8 <mem_manage_fault+0x68>)
    20b8:	6a93      	ldr	r3, [r2, #40]	; 0x28
    20ba:	f043 03ff 	orr.w	r3, r3, #255	; 0xff
    20be:	6293      	str	r3, [r2, #40]	; 0x28

	/* Assess whether system shall ignore/recover from this MPU fault. */
	*recoverable = memory_fault_recoverable(esf, true);
    20c0:	2300      	movs	r3, #0
    20c2:	7023      	strb	r3, [r4, #0]

	return reason;
}
    20c4:	bd38      	pop	{r3, r4, r5, pc}
	uint32_t mmfar = -EINVAL;
    20c6:	f06f 0015 	mvn.w	r0, #21
    20ca:	e7eb      	b.n	20a4 <mem_manage_fault+0x24>
		if (SCB->ICSR & SCB_ICSR_RETTOBASE_Msk) {
    20cc:	4b06      	ldr	r3, [pc, #24]	; (20e8 <mem_manage_fault+0x68>)
    20ce:	685b      	ldr	r3, [r3, #4]
    20d0:	051b      	lsls	r3, r3, #20
    20d2:	d5ef      	bpl.n	20b4 <mem_manage_fault+0x34>
			uint32_t min_stack_ptr = z_check_thread_stack_fail(mmfar,
    20d4:	4629      	mov	r1, r5
    20d6:	f7ff ff79 	bl	1fcc <z_check_thread_stack_fail>
			if (min_stack_ptr) {
    20da:	2800      	cmp	r0, #0
    20dc:	d0ea      	beq.n	20b4 <mem_manage_fault+0x34>
  \details Assigns the given value to the Process Stack Pointer (PSP).
  \param [in]    topOfProcStack  Process Stack Pointer value to set
 */
__STATIC_FORCEINLINE void __set_PSP(uint32_t topOfProcStack)
{
  __ASM volatile ("MSR psp, %0" : : "r" (topOfProcStack) : );
    20de:	f380 8809 	msr	PSP, r0
				reason = K_ERR_STACK_CHK_FAIL;
    20e2:	2002      	movs	r0, #2
    20e4:	e7e7      	b.n	20b6 <mem_manage_fault+0x36>
    20e6:	bf00      	nop
    20e8:	e000ed00 	.word	0xe000ed00

000020ec <bus_fault.constprop.0>:
{
	uint32_t reason = K_ERR_CPU_EXCEPTION;

	PR_FAULT_INFO("***** BUS FAULT *****");

	if (SCB->CFSR & SCB_CFSR_STKERR_Msk) {
    20ec:	4b0d      	ldr	r3, [pc, #52]	; (2124 <bus_fault.constprop.0+0x38>)
    20ee:	6a9a      	ldr	r2, [r3, #40]	; 0x28
		PR_FAULT_INFO("  Stacking error");
	}
	if (SCB->CFSR & SCB_CFSR_UNSTKERR_Msk) {
    20f0:	6a9a      	ldr	r2, [r3, #40]	; 0x28
		PR_FAULT_INFO("  Unstacking error");
	}
	if (SCB->CFSR & SCB_CFSR_PRECISERR_Msk) {
    20f2:	6a9a      	ldr	r2, [r3, #40]	; 0x28
    20f4:	0592      	lsls	r2, r2, #22
    20f6:	d508      	bpl.n	210a <bus_fault.constprop.0+0x1e>
		 * The BFAR address is valid only if this bit is 1.
		 *
		 * Software must follow this sequence because another
		 * higher priority exception might change the BFAR value.
		 */
		STORE_xFAR(bfar, SCB->BFAR);
    20f8:	6b9a      	ldr	r2, [r3, #56]	; 0x38

		if ((SCB->CFSR & SCB_CFSR_BFARVALID_Msk) != 0) {
    20fa:	6a9a      	ldr	r2, [r3, #40]	; 0x28
    20fc:	0412      	lsls	r2, r2, #16
    20fe:	d504      	bpl.n	210a <bus_fault.constprop.0+0x1e>
			PR_EXC("  BFAR Address: 0x%x", bfar);
			if (from_hard_fault != 0) {
    2100:	b118      	cbz	r0, 210a <bus_fault.constprop.0+0x1e>
				/* clear SCB_CFSR_BFAR[VALID] to reset */
				SCB->CFSR &= ~SCB_CFSR_BFARVALID_Msk;
    2102:	6a9a      	ldr	r2, [r3, #40]	; 0x28
    2104:	f422 4200 	bic.w	r2, r2, #32768	; 0x8000
    2108:	629a      	str	r2, [r3, #40]	; 0x28
			}
		}
	}
	if (SCB->CFSR & SCB_CFSR_IMPRECISERR_Msk) {
    210a:	4b06      	ldr	r3, [pc, #24]	; (2124 <bus_fault.constprop.0+0x38>)
    210c:	6a9a      	ldr	r2, [r3, #40]	; 0x28
		PR_FAULT_INFO("  Imprecise data bus error");
	}
	if ((SCB->CFSR & SCB_CFSR_IBUSERR_Msk) != 0) {
    210e:	6a9a      	ldr	r2, [r3, #40]	; 0x28
    2110:	05d2      	lsls	r2, r2, #23
		PR_FAULT_INFO("  Instruction bus error");
#if !defined(CONFIG_ARMV7_M_ARMV8_M_FP)
	}
#else
	} else if (SCB->CFSR & SCB_CFSR_LSPERR_Msk) {
    2112:	bf58      	it	pl
    2114:	6a9a      	ldrpl	r2, [r3, #40]	; 0x28
		SYSMPU->CESR &= ~sperr;
	}
#endif /* defined(CONFIG_ARM_MPU) && defined(CONFIG_CPU_HAS_NXP_MPU) */

	/* clear BFSR sticky bits */
	SCB->CFSR |= SCB_CFSR_BUSFAULTSR_Msk;
    2116:	6a9a      	ldr	r2, [r3, #40]	; 0x28

	*recoverable = memory_fault_recoverable(esf, true);
    2118:	2000      	movs	r0, #0
	SCB->CFSR |= SCB_CFSR_BUSFAULTSR_Msk;
    211a:	f442 427f 	orr.w	r2, r2, #65280	; 0xff00
    211e:	629a      	str	r2, [r3, #40]	; 0x28
	*recoverable = memory_fault_recoverable(esf, true);
    2120:	7008      	strb	r0, [r1, #0]

	return reason;
}
    2122:	4770      	bx	lr
    2124:	e000ed00 	.word	0xe000ed00

00002128 <z_arm_fault>:
 * @param callee_regs Callee-saved registers (R4-R11, PSP)
 *
 */
void z_arm_fault(uint32_t msp, uint32_t psp, uint32_t exc_return,
	_callee_saved_t *callee_regs)
{
    2128:	b570      	push	{r4, r5, r6, lr}
	uint32_t reason = K_ERR_CPU_EXCEPTION;
	int fault = SCB->ICSR & SCB_ICSR_VECTACTIVE_Msk;
    212a:	4b48      	ldr	r3, [pc, #288]	; (224c <z_arm_fault+0x124>)
    212c:	685b      	ldr	r3, [r3, #4]
{
    212e:	b08a      	sub	sp, #40	; 0x28
    2130:	460d      	mov	r5, r1
	int fault = SCB->ICSR & SCB_ICSR_VECTACTIVE_Msk;
    2132:	f3c3 0308 	ubfx	r3, r3, #0, #9
    2136:	2600      	movs	r6, #0
    2138:	f386 8811 	msr	BASEPRI, r6
    213c:	f3bf 8f6f 	isb	sy
	if ((exc_return & EXC_RETURN_INDICATOR_PREFIX) !=
    2140:	f002 417f 	and.w	r1, r2, #4278190080	; 0xff000000
    2144:	f1b1 4f7f 	cmp.w	r1, #4278190080	; 0xff000000
    2148:	d111      	bne.n	216e <z_arm_fault+0x46>
	if ((exc_return & EXC_RETURN_MODE_THREAD) &&
    214a:	f002 010c 	and.w	r1, r2, #12
    214e:	2908      	cmp	r1, #8
    2150:	d00d      	beq.n	216e <z_arm_fault+0x46>
		if (exc_return & EXC_RETURN_MODE_THREAD) {
    2152:	0711      	lsls	r1, r2, #28
    2154:	d401      	bmi.n	215a <z_arm_fault+0x32>
			ptr_esf = (z_arch_esf_t *)msp;
    2156:	4605      	mov	r5, r0
			*nested_exc = true;
    2158:	2601      	movs	r6, #1
	*recoverable = false;
    215a:	2200      	movs	r2, #0
	switch (fault) {
    215c:	3b03      	subs	r3, #3
	*recoverable = false;
    215e:	f88d 2007 	strb.w	r2, [sp, #7]
	switch (fault) {
    2162:	2b03      	cmp	r3, #3
    2164:	d86b      	bhi.n	223e <z_arm_fault+0x116>
    2166:	e8df f003 	tbb	[pc, r3]
    216a:	5504      	.short	0x5504
    216c:	5d59      	.short	0x5d59
		return NULL;
    216e:	4635      	mov	r5, r6
    2170:	e7f3      	b.n	215a <z_arm_fault+0x32>
	if ((SCB->HFSR & SCB_HFSR_VECTTBL_Msk) != 0) {
    2172:	4b36      	ldr	r3, [pc, #216]	; (224c <z_arm_fault+0x124>)
    2174:	6adc      	ldr	r4, [r3, #44]	; 0x2c
    2176:	f014 0402 	ands.w	r4, r4, #2
    217a:	d160      	bne.n	223e <z_arm_fault+0x116>
	} else if ((SCB->HFSR & SCB_HFSR_DEBUGEVT_Msk) != 0) {
    217c:	6ada      	ldr	r2, [r3, #44]	; 0x2c
    217e:	2a00      	cmp	r2, #0
    2180:	db15      	blt.n	21ae <z_arm_fault+0x86>
	} else if ((SCB->HFSR & SCB_HFSR_FORCED_Msk) != 0) {
    2182:	6ada      	ldr	r2, [r3, #44]	; 0x2c
    2184:	0052      	lsls	r2, r2, #1
    2186:	d512      	bpl.n	21ae <z_arm_fault+0x86>
	uint16_t fault_insn = *(ret_addr - 1);
    2188:	69aa      	ldr	r2, [r5, #24]
	if (((fault_insn & 0xff00) == _SVC_OPCODE) &&
    218a:	f832 1c02 	ldrh.w	r1, [r2, #-2]
    218e:	f64d 7202 	movw	r2, #57090	; 0xdf02
    2192:	4291      	cmp	r1, r2
    2194:	d00a      	beq.n	21ac <z_arm_fault+0x84>
		} else if (SCB_MMFSR != 0) {
    2196:	f893 2028 	ldrb.w	r2, [r3, #40]	; 0x28
    219a:	b30a      	cbz	r2, 21e0 <z_arm_fault+0xb8>
			reason = mem_manage_fault(esf, 1, recoverable);
    219c:	f10d 0207 	add.w	r2, sp, #7
    21a0:	2101      	movs	r1, #1
		reason = mem_manage_fault(esf, 0, recoverable);
    21a2:	4628      	mov	r0, r5
    21a4:	f7ff ff6c 	bl	2080 <mem_manage_fault>
		reason = bus_fault(esf, 0, recoverable);
    21a8:	4604      	mov	r4, r0
		break;
    21aa:	e000      	b.n	21ae <z_arm_fault+0x86>
			reason = esf->basic.r0;
    21ac:	682c      	ldr	r4, [r5, #0]
#ifdef CONFIG_DEBUG_COREDUMP
	z_arm_coredump_fault_sp = POINTER_TO_UINT(esf);
#endif

	reason = fault_handle(esf, fault, &recoverable);
	if (recoverable) {
    21ae:	f89d 3007 	ldrb.w	r3, [sp, #7]
    21b2:	b99b      	cbnz	r3, 21dc <z_arm_fault+0xb4>
		return;
	}

	/* Copy ESF */
#if !defined(CONFIG_EXTRA_EXCEPTION_INFO)
	memcpy(&esf_copy, esf, sizeof(z_arch_esf_t));
    21b4:	2220      	movs	r2, #32
    21b6:	4629      	mov	r1, r5
    21b8:	a802      	add	r0, sp, #8
    21ba:	f003 fe58 	bl	5e6e <memcpy>
	/* Overwrite stacked IPSR to mark a nested exception,
	 * or a return to Thread mode. Note that this may be
	 * required, if the retrieved ESF contents are invalid
	 * due to, for instance, a stacking error.
	 */
	if (nested_exc) {
    21be:	9b09      	ldr	r3, [sp, #36]	; 0x24
    21c0:	2e00      	cmp	r6, #0
    21c2:	d03e      	beq.n	2242 <z_arm_fault+0x11a>
		if ((esf_copy.basic.xpsr & IPSR_ISR_Msk) == 0) {
    21c4:	f3c3 0208 	ubfx	r2, r3, #0, #9
    21c8:	b922      	cbnz	r2, 21d4 <z_arm_fault+0xac>
			esf_copy.basic.xpsr |= IPSR_ISR_Msk;
    21ca:	ea6f 2353 	mvn.w	r3, r3, lsr #9
    21ce:	ea6f 2343 	mvn.w	r3, r3, lsl #9
		}
	} else {
		esf_copy.basic.xpsr &= ~(IPSR_ISR_Msk);
    21d2:	9309      	str	r3, [sp, #36]	; 0x24
	}

	z_arm_fatal_error(reason, &esf_copy);
    21d4:	a902      	add	r1, sp, #8
    21d6:	4620      	mov	r0, r4
    21d8:	f003 fe12 	bl	5e00 <z_arm_fatal_error>
}
    21dc:	b00a      	add	sp, #40	; 0x28
    21de:	bd70      	pop	{r4, r5, r6, pc}
		} else if (SCB_BFSR != 0) {
    21e0:	f893 2029 	ldrb.w	r2, [r3, #41]	; 0x29
    21e4:	b12a      	cbz	r2, 21f2 <z_arm_fault+0xca>
			reason = bus_fault(esf, 1, recoverable);
    21e6:	f10d 0107 	add.w	r1, sp, #7
    21ea:	2001      	movs	r0, #1
		reason = bus_fault(esf, 0, recoverable);
    21ec:	f7ff ff7e 	bl	20ec <bus_fault.constprop.0>
    21f0:	e7da      	b.n	21a8 <z_arm_fault+0x80>
		} else if (SCB_UFSR != 0) {
    21f2:	8d5a      	ldrh	r2, [r3, #42]	; 0x2a
    21f4:	b292      	uxth	r2, r2
    21f6:	2a00      	cmp	r2, #0
    21f8:	d0d9      	beq.n	21ae <z_arm_fault+0x86>
	if ((SCB->CFSR & SCB_CFSR_DIVBYZERO_Msk) != 0) {
    21fa:	6a9a      	ldr	r2, [r3, #40]	; 0x28
	if ((SCB->CFSR & SCB_CFSR_UNALIGNED_Msk) != 0) {
    21fc:	6a9a      	ldr	r2, [r3, #40]	; 0x28
	if ((SCB->CFSR & SCB_CFSR_NOCP_Msk) != 0) {
    21fe:	6a9a      	ldr	r2, [r3, #40]	; 0x28
	if ((SCB->CFSR & SCB_CFSR_INVPC_Msk) != 0) {
    2200:	6a9a      	ldr	r2, [r3, #40]	; 0x28
	if ((SCB->CFSR & SCB_CFSR_INVSTATE_Msk) != 0) {
    2202:	6a9a      	ldr	r2, [r3, #40]	; 0x28
	if ((SCB->CFSR & SCB_CFSR_UNDEFINSTR_Msk) != 0) {
    2204:	6a9a      	ldr	r2, [r3, #40]	; 0x28
	SCB->CFSR |= SCB_CFSR_USGFAULTSR_Msk;
    2206:	6a9a      	ldr	r2, [r3, #40]	; 0x28
    2208:	ea6f 4202 	mvn.w	r2, r2, lsl #16
    220c:	ea6f 4212 	mvn.w	r2, r2, lsr #16
    2210:	629a      	str	r2, [r3, #40]	; 0x28
	return reason;
    2212:	e7cc      	b.n	21ae <z_arm_fault+0x86>
		reason = mem_manage_fault(esf, 0, recoverable);
    2214:	f10d 0207 	add.w	r2, sp, #7
    2218:	2100      	movs	r1, #0
    221a:	e7c2      	b.n	21a2 <z_arm_fault+0x7a>
		reason = bus_fault(esf, 0, recoverable);
    221c:	f10d 0107 	add.w	r1, sp, #7
    2220:	2000      	movs	r0, #0
    2222:	e7e3      	b.n	21ec <z_arm_fault+0xc4>
	if ((SCB->CFSR & SCB_CFSR_DIVBYZERO_Msk) != 0) {
    2224:	4b09      	ldr	r3, [pc, #36]	; (224c <z_arm_fault+0x124>)
    2226:	6a9a      	ldr	r2, [r3, #40]	; 0x28
	if ((SCB->CFSR & SCB_CFSR_UNALIGNED_Msk) != 0) {
    2228:	6a9a      	ldr	r2, [r3, #40]	; 0x28
	if ((SCB->CFSR & SCB_CFSR_NOCP_Msk) != 0) {
    222a:	6a9a      	ldr	r2, [r3, #40]	; 0x28
	if ((SCB->CFSR & SCB_CFSR_INVPC_Msk) != 0) {
    222c:	6a9a      	ldr	r2, [r3, #40]	; 0x28
	if ((SCB->CFSR & SCB_CFSR_INVSTATE_Msk) != 0) {
    222e:	6a9a      	ldr	r2, [r3, #40]	; 0x28
	if ((SCB->CFSR & SCB_CFSR_UNDEFINSTR_Msk) != 0) {
    2230:	6a9a      	ldr	r2, [r3, #40]	; 0x28
	SCB->CFSR |= SCB_CFSR_USGFAULTSR_Msk;
    2232:	6a9a      	ldr	r2, [r3, #40]	; 0x28
    2234:	ea6f 4202 	mvn.w	r2, r2, lsl #16
    2238:	ea6f 4212 	mvn.w	r2, r2, lsr #16
    223c:	629a      	str	r2, [r3, #40]	; 0x28
	uint32_t reason = K_ERR_CPU_EXCEPTION;
    223e:	2400      	movs	r4, #0
    2240:	e7b5      	b.n	21ae <z_arm_fault+0x86>
		esf_copy.basic.xpsr &= ~(IPSR_ISR_Msk);
    2242:	f423 73ff 	bic.w	r3, r3, #510	; 0x1fe
    2246:	f023 0301 	bic.w	r3, r3, #1
    224a:	e7c2      	b.n	21d2 <z_arm_fault+0xaa>
    224c:	e000ed00 	.word	0xe000ed00

00002250 <z_arm_fault_init>:
 */
void z_arm_fault_init(void)
{
#if defined(CONFIG_ARMV6_M_ARMV8_M_BASELINE)
#elif defined(CONFIG_ARMV7_M_ARMV8_M_MAINLINE)
	SCB->CCR |= SCB_CCR_DIV_0_TRP_Msk;
    2250:	4a02      	ldr	r2, [pc, #8]	; (225c <z_arm_fault_init+0xc>)
    2252:	6953      	ldr	r3, [r2, #20]
    2254:	f043 0310 	orr.w	r3, r3, #16
    2258:	6153      	str	r3, [r2, #20]
	 * Stack to attempt to descend into secure region, in which case a
	 * Secure Hard Fault will occur and we can track the fault from there.
	 */
	SCB->CCR |= SCB_CCR_STKOFHFNMIGN_Msk;
#endif /* CONFIG_BUILTIN_STACK_GUARD */
}
    225a:	4770      	bx	lr
    225c:	e000ed00 	.word	0xe000ed00

00002260 <z_arm_bus_fault>:
#else
#error Unknown ARM architecture
#endif /* CONFIG_ARMV6_M_ARMV8_M_BASELINE */
SECTION_SUBSEC_FUNC(TEXT,__fault,z_arm_exc_spurious)

	mrs r0, MSP
    2260:	f3ef 8008 	mrs	r0, MSP
	mrs r1, PSP
    2264:	f3ef 8109 	mrs	r1, PSP
	push {r0, lr}
    2268:	b501      	push	{r0, lr}
#elif defined(CONFIG_ARMV7_M_ARMV8_M_MAINLINE)
	push {r4-r11}
#endif
	mov  r3, sp /* pointer to _callee_saved_t */
#endif /* CONFIG_EXTRA_EXCEPTION_INFO */
	mov r2, lr /* EXC_RETURN */
    226a:	4672      	mov	r2, lr
	bl z_arm_fault
    226c:	f7ff ff5c 	bl	2128 <z_arm_fault>
	 * in this routine. Therefore, we can just reset
	 * the MSP to its value prior to entering the function
	 */
	add sp, #40
#endif
	pop {r0, pc}
    2270:	bd01      	pop	{r0, pc}
    2272:	bf00      	nop

00002274 <z_arm_interrupt_init>:
    2274:	4804      	ldr	r0, [pc, #16]	; (2288 <z_arm_interrupt_init+0x14>)
 *
 */

void z_arm_interrupt_init(void)
{
	int irq = 0;
    2276:	2300      	movs	r3, #0
    2278:	2120      	movs	r1, #32
    227a:	18c2      	adds	r2, r0, r3

	for (; irq < CONFIG_NUM_IRQS; irq++) {
    227c:	3301      	adds	r3, #1
    227e:	2b27      	cmp	r3, #39	; 0x27
    2280:	f882 1300 	strb.w	r1, [r2, #768]	; 0x300
    2284:	d1f9      	bne.n	227a <z_arm_interrupt_init+0x6>
		NVIC_SetPriority((IRQn_Type)irq, _IRQ_PRIO_OFFSET);
	}
}
    2286:	4770      	bx	lr
    2288:	e000e100 	.word	0xe000e100

0000228c <__start>:
#endif /* CONFIG_CPU_CORTEX_M_HAS_SPLIM */

#endif /* CONFIG_INIT_ARCH_HW_AT_BOOT */

#if defined(CONFIG_PLATFORM_SPECIFIC_INIT)
    bl z_arm_platform_init
    228c:	f004 fd0c 	bl	6ca8 <z_arm_platform_init>

    /* lock interrupts: will get unlocked when switch to main task */
#if defined(CONFIG_ARMV6_M_ARMV8_M_BASELINE)
    cpsid i
#elif defined(CONFIG_ARMV7_M_ARMV8_M_MAINLINE)
    movs.n r0, #_EXC_IRQ_DEFAULT_PRIO
    2290:	2020      	movs	r0, #32
    msr BASEPRI, r0
    2292:	f380 8811 	msr	BASEPRI, r0

    /*
     * Set PSP and use it to boot without using MSP, so that it
     * gets set to z_interrupt_stacks during initialization.
     */
    ldr r0, =z_interrupt_stacks
    2296:	4808      	ldr	r0, [pc, #32]	; (22b8 <__start+0x2c>)
    ldr r1, =CONFIG_ISR_STACK_SIZE + MPU_GUARD_ALIGN_AND_SIZE
    2298:	f44f 6102 	mov.w	r1, #2080	; 0x820
    adds r0, r0, r1
    229c:	1840      	adds	r0, r0, r1
    msr PSP, r0
    229e:	f380 8809 	msr	PSP, r0
    mrs r0, CONTROL
    22a2:	f3ef 8014 	mrs	r0, CONTROL
    movs r1, #2
    22a6:	2102      	movs	r1, #2
    orrs r0, r1 /* CONTROL_SPSEL_Msk */
    22a8:	4308      	orrs	r0, r1
    msr CONTROL, r0
    22aa:	f380 8814 	msr	CONTROL, r0
    /*
     * When changing the stack pointer, software must use an ISB instruction
     * immediately after the MSR instruction. This ensures that instructions
     * after the ISB instruction execute using the new stack pointer.
     */
    isb
    22ae:	f3bf 8f6f 	isb	sy
    /*
     * 'bl' jumps the furthest of the branch instructions that are
     * supported on all platforms. So it is used when jumping to z_arm_prep_c
     * (even though we do not intend to return).
     */
    bl z_arm_prep_c
    22b2:	f7ff fdf7 	bl	1ea4 <z_arm_prep_c>
    22b6:	0000      	.short	0x0000
    ldr r0, =z_interrupt_stacks
    22b8:	20001020 	.word	0x20001020

000022bc <z_impl_k_thread_abort>:
#include <wait_q.h>
#include <sys/__assert.h>

void z_impl_k_thread_abort(k_tid_t thread)
{
	if (_current == thread) {
    22bc:	4b06      	ldr	r3, [pc, #24]	; (22d8 <z_impl_k_thread_abort+0x1c>)
    22be:	689b      	ldr	r3, [r3, #8]
    22c0:	4283      	cmp	r3, r0
    22c2:	d107      	bne.n	22d4 <z_impl_k_thread_abort+0x18>
  __ASM volatile ("MRS %0, ipsr" : "=r" (result) );
    22c4:	f3ef 8305 	mrs	r3, IPSR
		if (arch_is_in_isr()) {
    22c8:	b123      	cbz	r3, 22d4 <z_impl_k_thread_abort+0x18>
			 * should no longer run after we return, so
			 * Trigger PendSV, in case we are in one of the
			 * situations where the isr check is true but there
			 * is not an implicit scheduler invocation.
			 */
			SCB->ICSR |= SCB_ICSR_PENDSVSET_Msk;
    22ca:	4a04      	ldr	r2, [pc, #16]	; (22dc <z_impl_k_thread_abort+0x20>)
    22cc:	6853      	ldr	r3, [r2, #4]
    22ce:	f043 5380 	orr.w	r3, r3, #268435456	; 0x10000000
    22d2:	6053      	str	r3, [r2, #4]
		}
	}

	z_thread_abort(thread);
    22d4:	f003 b9a0 	b.w	5618 <z_thread_abort>
    22d8:	200005fc 	.word	0x200005fc
    22dc:	e000ed00 	.word	0xe000ed00

000022e0 <z_arm_configure_static_mpu_regions>:
	/* Configure the static MPU regions within firmware SRAM boundaries.
	 * Start address of the image is given by _image_ram_start. The end
	 * of the firmware SRAM area is marked by __kernel_ram_end, taking
	 * into account the unused SRAM area, as well.
	 */
	arm_core_mpu_configure_static_mpu_regions(static_regions,
    22e0:	4b02      	ldr	r3, [pc, #8]	; (22ec <z_arm_configure_static_mpu_regions+0xc>)
    22e2:	4a03      	ldr	r2, [pc, #12]	; (22f0 <z_arm_configure_static_mpu_regions+0x10>)
    22e4:	4803      	ldr	r0, [pc, #12]	; (22f4 <z_arm_configure_static_mpu_regions+0x14>)
    22e6:	2101      	movs	r1, #1
    22e8:	f000 b86e 	b.w	23c8 <arm_core_mpu_configure_static_mpu_regions>
    22ec:	20010000 	.word	0x20010000
    22f0:	20000000 	.word	0x20000000
    22f4:	00007058 	.word	0x00007058

000022f8 <z_arm_configure_dynamic_mpu_regions>:
#endif /* CONFIG_USERSPACE */
	{
		/* A supervisor thread only has the normal thread stack to
		 * protect with a stack guard.
		 */
		guard_start = thread->stack_info.start - guard_size;
    22f8:	6e42      	ldr	r2, [r0, #100]	; 0x64
	}

	__ASSERT(region_num < _MAX_DYNAMIC_MPU_REGIONS_NUM,
		"Out-of-bounds error for dynamic region map.");

	dynamic_regions[region_num].start = guard_start;
    22fa:	4b05      	ldr	r3, [pc, #20]	; (2310 <z_arm_configure_dynamic_mpu_regions+0x18>)
		guard_start = thread->stack_info.start - guard_size;
    22fc:	3a20      	subs	r2, #32
	dynamic_regions[region_num].start = guard_start;
    22fe:	601a      	str	r2, [r3, #0]
	dynamic_regions[region_num].size = guard_size;
	dynamic_regions[region_num].attr = K_MEM_PARTITION_P_RO_U_NA;
    2300:	4a04      	ldr	r2, [pc, #16]	; (2314 <z_arm_configure_dynamic_mpu_regions+0x1c>)
    2302:	2120      	movs	r1, #32
    2304:	e9c3 1201 	strd	r1, r2, [r3, #4]

	region_num++;
#endif /* CONFIG_MPU_STACK_GUARD */

	/* Configure the dynamic MPU regions */
	arm_core_mpu_configure_dynamic_mpu_regions(dynamic_regions,
    2308:	4618      	mov	r0, r3
    230a:	2101      	movs	r1, #1
    230c:	f000 b866 	b.w	23dc <arm_core_mpu_configure_dynamic_mpu_regions>
    2310:	20000450 	.word	0x20000450
    2314:	150b0000 	.word	0x150b0000

00002318 <mpu_configure_regions>:
 * sanity check of the memory regions to be programmed.
 */
static int mpu_configure_regions(const struct z_arm_mpu_partition
	regions[], uint8_t regions_num, uint8_t start_reg_index,
	bool do_sanity_check)
{
    2318:	b5f0      	push	{r4, r5, r6, r7, lr}
#endif /* CPU_CORTEX_M0PLUS | CPU_CORTEX_M3 | CPU_CORTEX_M4 */
}

static inline void set_region_number(uint32_t index)
{
	MPU->RNR = index;
    231a:	4f1f      	ldr	r7, [pc, #124]	; (2398 <mpu_configure_regions+0x80>)
	int i;
	int reg_index = start_reg_index;

	for (i = 0; i < regions_num; i++) {
    231c:	2600      	movs	r6, #0
    231e:	428e      	cmp	r6, r1
    2320:	db01      	blt.n	2326 <mpu_configure_regions+0xe>
		/* Increment number of programmed MPU indices. */
		reg_index++;
	}

	return reg_index;
}
    2322:	4610      	mov	r0, r2
    2324:	bdf0      	pop	{r4, r5, r6, r7, pc}
		if (regions[i].size == 0U) {
    2326:	6844      	ldr	r4, [r0, #4]
    2328:	b39c      	cbz	r4, 2392 <mpu_configure_regions+0x7a>
		if (do_sanity_check &&
    232a:	b153      	cbz	r3, 2342 <mpu_configure_regions+0x2a>
	 * and greater or equal to the minimum
	 * MPU region size. Start address of the
	 * partition must align with size.
	 */
	int partition_is_valid =
		((part->size & (part->size - 1U)) == 0U)
    232c:	f104 3cff 	add.w	ip, r4, #4294967295	; 0xffffffff
		&&
		(part->size >= CONFIG_ARM_MPU_REGION_MIN_ALIGN_AND_SIZE)
		&&
    2330:	ea14 0f0c 	tst.w	r4, ip
    2334:	d118      	bne.n	2368 <mpu_configure_regions+0x50>
		&&
    2336:	2c1f      	cmp	r4, #31
    2338:	d916      	bls.n	2368 <mpu_configure_regions+0x50>
		((part->start & (part->size - 1U)) == 0U);
    233a:	6805      	ldr	r5, [r0, #0]
		&&
    233c:	ea1c 0f05 	tst.w	ip, r5
    2340:	d112      	bne.n	2368 <mpu_configure_regions+0x50>
 * to that power-of-two value.
 */
static inline uint32_t size_to_mpu_rasr_size(uint32_t size)
{
	/* The minimal supported region size is 32 bytes */
	if (size <= 32U) {
    2342:	2c20      	cmp	r4, #32
	region_conf.base = new_region->start;
    2344:	6805      	ldr	r5, [r0, #0]
#if defined(CONFIG_CPU_CORTEX_R)
	(void) size;

	p_attr->rasr = attr->rasr_attr;
#else
	p_attr->rasr = attr->rasr_attr | size_to_mpu_rasr_size(size);
    2346:	f8d0 c008 	ldr.w	ip, [r0, #8]
		reg_index = mpu_configure_region(reg_index, &regions[i]);
    234a:	b2d2      	uxtb	r2, r2
	if (size <= 32U) {
    234c:	d90f      	bls.n	236e <mpu_configure_regions+0x56>
	if (size > (1UL << 31)) {
    234e:	f1b4 4f00 	cmp.w	r4, #2147483648	; 0x80000000
    2352:	d80e      	bhi.n	2372 <mpu_configure_regions+0x5a>
	return ((32 - __builtin_clz(size - 1U) - 2 + 1) << MPU_RASR_SIZE_Pos) &
    2354:	3c01      	subs	r4, #1
    2356:	fab4 f484 	clz	r4, r4
    235a:	f1c4 041f 	rsb	r4, r4, #31
    235e:	0064      	lsls	r4, r4, #1
	if (index > (get_num_regions() - 1U)) {
    2360:	2a07      	cmp	r2, #7
	p_attr->rasr = attr->rasr_attr | size_to_mpu_rasr_size(size);
    2362:	ea4c 0404 	orr.w	r4, ip, r4
    2366:	d906      	bls.n	2376 <mpu_configure_regions+0x5e>
			return -EINVAL;
    2368:	f06f 0215 	mvn.w	r2, #21
    236c:	e7d9      	b.n	2322 <mpu_configure_regions+0xa>
		return REGION_32B;
    236e:	2408      	movs	r4, #8
    2370:	e7f6      	b.n	2360 <mpu_configure_regions+0x48>
		return REGION_4G;
    2372:	243e      	movs	r4, #62	; 0x3e
    2374:	e7f4      	b.n	2360 <mpu_configure_regions+0x48>
	MPU->RBAR = (region_conf->base & MPU_RBAR_ADDR_Msk)
    2376:	f025 051f 	bic.w	r5, r5, #31
				| MPU_RBAR_VALID_Msk | index;
    237a:	4315      	orrs	r5, r2
    237c:	f045 0510 	orr.w	r5, r5, #16
	MPU->RASR = region_conf->attr.rasr | MPU_RASR_ENABLE_Msk;
    2380:	f044 0401 	orr.w	r4, r4, #1
    2384:	f8c7 2098 	str.w	r2, [r7, #152]	; 0x98
	MPU->RBAR = (region_conf->base & MPU_RBAR_ADDR_Msk)
    2388:	f8c7 509c 	str.w	r5, [r7, #156]	; 0x9c
		reg_index++;
    238c:	3201      	adds	r2, #1
	MPU->RASR = region_conf->attr.rasr | MPU_RASR_ENABLE_Msk;
    238e:	f8c7 40a0 	str.w	r4, [r7, #160]	; 0xa0
	for (i = 0; i < regions_num; i++) {
    2392:	3601      	adds	r6, #1
    2394:	300c      	adds	r0, #12
    2396:	e7c2      	b.n	231e <mpu_configure_regions+0x6>
    2398:	e000ed00 	.word	0xe000ed00

0000239c <arm_core_mpu_enable>:
void arm_core_mpu_enable(void)
{
	/* Enable MPU and use the default memory map as a
	 * background region for privileged software access.
	 */
	MPU->CTRL = MPU_CTRL_ENABLE_Msk | MPU_CTRL_PRIVDEFENA_Msk;
    239c:	4b04      	ldr	r3, [pc, #16]	; (23b0 <arm_core_mpu_enable+0x14>)
    239e:	2205      	movs	r2, #5
    23a0:	f8c3 2094 	str.w	r2, [r3, #148]	; 0x94
  __ASM volatile ("dsb 0xF":::"memory");
    23a4:	f3bf 8f4f 	dsb	sy
  __ASM volatile ("isb 0xF":::"memory");
    23a8:	f3bf 8f6f 	isb	sy

	/* Make sure that all the registers are set before proceeding */
	__DSB();
	__ISB();
}
    23ac:	4770      	bx	lr
    23ae:	bf00      	nop
    23b0:	e000ed00 	.word	0xe000ed00

000023b4 <arm_core_mpu_disable>:
  __ASM volatile ("dmb 0xF":::"memory");
    23b4:	f3bf 8f5f 	dmb	sy
{
	/* Force any outstanding transfers to complete before disabling MPU */
	__DMB();

	/* Disable MPU */
	MPU->CTRL = 0;
    23b8:	4b02      	ldr	r3, [pc, #8]	; (23c4 <arm_core_mpu_disable+0x10>)
    23ba:	2200      	movs	r2, #0
    23bc:	f8c3 2094 	str.w	r2, [r3, #148]	; 0x94
}
    23c0:	4770      	bx	lr
    23c2:	bf00      	nop
    23c4:	e000ed00 	.word	0xe000ed00

000023c8 <arm_core_mpu_configure_static_mpu_regions>:
 * @brief configure fixed (static) MPU regions.
 */
void arm_core_mpu_configure_static_mpu_regions(const struct z_arm_mpu_partition
	static_regions[], const uint8_t regions_num,
	const uint32_t background_area_start, const uint32_t background_area_end)
{
    23c8:	b510      	push	{r4, lr}
static int mpu_configure_static_mpu_regions(const struct z_arm_mpu_partition
	static_regions[], const uint8_t regions_num,
	const uint32_t background_area_base,
	const uint32_t background_area_end)
{
	int mpu_reg_index = static_regions_num;
    23ca:	4c03      	ldr	r4, [pc, #12]	; (23d8 <arm_core_mpu_configure_static_mpu_regions+0x10>)
	 * programmed on top of SRAM region configuration.
	 */
	ARG_UNUSED(background_area_base);
	ARG_UNUSED(background_area_end);

	mpu_reg_index = mpu_configure_regions(static_regions,
    23cc:	2301      	movs	r3, #1
    23ce:	7822      	ldrb	r2, [r4, #0]
    23d0:	f7ff ffa2 	bl	2318 <mpu_configure_regions>
		regions_num, mpu_reg_index, true);

	static_regions_num = mpu_reg_index;
    23d4:	7020      	strb	r0, [r4, #0]
					       background_area_start, background_area_end) == -EINVAL) {

		__ASSERT(0, "Configuring %u static MPU regions failed\n",
			regions_num);
	}
}
    23d6:	bd10      	pop	{r4, pc}
    23d8:	2000064e 	.word	0x2000064e

000023dc <arm_core_mpu_configure_dynamic_mpu_regions>:
/**
 * @brief configure dynamic MPU regions.
 */
void arm_core_mpu_configure_dynamic_mpu_regions(const struct z_arm_mpu_partition
	dynamic_regions[], uint8_t regions_num)
{
    23dc:	b508      	push	{r3, lr}

	/* In ARMv7-M architecture the dynamic regions are
	 * programmed on top of existing SRAM region configuration.
	 */

	mpu_reg_index = mpu_configure_regions(dynamic_regions,
    23de:	4a09      	ldr	r2, [pc, #36]	; (2404 <arm_core_mpu_configure_dynamic_mpu_regions+0x28>)
    23e0:	2300      	movs	r3, #0
    23e2:	7812      	ldrb	r2, [r2, #0]
    23e4:	f7ff ff98 	bl	2318 <mpu_configure_regions>
		regions_num, mpu_reg_index, false);

	if (mpu_reg_index != -EINVAL) {
    23e8:	f110 0f16 	cmn.w	r0, #22
    23ec:	d002      	beq.n	23f4 <arm_core_mpu_configure_dynamic_mpu_regions+0x18>
/** Clear and disable the given MPU region.
* \param rnr Region number to be cleared.
*/
__STATIC_INLINE void ARM_MPU_ClrRegion(uint32_t rnr)
{
  MPU->RNR = rnr;
    23ee:	4a06      	ldr	r2, [pc, #24]	; (2408 <arm_core_mpu_configure_dynamic_mpu_regions+0x2c>)

		/* Disable the non-programmed MPU regions. */
		for (int i = mpu_reg_index; i < get_num_regions(); i++) {
    23f0:	2807      	cmp	r0, #7
    23f2:	dd00      	ble.n	23f6 <arm_core_mpu_configure_dynamic_mpu_regions+0x1a>
		== -EINVAL) {

		__ASSERT(0, "Configuring %u dynamic MPU regions failed\n",
			regions_num);
	}
}
    23f4:	bd08      	pop	{r3, pc}
    23f6:	f8c2 0098 	str.w	r0, [r2, #152]	; 0x98
  MPU->RASR = 0U;
    23fa:	f8c2 30a0 	str.w	r3, [r2, #160]	; 0xa0
    23fe:	3001      	adds	r0, #1
    2400:	e7f6      	b.n	23f0 <arm_core_mpu_configure_dynamic_mpu_regions+0x14>
    2402:	bf00      	nop
    2404:	2000064e 	.word	0x2000064e
    2408:	e000ed00 	.word	0xe000ed00

0000240c <z_arm_mpu_init>:
 */
int z_arm_mpu_init(void)
{
	uint32_t r_index;

	if (mpu_config.num_regions > get_num_regions()) {
    240c:	4914      	ldr	r1, [pc, #80]	; (2460 <z_arm_mpu_init+0x54>)
    240e:	6808      	ldr	r0, [r1, #0]
    2410:	2808      	cmp	r0, #8
{
    2412:	b510      	push	{r4, lr}
	if (mpu_config.num_regions > get_num_regions()) {
    2414:	d821      	bhi.n	245a <z_arm_mpu_init+0x4e>
		return -1;
	}

	LOG_DBG("total region count: %d", get_num_regions());

	arm_core_mpu_disable();
    2416:	f7ff ffcd 	bl	23b4 <arm_core_mpu_disable>
    241a:	4c12      	ldr	r4, [pc, #72]	; (2464 <z_arm_mpu_init+0x58>)
    241c:	6849      	ldr	r1, [r1, #4]

	/* Architecture-specific configuration */
	mpu_init();

	/* Program fixed regions configured at SOC definition. */
	for (r_index = 0U; r_index < mpu_config.num_regions; r_index++) {
    241e:	2200      	movs	r2, #0
    2420:	4290      	cmp	r0, r2
    2422:	f101 010c 	add.w	r1, r1, #12
    2426:	d105      	bne.n	2434 <z_arm_mpu_init+0x28>
		region_init(r_index, &mpu_config.mpu_regions[r_index]);
	}

	/* Update the number of programmed MPU regions. */
	static_regions_num = mpu_config.num_regions;
    2428:	4b0f      	ldr	r3, [pc, #60]	; (2468 <z_arm_mpu_init+0x5c>)
    242a:	7018      	strb	r0, [r3, #0]


	arm_core_mpu_enable();
    242c:	f7ff ffb6 	bl	239c <arm_core_mpu_enable>
		(MPU->TYPE & MPU_TYPE_DREGION_Msk) >> MPU_TYPE_DREGION_Pos ==
		NUM_MPU_REGIONS,
		"Invalid number of MPU regions\n");
#endif /* CORTEX_M0PLUS || CPU_CORTEX_M3 || CPU_CORTEX_M4 */

	return 0;
    2430:	2000      	movs	r0, #0
}
    2432:	bd10      	pop	{r4, pc}
    2434:	f8c4 2098 	str.w	r2, [r4, #152]	; 0x98
	MPU->RBAR = (region_conf->base & MPU_RBAR_ADDR_Msk)
    2438:	f851 3c0c 	ldr.w	r3, [r1, #-12]
    243c:	f023 031f 	bic.w	r3, r3, #31
				| MPU_RBAR_VALID_Msk | index;
    2440:	4313      	orrs	r3, r2
    2442:	f043 0310 	orr.w	r3, r3, #16
	MPU->RBAR = (region_conf->base & MPU_RBAR_ADDR_Msk)
    2446:	f8c4 309c 	str.w	r3, [r4, #156]	; 0x9c
	MPU->RASR = region_conf->attr.rasr | MPU_RASR_ENABLE_Msk;
    244a:	f851 3c04 	ldr.w	r3, [r1, #-4]
    244e:	f043 0301 	orr.w	r3, r3, #1
    2452:	f8c4 30a0 	str.w	r3, [r4, #160]	; 0xa0
	for (r_index = 0U; r_index < mpu_config.num_regions; r_index++) {
    2456:	3201      	adds	r2, #1
    2458:	e7e2      	b.n	2420 <z_arm_mpu_init+0x14>
		return -1;
    245a:	f04f 30ff 	mov.w	r0, #4294967295	; 0xffffffff
    245e:	e7e8      	b.n	2432 <z_arm_mpu_init+0x26>
    2460:	00007064 	.word	0x00007064
    2464:	e000ed00 	.word	0xe000ed00
    2468:	2000064e 	.word	0x2000064e

0000246c <__stdout_hook_install>:

static int (*_stdout_hook)(int) = _stdout_hook_default;

void __stdout_hook_install(int (*hook)(int))
{
	_stdout_hook = hook;
    246c:	4b01      	ldr	r3, [pc, #4]	; (2474 <__stdout_hook_install+0x8>)
    246e:	6018      	str	r0, [r3, #0]
}
    2470:	4770      	bx	lr
    2472:	bf00      	nop
    2474:	20000004 	.word	0x20000004

00002478 <nordicsemi_nrf52_init>:
	__asm__ volatile(
    2478:	f04f 0220 	mov.w	r2, #32
    247c:	f3ef 8311 	mrs	r3, BASEPRI
    2480:	f382 8812 	msr	BASEPRI_MAX, r2
    2484:	f3bf 8f6f 	isb	sy

	key = irq_lock();

#ifdef CONFIG_NRF_ENABLE_ICACHE
	/* Enable the instruction cache */
	NRF_NVMC->ICACHECNF = NVMC_ICACHECNF_CACHEEN_Msk;
    2488:	4a04      	ldr	r2, [pc, #16]	; (249c <nordicsemi_nrf52_init+0x24>)
    248a:	2101      	movs	r1, #1
    248c:	f8c2 1540 	str.w	r1, [r2, #1344]	; 0x540
	__asm__ volatile(
    2490:	f383 8811 	msr	BASEPRI, r3
    2494:	f3bf 8f6f 	isb	sy
	NMI_INIT();

	irq_unlock(key);

	return 0;
}
    2498:	2000      	movs	r0, #0
    249a:	4770      	bx	lr
    249c:	4001e000 	.word	0x4001e000

000024a0 <arch_busy_wait>:

#else // NRFX_CHECK(NRFX_DELAY_DWT_BASED)

NRF_STATIC_INLINE void nrfx_coredep_delay_us(uint32_t time_us)
{
    if (time_us == 0)
    24a0:	b120      	cbz	r0, 24ac <arch_busy_wait+0xc>
    };

    typedef void (* delay_func_t)(uint32_t);
    const delay_func_t delay_cycles =
        // Set LSB to 1 to execute the code in the Thumb mode.
        (delay_func_t)((((uint32_t)delay_machine_code) | 1));
    24a2:	4b03      	ldr	r3, [pc, #12]	; (24b0 <arch_busy_wait+0x10>)
    uint32_t cycles = time_us * NRFX_DELAY_CPU_FREQ_MHZ;
    delay_cycles(cycles);
    24a4:	0180      	lsls	r0, r0, #6
    24a6:	f043 0301 	orr.w	r3, r3, #1
    24aa:	4718      	bx	r3

void arch_busy_wait(uint32_t time_us)
{
	nrfx_coredep_delay_us(time_us);
}
    24ac:	4770      	bx	lr
    24ae:	bf00      	nop
    24b0:	00007050 	.word	0x00007050

000024b4 <pwr_ctrl_init>:
	const char *port;
	uint32_t pin;
};

static int pwr_ctrl_init(const struct device *dev)
{
    24b4:	b538      	push	{r3, r4, r5, lr}
	const struct pwr_ctrl_cfg *cfg = dev->config;
    24b6:	6844      	ldr	r4, [r0, #4]
	const struct device *gpio;

	gpio = device_get_binding(cfg->port);
    24b8:	6820      	ldr	r0, [r4, #0]
    24ba:	f002 faa5 	bl	4a08 <z_impl_device_get_binding>
	if (!gpio) {
    24be:	b930      	cbnz	r0, 24ce <pwr_ctrl_init+0x1a>
		printk("Could not bind device \"%s\"\n", cfg->port);
    24c0:	480d      	ldr	r0, [pc, #52]	; (24f8 <pwr_ctrl_init+0x44>)
    24c2:	6821      	ldr	r1, [r4, #0]
    24c4:	f003 faa7 	bl	5a16 <printk>
		return -ENODEV;
    24c8:	f06f 0012 	mvn.w	r0, #18
	gpio_pin_configure(gpio, cfg->pin, GPIO_OUTPUT_HIGH);

	k_sleep(K_MSEC(1)); /* Wait for the rail to come up and stabilize */

	return 0;
}
    24cc:	bd38      	pop	{r3, r4, r5, pc}
	gpio_pin_configure(gpio, cfg->pin, GPIO_OUTPUT_HIGH);
    24ce:	6861      	ldr	r1, [r4, #4]
{
	const struct gpio_driver_api *api =
		(const struct gpio_driver_api *)port->api;
	const struct gpio_driver_config *const cfg =
		(const struct gpio_driver_config *)port->config;
	struct gpio_driver_data *data =
    24d0:	6904      	ldr	r4, [r0, #16]
	const struct gpio_driver_api *api =
    24d2:	6885      	ldr	r5, [r0, #8]
		 "Unsupported pin");

	if ((flags & GPIO_ACTIVE_LOW) != 0) {
		data->invert |= (gpio_port_pins_t)BIT(pin);
	} else {
		data->invert &= ~(gpio_port_pins_t)BIT(pin);
    24d4:	b2c9      	uxtb	r1, r1
    24d6:	2301      	movs	r3, #1
    24d8:	fa03 f201 	lsl.w	r2, r3, r1
    24dc:	6823      	ldr	r3, [r4, #0]
    24de:	ea23 0302 	bic.w	r3, r3, r2
    24e2:	6023      	str	r3, [r4, #0]
	}

	return api->pin_configure(port, pin, flags);
    24e4:	f44f 6220 	mov.w	r2, #2560	; 0xa00
    24e8:	682b      	ldr	r3, [r5, #0]
    24ea:	4798      	blx	r3
    24ec:	2021      	movs	r0, #33	; 0x21
    24ee:	2100      	movs	r1, #0
    24f0:	f003 f872 	bl	55d8 <z_impl_k_sleep>
	return 0;
    24f4:	2000      	movs	r0, #0
    24f6:	e7e9      	b.n	24cc <pwr_ctrl_init+0x18>
    24f8:	000073bc 	.word	0x000073bc

000024fc <onoff_stop>:
}

static clock_control_subsys_t get_subsys(struct onoff_manager *mgr)
{
	struct nrf_clock_control_data *data = CLOCK_DEVICE->data;
	size_t offset = (size_t)(mgr - data->mgr);
    24fc:	4b08      	ldr	r3, [pc, #32]	; (2520 <onoff_stop+0x24>)
	return (clock_control_subsys_t)offset;
}

static void onoff_stop(struct onoff_manager *mgr,
			onoff_notify_fn notify)
{
    24fe:	b570      	push	{r4, r5, r6, lr}
	size_t offset = (size_t)(mgr - data->mgr);
    2500:	1ac3      	subs	r3, r0, r3
{
    2502:	460d      	mov	r5, r1
	int res;

	res = stop(CLOCK_DEVICE, get_subsys(mgr), CTX_ONOFF);
    2504:	4907      	ldr	r1, [pc, #28]	; (2524 <onoff_stop+0x28>)
	size_t offset = (size_t)(mgr - data->mgr);
    2506:	109b      	asrs	r3, r3, #2
{
    2508:	4604      	mov	r4, r0
	res = stop(CLOCK_DEVICE, get_subsys(mgr), CTX_ONOFF);
    250a:	4359      	muls	r1, r3
    250c:	4806      	ldr	r0, [pc, #24]	; (2528 <onoff_stop+0x2c>)
    250e:	2240      	movs	r2, #64	; 0x40
    2510:	f003 fcfe 	bl	5f10 <stop>
	notify(mgr, res);
    2514:	462b      	mov	r3, r5
	res = stop(CLOCK_DEVICE, get_subsys(mgr), CTX_ONOFF);
    2516:	4601      	mov	r1, r0
	notify(mgr, res);
    2518:	4620      	mov	r0, r4
}
    251a:	e8bd 4070 	ldmia.w	sp!, {r4, r5, r6, lr}
	notify(mgr, res);
    251e:	4718      	bx	r3
    2520:	2000046c 	.word	0x2000046c
    2524:	b6db6db7 	.word	0xb6db6db7
    2528:	00006d4c 	.word	0x00006d4c

0000252c <onoff_start>:
	notify(mgr, 0);
}

static void onoff_start(struct onoff_manager *mgr,
			onoff_notify_fn notify)
{
    252c:	b573      	push	{r0, r1, r4, r5, r6, lr}
	size_t offset = (size_t)(mgr - data->mgr);
    252e:	4c0c      	ldr	r4, [pc, #48]	; (2560 <onoff_start+0x34>)
	int err;

	err = async_start(CLOCK_DEVICE, get_subsys(mgr),
    2530:	4a0c      	ldr	r2, [pc, #48]	; (2564 <onoff_start+0x38>)
    2532:	2340      	movs	r3, #64	; 0x40
	size_t offset = (size_t)(mgr - data->mgr);
    2534:	1b04      	subs	r4, r0, r4
	err = async_start(CLOCK_DEVICE, get_subsys(mgr),
    2536:	9300      	str	r3, [sp, #0]
{
    2538:	460d      	mov	r5, r1
	err = async_start(CLOCK_DEVICE, get_subsys(mgr),
    253a:	460b      	mov	r3, r1
    253c:	490a      	ldr	r1, [pc, #40]	; (2568 <onoff_start+0x3c>)
	size_t offset = (size_t)(mgr - data->mgr);
    253e:	10a4      	asrs	r4, r4, #2
	err = async_start(CLOCK_DEVICE, get_subsys(mgr),
    2540:	4361      	muls	r1, r4
{
    2542:	4606      	mov	r6, r0
	err = async_start(CLOCK_DEVICE, get_subsys(mgr),
    2544:	4809      	ldr	r0, [pc, #36]	; (256c <onoff_start+0x40>)
    2546:	f003 fd0f 	bl	5f68 <async_start>
			  onoff_started_callback, notify, CTX_ONOFF);
	if (err < 0) {
    254a:	1e01      	subs	r1, r0, #0
    254c:	da05      	bge.n	255a <onoff_start+0x2e>
		notify(mgr, err);
    254e:	4630      	mov	r0, r6
    2550:	462b      	mov	r3, r5
	}
}
    2552:	b002      	add	sp, #8
    2554:	e8bd 4070 	ldmia.w	sp!, {r4, r5, r6, lr}
		notify(mgr, err);
    2558:	4718      	bx	r3
}
    255a:	b002      	add	sp, #8
    255c:	bd70      	pop	{r4, r5, r6, pc}
    255e:	bf00      	nop
    2560:	2000046c 	.word	0x2000046c
    2564:	00005fd9 	.word	0x00005fd9
    2568:	b6db6db7 	.word	0xb6db6db7
    256c:	00006d4c 	.word	0x00006d4c

00002570 <clk_init>:
	static const struct onoff_transitions transitions = {
		.start = onoff_start,
		.stop = onoff_stop
	};

	IRQ_CONNECT(DT_INST_IRQN(0), DT_INST_IRQ(0, priority),
    2570:	2200      	movs	r2, #0
{
    2572:	b570      	push	{r4, r5, r6, lr}
	IRQ_CONNECT(DT_INST_IRQN(0), DT_INST_IRQ(0, priority),
    2574:	2101      	movs	r1, #1
{
    2576:	4604      	mov	r4, r0
	IRQ_CONNECT(DT_INST_IRQN(0), DT_INST_IRQ(0, priority),
    2578:	4610      	mov	r0, r2
    257a:	f7ff fc77 	bl	1e6c <z_arm_irq_priority_set>
		    nrfx_isr, nrfx_power_clock_irq_handler, 0);
	irq_enable(DT_INST_IRQN(0));
    257e:	2000      	movs	r0, #0
    2580:	f7ff fc56 	bl	1e30 <arch_irq_enable>

	nrfx_err = nrfx_clock_init(clock_event_handler);
    2584:	480f      	ldr	r0, [pc, #60]	; (25c4 <clk_init+0x54>)
    2586:	f001 fab9 	bl	3afc <nrfx_clock_init>
	if (nrfx_err != NRFX_SUCCESS) {
    258a:	4b0f      	ldr	r3, [pc, #60]	; (25c8 <clk_init+0x58>)
    258c:	4298      	cmp	r0, r3
    258e:	d115      	bne.n	25bc <clk_init+0x4c>
		struct nrf_clock_control_data *data = dev->data;

		z_nrf_clock_calibration_init(data->mgr);
	}

	nrfx_clock_enable();
    2590:	f004 f95f 	bl	6852 <nrfx_clock_enable>
	struct nrf_clock_control_data *data = dev->data;
    2594:	6926      	ldr	r6, [r4, #16]
	for (enum clock_control_nrf_type i = 0;
		i < CLOCK_CONTROL_NRF_TYPE_COUNT; i++) {
		struct nrf_clock_control_sub_data *subdata =
						get_sub_data(dev, i);

		err = onoff_manager_init(get_onoff_manager(dev, i),
    2596:	490d      	ldr	r1, [pc, #52]	; (25cc <clk_init+0x5c>)
    2598:	4630      	mov	r0, r6
    259a:	f003 fa98 	bl	5ace <onoff_manager_init>
					 &transitions);
		if (err < 0) {
    259e:	2800      	cmp	r0, #0
    25a0:	db0b      	blt.n	25ba <clk_init+0x4a>
	struct nrf_clock_control_data *data = dev->data;
    25a2:	6924      	ldr	r4, [r4, #16]
		err = onoff_manager_init(get_onoff_manager(dev, i),
    25a4:	4909      	ldr	r1, [pc, #36]	; (25cc <clk_init+0x5c>)
			return err;
		}

		subdata->flags = CLOCK_CONTROL_STATUS_OFF;
    25a6:	2501      	movs	r5, #1
    25a8:	6435      	str	r5, [r6, #64]	; 0x40
		err = onoff_manager_init(get_onoff_manager(dev, i),
    25aa:	f104 001c 	add.w	r0, r4, #28
    25ae:	f003 fa8e 	bl	5ace <onoff_manager_init>
		if (err < 0) {
    25b2:	2800      	cmp	r0, #0
    25b4:	db01      	blt.n	25ba <clk_init+0x4a>
		subdata->flags = CLOCK_CONTROL_STATUS_OFF;
    25b6:	64e5      	str	r5, [r4, #76]	; 0x4c
	}

	return 0;
    25b8:	2000      	movs	r0, #0
}
    25ba:	bd70      	pop	{r4, r5, r6, pc}
		return -EIO;
    25bc:	f06f 0004 	mvn.w	r0, #4
    25c0:	e7fb      	b.n	25ba <clk_init+0x4a>
    25c2:	bf00      	nop
    25c4:	00002605 	.word	0x00002605
    25c8:	0bad0000 	.word	0x0bad0000
    25cc:	000070bc 	.word	0x000070bc

000025d0 <clkstarted_handle.constprop.0>:
static void clkstarted_handle(const struct device *dev,
    25d0:	4601      	mov	r1, r0
	clock_control_cb_t callback = sub_data->cb;
    25d2:	230c      	movs	r3, #12
    25d4:	4809      	ldr	r0, [pc, #36]	; (25fc <clkstarted_handle.constprop.0+0x2c>)
    25d6:	434b      	muls	r3, r1
static void clkstarted_handle(const struct device *dev,
    25d8:	b570      	push	{r4, r5, r6, lr}
	clock_control_cb_t callback = sub_data->cb;
    25da:	18c4      	adds	r4, r0, r3
	void *user_data = sub_data->user_data;
    25dc:	e9d4 560e 	ldrd	r5, r6, [r4, #56]	; 0x38
	sub_data->cb = NULL;
    25e0:	2200      	movs	r2, #0
	set_on_state(&sub_data->flags);
    25e2:	3340      	adds	r3, #64	; 0x40
	sub_data->cb = NULL;
    25e4:	63a2      	str	r2, [r4, #56]	; 0x38
	set_on_state(&sub_data->flags);
    25e6:	4418      	add	r0, r3
    25e8:	f003 fc7f 	bl	5eea <set_on_state>
	if (callback) {
    25ec:	b12d      	cbz	r5, 25fa <clkstarted_handle.constprop.0+0x2a>
		callback(dev, (clock_control_subsys_t)type, user_data);
    25ee:	4632      	mov	r2, r6
    25f0:	462b      	mov	r3, r5
    25f2:	4803      	ldr	r0, [pc, #12]	; (2600 <clkstarted_handle.constprop.0+0x30>)
}
    25f4:	e8bd 4070 	ldmia.w	sp!, {r4, r5, r6, lr}
		callback(dev, (clock_control_subsys_t)type, user_data);
    25f8:	4718      	bx	r3
}
    25fa:	bd70      	pop	{r4, r5, r6, pc}
    25fc:	2000046c 	.word	0x2000046c
    2600:	00006d4c 	.word	0x00006d4c

00002604 <clock_event_handler>:
	switch (event) {
    2604:	b110      	cbz	r0, 260c <clock_event_handler+0x8>
    2606:	2801      	cmp	r0, #1
    2608:	d004      	beq.n	2614 <clock_event_handler+0x10>
    260a:	4770      	bx	lr
		if (GET_STATUS(data->flags) == CLOCK_CONTROL_STATUS_STARTING) {
    260c:	4b03      	ldr	r3, [pc, #12]	; (261c <clock_event_handler+0x18>)
    260e:	6c1b      	ldr	r3, [r3, #64]	; 0x40
    2610:	075b      	lsls	r3, r3, #29
    2612:	d101      	bne.n	2618 <clock_event_handler+0x14>
		clkstarted_handle(dev, CLOCK_CONTROL_NRF_TYPE_LFCLK);
    2614:	f7ff bfdc 	b.w	25d0 <clkstarted_handle.constprop.0>
}
    2618:	4770      	bx	lr
    261a:	bf00      	nop
    261c:	2000046c 	.word	0x2000046c

00002620 <generic_hfclk_start>:
{
    2620:	b508      	push	{r3, lr}
	__asm__ volatile(
    2622:	f04f 0320 	mov.w	r3, #32
    2626:	f3ef 8111 	mrs	r1, BASEPRI
    262a:	f383 8812 	msr	BASEPRI_MAX, r3
    262e:	f3bf 8f6f 	isb	sy
	hfclk_users |= HF_USER_GENERIC;
    2632:	4a12      	ldr	r2, [pc, #72]	; (267c <generic_hfclk_start+0x5c>)
    2634:	6813      	ldr	r3, [r2, #0]
    2636:	f043 0002 	orr.w	r0, r3, #2
	if (hfclk_users & HF_USER_BT) {
    263a:	f013 0301 	ands.w	r3, r3, #1
	hfclk_users |= HF_USER_GENERIC;
    263e:	6010      	str	r0, [r2, #0]
	if (hfclk_users & HF_USER_BT) {
    2640:	d00c      	beq.n	265c <generic_hfclk_start+0x3c>
            break;
        case NRF_CLOCK_DOMAIN_HFCLK:
            if (p_clk_src != NULL)
            {
                (*(nrf_clock_hfclk_t *)p_clk_src) =
                    (nrf_clock_hfclk_t)((p_reg->HFCLKSTAT & CLOCK_HFCLKSTAT_SRC_Msk)
    2642:	f04f 4280 	mov.w	r2, #1073741824	; 0x40000000
    2646:	f8d2 340c 	ldr.w	r3, [r2, #1036]	; 0x40c
                                        >> CLOCK_HFCLKSTAT_SRC_Pos);
            }
            if ((p_reg->HFCLKSTAT & CLOCK_HFCLKSTAT_STATE_Msk)
    264a:	f8d2 240c 	ldr.w	r2, [r2, #1036]	; 0x40c
		if (type == NRF_CLOCK_HFCLK_HIGH_ACCURACY) {
    264e:	f013 0301 	ands.w	r3, r3, #1
    2652:	d003      	beq.n	265c <generic_hfclk_start+0x3c>
			set_on_state(get_hf_flags());
    2654:	480a      	ldr	r0, [pc, #40]	; (2680 <generic_hfclk_start+0x60>)
    2656:	f003 fc48 	bl	5eea <set_on_state>
			already_started = true;
    265a:	2301      	movs	r3, #1
	__asm__ volatile(
    265c:	f381 8811 	msr	BASEPRI, r1
    2660:	f3bf 8f6f 	isb	sy
	if (already_started) {
    2664:	b123      	cbz	r3, 2670 <generic_hfclk_start+0x50>
}
    2666:	e8bd 4008 	ldmia.w	sp!, {r3, lr}
		clkstarted_handle(CLOCK_DEVICE,
    266a:	2000      	movs	r0, #0
    266c:	f7ff bfb0 	b.w	25d0 <clkstarted_handle.constprop.0>
}
    2670:	e8bd 4008 	ldmia.w	sp!, {r3, lr}
    nrfx_clock_stop(NRF_CLOCK_DOMAIN_LFCLK);
}

NRFX_STATIC_INLINE void nrfx_clock_hfclk_start(void)
{
    nrfx_clock_start(NRF_CLOCK_DOMAIN_HFCLK);
    2674:	2001      	movs	r0, #1
    2676:	f001 ba51 	b.w	3b1c <nrfx_clock_start>
    267a:	bf00      	nop
    267c:	200004bc 	.word	0x200004bc
    2680:	200004ac 	.word	0x200004ac

00002684 <api_blocking_start>:
{
    2684:	b51f      	push	{r0, r1, r2, r3, r4, lr}
	struct k_sem sem = Z_SEM_INITIALIZER(sem, 0, 1);
    2686:	2200      	movs	r2, #0
    2688:	2301      	movs	r3, #1
    268a:	e9cd 2302 	strd	r2, r3, [sp, #8]
	err = api_start(dev, subsys, blocking_start_callback, &sem);
    268e:	4a09      	ldr	r2, [pc, #36]	; (26b4 <api_blocking_start+0x30>)
	struct k_sem sem = Z_SEM_INITIALIZER(sem, 0, 1);
    2690:	f8cd d000 	str.w	sp, [sp]
	err = api_start(dev, subsys, blocking_start_callback, &sem);
    2694:	466b      	mov	r3, sp
	struct k_sem sem = Z_SEM_INITIALIZER(sem, 0, 1);
    2696:	f8cd d004 	str.w	sp, [sp, #4]
	err = api_start(dev, subsys, blocking_start_callback, &sem);
    269a:	f003 fc96 	bl	5fca <api_start>
	if (err < 0) {
    269e:	2800      	cmp	r0, #0
    26a0:	db05      	blt.n	26ae <api_blocking_start+0x2a>
		/* coverity[OVERRUN] */
		return (int) arch_syscall_invoke3(*(uintptr_t *)&sem, parm0.split.lo, parm0.split.hi, K_SYSCALL_K_SEM_TAKE);
	}
#endif
	compiler_barrier();
	return z_impl_k_sem_take(sem, timeout);
    26a2:	f44f 4280 	mov.w	r2, #16384	; 0x4000
    26a6:	2300      	movs	r3, #0
    26a8:	4668      	mov	r0, sp
    26aa:	f002 fb91 	bl	4dd0 <z_impl_k_sem_take>
}
    26ae:	b005      	add	sp, #20
    26b0:	f85d fb04 	ldr.w	pc, [sp], #4
    26b4:	00005ff1 	.word	0x00005ff1

000026b8 <lfclk_start>:
{
    26b8:	b510      	push	{r4, lr}
	if (!once) {
    26ba:	4c07      	ldr	r4, [pc, #28]	; (26d8 <lfclk_start+0x20>)
    26bc:	7823      	ldrb	r3, [r4, #0]
    26be:	b92b      	cbnz	r3, 26cc <lfclk_start+0x14>
	z_impl_k_busy_wait(usec_to_wait);
    26c0:	f44f 70a5 	mov.w	r0, #330	; 0x14a
    26c4:	f004 faeb 	bl	6c9e <z_impl_k_busy_wait>
		once = true;
    26c8:	2301      	movs	r3, #1
    26ca:	7023      	strb	r3, [r4, #0]
}
    26cc:	e8bd 4010 	ldmia.w	sp!, {r4, lr}
    nrfx_clock_start(NRF_CLOCK_DOMAIN_LFCLK);
    26d0:	2000      	movs	r0, #0
    26d2:	f001 ba23 	b.w	3b1c <nrfx_clock_start>
    26d6:	bf00      	nop
    26d8:	2000064f 	.word	0x2000064f

000026dc <generic_hfclk_stop>:
	return __atomic_fetch_and(target, value, __ATOMIC_SEQ_CST);
    26dc:	4b09      	ldr	r3, [pc, #36]	; (2704 <generic_hfclk_stop+0x28>)
    26de:	f3bf 8f5b 	dmb	ish
    26e2:	e853 2f00 	ldrex	r2, [r3]
    26e6:	f022 0102 	bic.w	r1, r2, #2
    26ea:	e843 1000 	strex	r0, r1, [r3]
    26ee:	2800      	cmp	r0, #0
    26f0:	d1f7      	bne.n	26e2 <generic_hfclk_stop+0x6>
    26f2:	f3bf 8f5b 	dmb	ish
	if (atomic_and(&hfclk_users, ~HF_USER_GENERIC) & HF_USER_BT) {
    26f6:	07d3      	lsls	r3, r2, #31
    26f8:	d402      	bmi.n	2700 <generic_hfclk_stop+0x24>
}

NRFX_STATIC_INLINE void nrfx_clock_hfclk_stop(void)
{
    nrfx_clock_stop(NRF_CLOCK_DOMAIN_HFCLK);
    26fa:	2001      	movs	r0, #1
    26fc:	f001 ba56 	b.w	3bac <nrfx_clock_stop>
}
    2700:	4770      	bx	lr
    2702:	bf00      	nop
    2704:	200004bc 	.word	0x200004bc

00002708 <z_nrf_clock_control_lf_on>:
{
    2708:	e92d 41f0 	stmdb	sp!, {r4, r5, r6, r7, r8, lr}
	return __atomic_exchange_n(target, value, __ATOMIC_SEQ_CST);
    270c:	4939      	ldr	r1, [pc, #228]	; (27f4 <z_nrf_clock_control_lf_on+0xec>)
    270e:	f3bf 8f5b 	dmb	ish
    2712:	4607      	mov	r7, r0
    2714:	2201      	movs	r2, #1
    2716:	e851 3f00 	ldrex	r3, [r1]
    271a:	e841 2000 	strex	r0, r2, [r1]
    271e:	2800      	cmp	r0, #0
    2720:	d1f9      	bne.n	2716 <z_nrf_clock_control_lf_on+0xe>
    2722:	f3bf 8f5b 	dmb	ish
	if (atomic_set(&on, 1) == 0) {
    2726:	b933      	cbnz	r3, 2736 <z_nrf_clock_control_lf_on+0x2e>
 */
static inline void sys_notify_init_spinwait(struct sys_notify *notify)
{
	__ASSERT_NO_MSG(notify != NULL);

	*notify = (struct sys_notify){
    2728:	4933      	ldr	r1, [pc, #204]	; (27f8 <z_nrf_clock_control_lf_on+0xf0>)
		err = onoff_request(mgr, &cli);
    272a:	4834      	ldr	r0, [pc, #208]	; (27fc <z_nrf_clock_control_lf_on+0xf4>)
    272c:	604b      	str	r3, [r1, #4]
    272e:	60cb      	str	r3, [r1, #12]
    2730:	608a      	str	r2, [r1, #8]
    2732:	f003 f9df 	bl	5af4 <onoff_request>
	switch (start_mode) {
    2736:	1e7b      	subs	r3, r7, #1
    2738:	2b01      	cmp	r3, #1
    273a:	d82f      	bhi.n	279c <z_nrf_clock_control_lf_on+0x94>
	if ((mode == CLOCK_CONTROL_NRF_LF_START_AVAILABLE) &&
    273c:	2f01      	cmp	r7, #1
    273e:	d107      	bne.n	2750 <z_nrf_clock_control_lf_on+0x48>
    return clk_src;
}

NRF_STATIC_INLINE nrf_clock_lfclk_t nrf_clock_lf_srccopy_get(NRF_CLOCK_Type const * p_reg)
{
    return (nrf_clock_lfclk_t)((p_reg->LFCLKSRCCOPY & CLOCK_LFCLKSRCCOPY_SRC_Msk)
    2740:	f04f 4380 	mov.w	r3, #1073741824	; 0x40000000
    2744:	f8d3 341c 	ldr.w	r3, [r3, #1052]	; 0x41c
    2748:	f003 0303 	and.w	r3, r3, #3
	    (target_type == NRF_CLOCK_LFCLK_Xtal) &&
    274c:	2b01      	cmp	r3, #1
    274e:	d025      	beq.n	279c <z_nrf_clock_control_lf_on+0x94>
	bool isr_mode = k_is_in_isr() || k_is_pre_kernel();
    2750:	f004 f953 	bl	69fa <k_is_in_isr>
    2754:	4604      	mov	r4, r0
    2756:	b918      	cbnz	r0, 2760 <z_nrf_clock_control_lf_on+0x58>
 */
static inline bool k_is_pre_kernel(void)
{
	extern bool z_sys_post_kernel; /* in init.c */

	return !z_sys_post_kernel;
    2758:	4b29      	ldr	r3, [pc, #164]	; (2800 <z_nrf_clock_control_lf_on+0xf8>)
	int key = isr_mode ? irq_lock() : 0;
    275a:	781b      	ldrb	r3, [r3, #0]
    275c:	2b00      	cmp	r3, #0
    275e:	d141      	bne.n	27e4 <z_nrf_clock_control_lf_on+0xdc>
	__asm__ volatile(
    2760:	f04f 0320 	mov.w	r3, #32
    2764:	f3ef 8611 	mrs	r6, BASEPRI
    2768:	f383 8812 	msr	BASEPRI_MAX, r3
    276c:	f3bf 8f6f 	isb	sy
    2770:	2401      	movs	r4, #1
    NVIC->ICPR[(((uint32_t)IRQn) >> 5UL)] = (uint32_t)(1UL << (((uint32_t)IRQn) & 0x1FUL));
    2772:	f8df 8090 	ldr.w	r8, [pc, #144]	; 2804 <z_nrf_clock_control_lf_on+0xfc>
                    (nrf_clock_lfclk_t)((p_reg->LFCLKSTAT & CLOCK_LFCLKSTAT_SRC_Msk)
    2776:	f04f 4580 	mov.w	r5, #1073741824	; 0x40000000
    277a:	f8d5 3418 	ldr.w	r3, [r5, #1048]	; 0x418
            if ((p_reg->LFCLKSTAT & CLOCK_LFCLKSTAT_STATE_Msk)
    277e:	f8d5 2418 	ldr.w	r2, [r5, #1048]	; 0x418
    2782:	03d2      	lsls	r2, r2, #15
    2784:	d50c      	bpl.n	27a0 <z_nrf_clock_control_lf_on+0x98>
                                        >> CLOCK_LFCLKSTAT_SRC_Pos);
    2786:	f003 0303 	and.w	r3, r3, #3
	while (!(nrfx_clock_is_running(d, (void *)&type)
    278a:	2b01      	cmp	r3, #1
    278c:	d001      	beq.n	2792 <z_nrf_clock_control_lf_on+0x8a>
		     || (mode == CLOCK_CONTROL_NRF_LF_START_AVAILABLE)))) {
    278e:	2f01      	cmp	r7, #1
    2790:	d106      	bne.n	27a0 <z_nrf_clock_control_lf_on+0x98>
	if (isr_mode) {
    2792:	b30c      	cbz	r4, 27d8 <z_nrf_clock_control_lf_on+0xd0>
	__asm__ volatile(
    2794:	f386 8811 	msr	BASEPRI, r6
    2798:	f3bf 8f6f 	isb	sy
}
    279c:	e8bd 81f0 	ldmia.w	sp!, {r4, r5, r6, r7, r8, pc}
			if (isr_mode || !IS_ENABLED(CONFIG_MULTITHREADING)) {
    27a0:	b1ac      	cbz	r4, 27ce <z_nrf_clock_control_lf_on+0xc6>
 *
 * @param key Interrupt locking key obtained from irq_lock().
 */
static inline void k_cpu_atomic_idle(unsigned int key)
{
	arch_cpu_atomic_idle(key);
    27a2:	4630      	mov	r0, r6
    27a4:	f7ff fb3a 	bl	1e1c <arch_cpu_atomic_idle>
    return (nrf_clock_lfclk_t)(p_reg->LFCLKSRC);
    27a8:	f8d5 3518 	ldr.w	r3, [r5, #1304]	; 0x518
		if ((target_type ==  NRF_CLOCK_LFCLK_Xtal)
    27ac:	2b00      	cmp	r3, #0
    27ae:	d1e4      	bne.n	277a <z_nrf_clock_control_lf_on+0x72>
    return (bool)*((volatile uint32_t *)((uint8_t *)p_reg + event));
    27b0:	f8d5 2104 	ldr.w	r2, [r5, #260]	; 0x104
		    && nrf_clock_event_check(NRF_CLOCK,
    27b4:	2a00      	cmp	r2, #0
    27b6:	d0e0      	beq.n	277a <z_nrf_clock_control_lf_on+0x72>
    *((volatile uint32_t *)((uint8_t *)p_reg + (uint32_t)event)) = 0x0UL;
    27b8:	f8c5 3104 	str.w	r3, [r5, #260]	; 0x104
#ifndef NRF_DECLARE_ONLY

NRF_STATIC_INLINE void nrf_event_readback(void * p_event_reg)
{
#if NRFX_CHECK(NRFX_EVENT_READBACK_ENABLED) && !defined(NRF51)
    (void)*((volatile uint32_t *)(p_event_reg));
    27bc:	f8d5 3104 	ldr.w	r3, [r5, #260]	; 0x104
    p_reg->LFCLKSRC = (uint32_t)(source);
    27c0:	2301      	movs	r3, #1
    27c2:	f8c5 3518 	str.w	r3, [r5, #1304]	; 0x518
    27c6:	f8c8 3180 	str.w	r3, [r8, #384]	; 0x180
    *((volatile uint32_t *)((uint8_t *)p_reg + (uint32_t)task)) = 0x1UL;
    27ca:	60ab      	str	r3, [r5, #8]
}
    27cc:	e7d5      	b.n	277a <z_nrf_clock_control_lf_on+0x72>
	return z_impl_k_sleep(timeout);
    27ce:	2100      	movs	r1, #0
    27d0:	2021      	movs	r0, #33	; 0x21
    27d2:	f002 ff01 	bl	55d8 <z_impl_k_sleep>
	return k_sleep(Z_TIMEOUT_MS(ms));
    27d6:	e7e7      	b.n	27a8 <z_nrf_clock_control_lf_on+0xa0>
    p_reg->INTENSET = mask;
    27d8:	f04f 4380 	mov.w	r3, #1073741824	; 0x40000000
    27dc:	2202      	movs	r2, #2
    27de:	f8c3 2304 	str.w	r2, [r3, #772]	; 0x304
}
    27e2:	e7db      	b.n	279c <z_nrf_clock_control_lf_on+0x94>
    p_reg->INTENCLR = mask;
    27e4:	f04f 4380 	mov.w	r3, #1073741824	; 0x40000000
    27e8:	2202      	movs	r2, #2
    27ea:	f8c3 2308 	str.w	r2, [r3, #776]	; 0x308
	int key = isr_mode ? irq_lock() : 0;
    27ee:	4606      	mov	r6, r0
}
    27f0:	e7bf      	b.n	2772 <z_nrf_clock_control_lf_on+0x6a>
    27f2:	bf00      	nop
    27f4:	200004c0 	.word	0x200004c0
    27f8:	2000045c 	.word	0x2000045c
    27fc:	20000488 	.word	0x20000488
    2800:	20000a81 	.word	0x20000a81
    2804:	e000e100 	.word	0xe000e100

00002808 <rtt_console_init>:

	return character;
}

static int rtt_console_init(const struct device *d)
{
    2808:	b510      	push	{r4, lr}
	ARG_UNUSED(d);

	__printk_hook_install(rtt_console_out);
    280a:	4c04      	ldr	r4, [pc, #16]	; (281c <rtt_console_init+0x14>)
    280c:	4620      	mov	r0, r4
    280e:	f7fe fa13 	bl	c38 <__printk_hook_install>
	__stdout_hook_install(rtt_console_out);
    2812:	4620      	mov	r0, r4
    2814:	f7ff fe2a 	bl	246c <__stdout_hook_install>

	return 0;
}
    2818:	2000      	movs	r0, #0
    281a:	bd10      	pop	{r4, pc}
    281c:	00002821 	.word	0x00002821

00002820 <rtt_console_out>:
{
    2820:	b5f7      	push	{r0, r1, r2, r4, r5, r6, r7, lr}
    2822:	4e14      	ldr	r6, [pc, #80]	; (2874 <rtt_console_out+0x54>)
	char c = (char)character;
    2824:	f88d 0007 	strb.w	r0, [sp, #7]
{
    2828:	4604      	mov	r4, r0
	char c = (char)character;
    282a:	2503      	movs	r5, #3
		SEGGER_RTT_LOCK();
    282c:	f3ef 8711 	mrs	r7, BASEPRI
    2830:	f04f 0120 	mov.w	r1, #32
    2834:	f381 8811 	msr	BASEPRI, r1
		cnt = SEGGER_RTT_WriteNoLock(0, &c, 1);
    2838:	2201      	movs	r2, #1
    283a:	f10d 0107 	add.w	r1, sp, #7
    283e:	2000      	movs	r0, #0
    2840:	f002 f892 	bl	4968 <SEGGER_RTT_WriteNoLock>
		SEGGER_RTT_UNLOCK();
    2844:	f387 8811 	msr	BASEPRI, r7
		if (cnt) {
    2848:	b120      	cbz	r0, 2854 <rtt_console_out+0x34>
			host_present = true;
    284a:	2301      	movs	r3, #1
    284c:	7033      	strb	r3, [r6, #0]
}
    284e:	4620      	mov	r0, r4
    2850:	b003      	add	sp, #12
    2852:	bdf0      	pop	{r4, r5, r6, r7, pc}
		} else if (host_present) {
    2854:	7833      	ldrb	r3, [r6, #0]
    2856:	2b00      	cmp	r3, #0
    2858:	d0f9      	beq.n	284e <rtt_console_out+0x2e>
			if (max_cnt) {
    285a:	3d01      	subs	r5, #1
    285c:	d008      	beq.n	2870 <rtt_console_out+0x50>
	if (!IS_ENABLED(CONFIG_MULTITHREADING) || k_is_in_isr()) {
    285e:	f004 f8cc 	bl	69fa <k_is_in_isr>
    2862:	2800      	cmp	r0, #0
    2864:	d1e2      	bne.n	282c <rtt_console_out+0xc>
    2866:	2100      	movs	r1, #0
    2868:	2042      	movs	r0, #66	; 0x42
    286a:	f002 feb5 	bl	55d8 <z_impl_k_sleep>
		SEGGER_RTT_LOCK();
    286e:	e7dd      	b.n	282c <rtt_console_out+0xc>
				host_present = false;
    2870:	7035      	strb	r5, [r6, #0]
    2872:	e7ec      	b.n	284e <rtt_console_out+0x2e>
    2874:	20000650 	.word	0x20000650

00002878 <gpio_nrfx_pin_interrupt_configure>:

static int gpio_nrfx_pin_interrupt_configure(const struct device *port,
					     gpio_pin_t pin,
					     enum gpio_int_mode mode,
					     enum gpio_int_trig trig)
{
    2878:	b530      	push	{r4, r5, lr}
	return port->config;
    287a:	6840      	ldr	r0, [r0, #4]
	uint32_t abs_pin = NRF_GPIO_PIN_MAP(get_port_cfg(port)->port_num, pin);
    287c:	7b04      	ldrb	r4, [r0, #12]
    287e:	f001 051f 	and.w	r5, r1, #31
	nrfx_err_t err;

	if (mode == GPIO_INT_MODE_DISABLED) {
    2882:	f5b2 5f00 	cmp.w	r2, #8192	; 0x2000
	uint32_t abs_pin = NRF_GPIO_PIN_MAP(get_port_cfg(port)->port_num, pin);
    2886:	ea45 1544 	orr.w	r5, r5, r4, lsl #5
{
    288a:	b085      	sub	sp, #20
    288c:	f04f 0400 	mov.w	r4, #0
	if (mode == GPIO_INT_MODE_DISABLED) {
    2890:	d104      	bne.n	289c <gpio_nrfx_pin_interrupt_configure+0x24>
		nrfx_gpiote_trigger_disable(abs_pin);
    2892:	4628      	mov	r0, r5
    2894:	f001 fc28 	bl	40e8 <nrfx_gpiote_trigger_disable>
		return -EIO;
	}

	nrfx_gpiote_trigger_enable(abs_pin, true);

	return 0;
    2898:	2000      	movs	r0, #0
    289a:	e02e      	b.n	28fa <gpio_nrfx_pin_interrupt_configure+0x82>
	if (mode == GPIO_INT_MODE_LEVEL) {
    289c:	f5b2 4f80 	cmp.w	r2, #16384	; 0x4000
	nrfx_gpiote_trigger_config_t trigger_config = {
    28a0:	e9cd 4402 	strd	r4, r4, [sp, #8]
	if (mode == GPIO_INT_MODE_LEVEL) {
    28a4:	d12b      	bne.n	28fe <gpio_nrfx_pin_interrupt_configure+0x86>
		return trig == GPIO_INT_TRIG_LOW ? NRFX_GPIOTE_TRIGGER_LOW :
    28a6:	f5b3 3f00 	cmp.w	r3, #131072	; 0x20000
    28aa:	bf0c      	ite	eq
    28ac:	2304      	moveq	r3, #4
    28ae:	2305      	movne	r3, #5
	nrfx_gpiote_trigger_config_t trigger_config = {
    28b0:	f88d 3008 	strb.w	r3, [sp, #8]
	if (!(BIT(pin) & get_port_cfg(port)->edge_sense) &&
    28b4:	6883      	ldr	r3, [r0, #8]
    28b6:	fa23 f101 	lsr.w	r1, r3, r1
    28ba:	07c9      	lsls	r1, r1, #31
    28bc:	d42b      	bmi.n	2916 <gpio_nrfx_pin_interrupt_configure+0x9e>
    28be:	f5b2 3fa0 	cmp.w	r2, #81920	; 0x14000
    28c2:	d128      	bne.n	2916 <gpio_nrfx_pin_interrupt_configure+0x9e>
}

NRF_STATIC_INLINE uint32_t nrf_gpio_pin_port_number_extract(uint32_t * p_pin)
{
    uint32_t pin_number = *p_pin;
    *p_pin = pin_number & 0x1F;
    28c4:	f005 031f 	and.w	r3, r5, #31
    return (nrf_gpio_pin_dir_t)((reg->PIN_CNF[pin_number] &
    28c8:	f503 73e0 	add.w	r3, r3, #448	; 0x1c0
    28cc:	f04f 42a0 	mov.w	r2, #1342177280	; 0x50000000
    28d0:	f852 3023 	ldr.w	r3, [r2, r3, lsl #2]
	    (mode == GPIO_INT_MODE_EDGE) &&
    28d4:	07db      	lsls	r3, r3, #31
    28d6:	d41e      	bmi.n	2916 <gpio_nrfx_pin_interrupt_configure+0x9e>
		err = nrfx_gpiote_channel_get(abs_pin, &ch);
    28d8:	f10d 0407 	add.w	r4, sp, #7
    28dc:	4621      	mov	r1, r4
    28de:	4628      	mov	r0, r5
    28e0:	f001 fb6a 	bl	3fb8 <nrfx_gpiote_channel_get>
		if (err == NRFX_ERROR_INVALID_PARAM) {
    28e4:	4b14      	ldr	r3, [pc, #80]	; (2938 <gpio_nrfx_pin_interrupt_configure+0xc0>)
    28e6:	4298      	cmp	r0, r3
    28e8:	d114      	bne.n	2914 <gpio_nrfx_pin_interrupt_configure+0x9c>
			err = nrfx_gpiote_channel_alloc(&ch);
    28ea:	4620      	mov	r0, r4
    28ec:	f001 fbb2 	bl	4054 <nrfx_gpiote_channel_alloc>
			if (err != NRFX_SUCCESS) {
    28f0:	4b12      	ldr	r3, [pc, #72]	; (293c <gpio_nrfx_pin_interrupt_configure+0xc4>)
    28f2:	4298      	cmp	r0, r3
    28f4:	d00e      	beq.n	2914 <gpio_nrfx_pin_interrupt_configure+0x9c>
				return -ENOMEM;
    28f6:	f06f 000b 	mvn.w	r0, #11
}
    28fa:	b005      	add	sp, #20
    28fc:	bd30      	pop	{r4, r5, pc}
	return trig == GPIO_INT_TRIG_BOTH ? NRFX_GPIOTE_TRIGGER_TOGGLE :
    28fe:	f5b3 2fc0 	cmp.w	r3, #393216	; 0x60000
    2902:	d005      	beq.n	2910 <gpio_nrfx_pin_interrupt_configure+0x98>
    2904:	f5b3 3f00 	cmp.w	r3, #131072	; 0x20000
    2908:	bf0c      	ite	eq
    290a:	2302      	moveq	r3, #2
    290c:	2301      	movne	r3, #1
    290e:	e7cf      	b.n	28b0 <gpio_nrfx_pin_interrupt_configure+0x38>
    2910:	2303      	movs	r3, #3
    2912:	e7cd      	b.n	28b0 <gpio_nrfx_pin_interrupt_configure+0x38>
		trigger_config.p_in_channel = &ch;
    2914:	9403      	str	r4, [sp, #12]
	err = nrfx_gpiote_input_configure(abs_pin, NULL, &trigger_config, NULL);
    2916:	2300      	movs	r3, #0
    2918:	4619      	mov	r1, r3
    291a:	aa02      	add	r2, sp, #8
    291c:	4628      	mov	r0, r5
    291e:	f001 fa23 	bl	3d68 <nrfx_gpiote_input_configure>
	if (err != NRFX_SUCCESS) {
    2922:	4b06      	ldr	r3, [pc, #24]	; (293c <gpio_nrfx_pin_interrupt_configure+0xc4>)
    2924:	4298      	cmp	r0, r3
    2926:	d104      	bne.n	2932 <gpio_nrfx_pin_interrupt_configure+0xba>
	nrfx_gpiote_trigger_enable(abs_pin, true);
    2928:	2101      	movs	r1, #1
    292a:	4628      	mov	r0, r5
    292c:	f001 fb98 	bl	4060 <nrfx_gpiote_trigger_enable>
    2930:	e7b2      	b.n	2898 <gpio_nrfx_pin_interrupt_configure+0x20>
		return -EIO;
    2932:	f06f 0004 	mvn.w	r0, #4
    2936:	e7e0      	b.n	28fa <gpio_nrfx_pin_interrupt_configure+0x82>
    2938:	0bad0004 	.word	0x0bad0004
    293c:	0bad0000 	.word	0x0bad0000

00002940 <gpio_nrfx_init>:
}

#define GPIOTE_NODE DT_INST(0, nordic_nrf_gpiote)

static int gpio_nrfx_init(const struct device *port)
{
    2940:	b510      	push	{r4, lr}
	nrfx_err_t err;

	if (nrfx_gpiote_is_init()) {
    2942:	f001 fb77 	bl	4034 <nrfx_gpiote_is_init>
    2946:	4604      	mov	r4, r0
    2948:	b968      	cbnz	r0, 2966 <gpio_nrfx_init+0x26>
		return 0;
	}

	err = nrfx_gpiote_init(0/*not used*/);
    294a:	f001 fb4b 	bl	3fe4 <nrfx_gpiote_init>
	if (err != NRFX_SUCCESS) {
    294e:	4b08      	ldr	r3, [pc, #32]	; (2970 <gpio_nrfx_init+0x30>)
    2950:	4298      	cmp	r0, r3
    2952:	d10a      	bne.n	296a <gpio_nrfx_init+0x2a>
		return -EIO;
	}

	nrfx_gpiote_global_callback_set(nrfx_gpio_handler, NULL);
    2954:	4807      	ldr	r0, [pc, #28]	; (2974 <gpio_nrfx_init+0x34>)
    2956:	4621      	mov	r1, r4
    2958:	f001 fb28 	bl	3fac <nrfx_gpiote_global_callback_set>

	IRQ_CONNECT(DT_IRQN(GPIOTE_NODE), DT_IRQ(GPIOTE_NODE, priority),
    295c:	4622      	mov	r2, r4
    295e:	2105      	movs	r1, #5
    2960:	2006      	movs	r0, #6
    2962:	f7ff fa83 	bl	1e6c <z_arm_irq_priority_set>
		return 0;
    2966:	2000      	movs	r0, #0
		    nrfx_isr, nrfx_gpiote_irq_handler, 0);

	return 0;
}
    2968:	bd10      	pop	{r4, pc}
		return -EIO;
    296a:	f06f 0004 	mvn.w	r0, #4
    296e:	e7fb      	b.n	2968 <gpio_nrfx_init+0x28>
    2970:	0bad0000 	.word	0x0bad0000
    2974:	00002979 	.word	0x00002979

00002978 <nrfx_gpio_handler>:
	DT_INST_FOREACH_STATUS_OKAY(GPIO_NRF_GET_DEV)
    2978:	0943      	lsrs	r3, r0, #5
{
    297a:	b570      	push	{r4, r5, r6, lr}
	DT_INST_FOREACH_STATUS_OKAY(GPIO_NRF_GET_DEV)
    297c:	d110      	bne.n	29a0 <nrfx_gpio_handler+0x28>
	return list->head;
    297e:	4b09      	ldr	r3, [pc, #36]	; (29a4 <nrfx_gpio_handler+0x2c>)
    2980:	6859      	ldr	r1, [r3, #4]
					const struct device *port,
					uint32_t pins)
{
	struct gpio_callback *cb, *tmp;

	SYS_SLIST_FOR_EACH_CONTAINER_SAFE(list, cb, tmp, node) {
    2982:	b169      	cbz	r1, 29a0 <nrfx_gpio_handler+0x28>
	gpio_fire_callbacks(list, port, BIT(pin));
    2984:	2501      	movs	r5, #1
	return node->next;
    2986:	680c      	ldr	r4, [r1, #0]
		if (cb->pin_mask & pins) {
			__ASSERT(cb->handler, "No callback handler!");
			cb->handler(port, cb, cb->pin_mask & pins);
    2988:	4e07      	ldr	r6, [pc, #28]	; (29a8 <nrfx_gpio_handler+0x30>)
    298a:	4085      	lsls	r5, r0
		if (cb->pin_mask & pins) {
    298c:	688a      	ldr	r2, [r1, #8]
    298e:	402a      	ands	r2, r5
    2990:	d002      	beq.n	2998 <nrfx_gpio_handler+0x20>
			cb->handler(port, cb, cb->pin_mask & pins);
    2992:	684b      	ldr	r3, [r1, #4]
    2994:	4630      	mov	r0, r6
    2996:	4798      	blx	r3
	SYS_SLIST_FOR_EACH_CONTAINER_SAFE(list, cb, tmp, node) {
    2998:	b114      	cbz	r4, 29a0 <nrfx_gpio_handler+0x28>
    299a:	4621      	mov	r1, r4
    299c:	6824      	ldr	r4, [r4, #0]
    299e:	e7f5      	b.n	298c <nrfx_gpio_handler+0x14>
}
    29a0:	bd70      	pop	{r4, r5, r6, pc}
    29a2:	bf00      	nop
    29a4:	200004c4 	.word	0x200004c4
    29a8:	00006d64 	.word	0x00006d64

000029ac <gpio_nrfx_pin_configure>:
{
    29ac:	e92d 43f0 	stmdb	sp!, {r4, r5, r6, r7, r8, r9, lr}
	return port->config;
    29b0:	6847      	ldr	r7, [r0, #4]
	nrfx_gpiote_pin_t abs_pin = NRF_GPIO_PIN_MAP(cfg->port_num, pin);
    29b2:	7b3b      	ldrb	r3, [r7, #12]
    29b4:	f001 051f 	and.w	r5, r1, #31
{
    29b8:	b085      	sub	sp, #20
    29ba:	460e      	mov	r6, r1
	nrfx_gpiote_pin_t abs_pin = NRF_GPIO_PIN_MAP(cfg->port_num, pin);
    29bc:	ea45 1543 	orr.w	r5, r5, r3, lsl #5
	if (flags == GPIO_DISCONNECTED) {
    29c0:	4614      	mov	r4, r2
    29c2:	b9ca      	cbnz	r2, 29f8 <gpio_nrfx_pin_configure+0x4c>
	err = nrfx_gpiote_channel_get(pin, &ch);
    29c4:	a902      	add	r1, sp, #8
    29c6:	4628      	mov	r0, r5
    29c8:	f001 faf6 	bl	3fb8 <nrfx_gpiote_channel_get>
    29cc:	4604      	mov	r4, r0
	err = nrfx_gpiote_pin_uninit(pin);
    29ce:	4628      	mov	r0, r5
    29d0:	f001 fbb2 	bl	4138 <nrfx_gpiote_pin_uninit>
	if (err != NRFX_SUCCESS) {
    29d4:	4b48      	ldr	r3, [pc, #288]	; (2af8 <gpio_nrfx_pin_configure+0x14c>)
    29d6:	4298      	cmp	r0, r3
    29d8:	d004      	beq.n	29e4 <gpio_nrfx_pin_configure+0x38>
		return -EIO;
    29da:	f06f 0004 	mvn.w	r0, #4
}
    29de:	b005      	add	sp, #20
    29e0:	e8bd 83f0 	ldmia.w	sp!, {r4, r5, r6, r7, r8, r9, pc}
	if (free_ch) {
    29e4:	4284      	cmp	r4, r0
    29e6:	d105      	bne.n	29f4 <gpio_nrfx_pin_configure+0x48>
		err = nrfx_gpiote_channel_free(ch);
    29e8:	f89d 0008 	ldrb.w	r0, [sp, #8]
    29ec:	f001 fb2c 	bl	4048 <nrfx_gpiote_channel_free>
	return (err != NRFX_SUCCESS) ? -EIO : 0;
    29f0:	42a0      	cmp	r0, r4
    29f2:	d1f2      	bne.n	29da <gpio_nrfx_pin_configure+0x2e>
	return (err != NRFX_SUCCESS) ? -EINVAL : 0;
    29f4:	2000      	movs	r0, #0
    29f6:	e7f2      	b.n	29de <gpio_nrfx_pin_configure+0x32>
	nrfx_gpiote_trigger_config_t trigger_config = {
    29f8:	f04f 0900 	mov.w	r9, #0
	err = nrfx_gpiote_channel_get(pin, &ch);
    29fc:	f10d 0103 	add.w	r1, sp, #3
    2a00:	4630      	mov	r0, r6
	nrfx_gpiote_trigger_config_t trigger_config = {
    2a02:	e9cd 9902 	strd	r9, r9, [sp, #8]
	err = nrfx_gpiote_channel_get(pin, &ch);
    2a06:	f001 fad7 	bl	3fb8 <nrfx_gpiote_channel_get>
	err = nrfx_gpiote_input_configure(abs_pin, NULL, &trigger_config, NULL);
    2a0a:	464b      	mov	r3, r9
	err = nrfx_gpiote_channel_get(pin, &ch);
    2a0c:	4680      	mov	r8, r0
	err = nrfx_gpiote_input_configure(abs_pin, NULL, &trigger_config, NULL);
    2a0e:	aa02      	add	r2, sp, #8
    2a10:	4649      	mov	r1, r9
    2a12:	4628      	mov	r0, r5
    2a14:	f001 f9a8 	bl	3d68 <nrfx_gpiote_input_configure>
	if (err != NRFX_SUCCESS) {
    2a18:	4b37      	ldr	r3, [pc, #220]	; (2af8 <gpio_nrfx_pin_configure+0x14c>)
    2a1a:	4298      	cmp	r0, r3
    2a1c:	d002      	beq.n	2a24 <gpio_nrfx_pin_configure+0x78>
	switch (flags & (GPIO_DS_LOW_MASK | GPIO_DS_HIGH_MASK |
    2a1e:	f06f 0015 	mvn.w	r0, #21
    2a22:	e7dc      	b.n	29de <gpio_nrfx_pin_configure+0x32>
	if (free_ch) {
    2a24:	4580      	cmp	r8, r0
    2a26:	d103      	bne.n	2a30 <gpio_nrfx_pin_configure+0x84>
		err = nrfx_gpiote_channel_free(ch);
    2a28:	f89d 0003 	ldrb.w	r0, [sp, #3]
    2a2c:	f001 fb0c 	bl	4048 <nrfx_gpiote_channel_free>
	if (flags & GPIO_OUTPUT) {
    2a30:	05a3      	lsls	r3, r4, #22
    2a32:	d54e      	bpl.n	2ad2 <gpio_nrfx_pin_configure+0x126>
	switch (flags & (GPIO_DS_LOW_MASK | GPIO_DS_HIGH_MASK |
    2a34:	4b31      	ldr	r3, [pc, #196]	; (2afc <gpio_nrfx_pin_configure+0x150>)
    2a36:	4a32      	ldr	r2, [pc, #200]	; (2b00 <gpio_nrfx_pin_configure+0x154>)
    2a38:	4023      	ands	r3, r4
    2a3a:	4293      	cmp	r3, r2
    2a3c:	d03a      	beq.n	2ab4 <gpio_nrfx_pin_configure+0x108>
    2a3e:	d80c      	bhi.n	2a5a <gpio_nrfx_pin_configure+0xae>
    2a40:	2b06      	cmp	r3, #6
    2a42:	d014      	beq.n	2a6e <gpio_nrfx_pin_configure+0xc2>
    2a44:	d804      	bhi.n	2a50 <gpio_nrfx_pin_configure+0xa4>
    2a46:	b193      	cbz	r3, 2a6e <gpio_nrfx_pin_configure+0xc2>
    2a48:	2b02      	cmp	r3, #2
    2a4a:	d1e8      	bne.n	2a1e <gpio_nrfx_pin_configure+0x72>
    2a4c:	2304      	movs	r3, #4
    2a4e:	e00e      	b.n	2a6e <gpio_nrfx_pin_configure+0xc2>
    2a50:	f5b3 1f80 	cmp.w	r3, #1048576	; 0x100000
    2a54:	d1e3      	bne.n	2a1e <gpio_nrfx_pin_configure+0x72>
		*drive = NRF_GPIO_PIN_H0S1;
    2a56:	2301      	movs	r3, #1
    2a58:	e009      	b.n	2a6e <gpio_nrfx_pin_configure+0xc2>
	switch (flags & (GPIO_DS_LOW_MASK | GPIO_DS_HIGH_MASK |
    2a5a:	4a2a      	ldr	r2, [pc, #168]	; (2b04 <gpio_nrfx_pin_configure+0x158>)
    2a5c:	4293      	cmp	r3, r2
    2a5e:	d02b      	beq.n	2ab8 <gpio_nrfx_pin_configure+0x10c>
    2a60:	f5b3 0fa0 	cmp.w	r3, #5242880	; 0x500000
    2a64:	d02a      	beq.n	2abc <gpio_nrfx_pin_configure+0x110>
    2a66:	f5b3 0f80 	cmp.w	r3, #4194304	; 0x400000
    2a6a:	d1d8      	bne.n	2a1e <gpio_nrfx_pin_configure+0x72>
		*drive = NRF_GPIO_PIN_S0H1;
    2a6c:	2302      	movs	r3, #2
		nrfx_gpiote_output_config_t output_config = {
    2a6e:	f88d 3004 	strb.w	r3, [sp, #4]
				NRF_GPIO_PIN_INPUT_CONNECT :
    2a72:	f484 7380 	eor.w	r3, r4, #256	; 0x100
    2a76:	f3c3 2300 	ubfx	r3, r3, #8, #1
	if (flags & GPIO_PULL_UP) {
    2a7a:	06e0      	lsls	r0, r4, #27
		nrfx_gpiote_output_config_t output_config = {
    2a7c:	f88d 3005 	strb.w	r3, [sp, #5]
		return NRF_GPIO_PIN_PULLDOWN;
    2a80:	bf54      	ite	pl
    2a82:	f3c4 1340 	ubfxpl	r3, r4, #5, #1
		return NRF_GPIO_PIN_PULLUP;
    2a86:	2303      	movmi	r3, #3
		if (flags & GPIO_OUTPUT_INIT_HIGH) {
    2a88:	0521      	lsls	r1, r4, #20
		nrfx_gpiote_output_config_t output_config = {
    2a8a:	f88d 3006 	strb.w	r3, [sp, #6]
		if (flags & GPIO_OUTPUT_INIT_HIGH) {
    2a8e:	d517      	bpl.n	2ac0 <gpio_nrfx_pin_configure+0x114>
			nrf_gpio_port_out_set(cfg->port, BIT(pin));
    2a90:	687b      	ldr	r3, [r7, #4]
    2a92:	2101      	movs	r1, #1
    2a94:	fa01 f606 	lsl.w	r6, r1, r6
    p_reg->OUTSET = set_mask;
    2a98:	f8c3 6508 	str.w	r6, [r3, #1288]	; 0x508
		err = nrfx_gpiote_output_configure(abs_pin, &output_config, NULL);
    2a9c:	2200      	movs	r2, #0
    2a9e:	a901      	add	r1, sp, #4
    2aa0:	4628      	mov	r0, r5
    2aa2:	f001 fa0b 	bl	3ebc <nrfx_gpiote_output_configure>
		return (err != NRFX_SUCCESS) ? -EINVAL : 0;
    2aa6:	4b14      	ldr	r3, [pc, #80]	; (2af8 <gpio_nrfx_pin_configure+0x14c>)
    2aa8:	4298      	cmp	r0, r3
    2aaa:	bf14      	ite	ne
    2aac:	f06f 0015 	mvnne.w	r0, #21
    2ab0:	2000      	moveq	r0, #0
    2ab2:	e794      	b.n	29de <gpio_nrfx_pin_configure+0x32>
		*drive = NRF_GPIO_PIN_H0D1;
    2ab4:	2307      	movs	r3, #7
    2ab6:	e7da      	b.n	2a6e <gpio_nrfx_pin_configure+0xc2>
		*drive = NRF_GPIO_PIN_D0H1;
    2ab8:	2305      	movs	r3, #5
    2aba:	e7d8      	b.n	2a6e <gpio_nrfx_pin_configure+0xc2>
		*drive = NRF_GPIO_PIN_H0H1;
    2abc:	2303      	movs	r3, #3
    2abe:	e7d6      	b.n	2a6e <gpio_nrfx_pin_configure+0xc2>
		} else if (flags & GPIO_OUTPUT_INIT_LOW) {
    2ac0:	0562      	lsls	r2, r4, #21
			nrf_gpio_port_out_clear(cfg->port, BIT(pin));
    2ac2:	bf41      	itttt	mi
    2ac4:	687b      	ldrmi	r3, [r7, #4]
    2ac6:	2101      	movmi	r1, #1
    2ac8:	fa01 f606 	lslmi.w	r6, r1, r6
    p_reg->OUTCLR = clr_mask;
    2acc:	f8c3 650c 	strmi.w	r6, [r3, #1292]	; 0x50c
}
    2ad0:	e7e4      	b.n	2a9c <gpio_nrfx_pin_configure+0xf0>
	if (flags & GPIO_PULL_UP) {
    2ad2:	06e3      	lsls	r3, r4, #27
	err = nrfx_gpiote_input_configure(abs_pin, &input_config, NULL, NULL);
    2ad4:	f04f 0300 	mov.w	r3, #0
		return NRF_GPIO_PIN_PULLUP;
    2ad8:	bf54      	ite	pl
    2ada:	f3c4 1440 	ubfxpl	r4, r4, #5, #1
    2ade:	2403      	movmi	r4, #3
	err = nrfx_gpiote_input_configure(abs_pin, &input_config, NULL, NULL);
    2ae0:	461a      	mov	r2, r3
    2ae2:	a901      	add	r1, sp, #4
    2ae4:	4628      	mov	r0, r5
	nrfx_gpiote_input_config_t input_config = {
    2ae6:	f88d 4004 	strb.w	r4, [sp, #4]
	err = nrfx_gpiote_input_configure(abs_pin, &input_config, NULL, NULL);
    2aea:	f001 f93d 	bl	3d68 <nrfx_gpiote_input_configure>
	return (err != NRFX_SUCCESS) ? -EINVAL : 0;
    2aee:	4b02      	ldr	r3, [pc, #8]	; (2af8 <gpio_nrfx_pin_configure+0x14c>)
    2af0:	4298      	cmp	r0, r3
    2af2:	f43f af7f 	beq.w	29f4 <gpio_nrfx_pin_configure+0x48>
    2af6:	e792      	b.n	2a1e <gpio_nrfx_pin_configure+0x72>
    2af8:	0bad0000 	.word	0x0bad0000
    2afc:	00f00006 	.word	0x00f00006
    2b00:	00100006 	.word	0x00100006
    2b04:	00400002 	.word	0x00400002

00002b08 <i2c_nrfx_twim_recover_bus>:

	return 0;
}

static int i2c_nrfx_twim_recover_bus(const struct device *dev)
{
    2b08:	b508      	push	{r3, lr}
	const struct i2c_nrfx_twim_config *config = dev->config;
    2b0a:	6843      	ldr	r3, [r0, #4]
NRFX_STATIC_INLINE nrfx_err_t nrfx_twim_bus_recover(uint32_t scl_pin, uint32_t sda_pin);

#ifndef NRFX_DECLARE_ONLY
NRFX_STATIC_INLINE nrfx_err_t nrfx_twim_bus_recover(uint32_t scl_pin, uint32_t sda_pin)
{
    return nrfx_twi_twim_bus_recover(scl_pin, sda_pin);
    2b0c:	e9d3 0102 	ldrd	r0, r1, [r3, #8]
    2b10:	f001 feac 	bl	486c <nrfx_twi_twim_bus_recover>

	nrfx_err_t err = nrfx_twim_bus_recover(config->config.scl,
					       config->config.sda);

	return (err == NRFX_SUCCESS ? 0 : -EBUSY);
    2b14:	4b03      	ldr	r3, [pc, #12]	; (2b24 <i2c_nrfx_twim_recover_bus+0x1c>)
    2b16:	4298      	cmp	r0, r3
}
    2b18:	bf14      	ite	ne
    2b1a:	f06f 000f 	mvnne.w	r0, #15
    2b1e:	2000      	moveq	r0, #0
    2b20:	bd08      	pop	{r3, pc}
    2b22:	bf00      	nop
    2b24:	0bad0000 	.word	0x0bad0000

00002b28 <twim_0_init>:
		      POST_KERNEL,					       \
		      CONFIG_I2C_INIT_PRIORITY,				       \
		      &i2c_nrfx_twim_driver_api)

#ifdef CONFIG_I2C_0_NRF_TWIM
I2C_NRFX_TWIM_DEVICE(0);
    2b28:	b510      	push	{r4, lr}
    2b2a:	4604      	mov	r4, r0
    2b2c:	2200      	movs	r2, #0
    2b2e:	2101      	movs	r1, #1
    2b30:	2003      	movs	r0, #3
    2b32:	f7ff f99b 	bl	1e6c <z_arm_irq_priority_set>
	const struct i2c_nrfx_twim_config *config = dev->config;
    2b36:	6860      	ldr	r0, [r4, #4]
	nrfx_err_t result = nrfx_twim_init(&config->twim, &config->config,
    2b38:	6923      	ldr	r3, [r4, #16]
    2b3a:	4a06      	ldr	r2, [pc, #24]	; (2b54 <twim_0_init+0x2c>)
    2b3c:	f100 0108 	add.w	r1, r0, #8
    2b40:	f001 fc88 	bl	4454 <nrfx_twim_init>
	if (result != NRFX_SUCCESS) {
    2b44:	4b04      	ldr	r3, [pc, #16]	; (2b58 <twim_0_init+0x30>)
		return -EBUSY;
    2b46:	4298      	cmp	r0, r3
I2C_NRFX_TWIM_DEVICE(0);
    2b48:	bf14      	ite	ne
    2b4a:	f06f 000f 	mvnne.w	r0, #15
    2b4e:	2000      	moveq	r0, #0
    2b50:	bd10      	pop	{r4, pc}
    2b52:	bf00      	nop
    2b54:	00002b5d 	.word	0x00002b5d
    2b58:	0bad0000 	.word	0x0bad0000

00002b5c <event_handler>:
	switch (p_event->type) {
    2b5c:	7803      	ldrb	r3, [r0, #0]
    2b5e:	2b01      	cmp	r3, #1
    2b60:	d008      	beq.n	2b74 <event_handler+0x18>
    2b62:	2b02      	cmp	r3, #2
    2b64:	d008      	beq.n	2b78 <event_handler+0x1c>
    2b66:	b94b      	cbnz	r3, 2b7c <event_handler+0x20>
		dev_data->res = NRFX_SUCCESS;
    2b68:	4b05      	ldr	r3, [pc, #20]	; (2b80 <event_handler+0x24>)
		dev_data->res = NRFX_ERROR_INTERNAL;
    2b6a:	620b      	str	r3, [r1, #32]
		arch_syscall_invoke1(*(uintptr_t *)&sem, K_SYSCALL_K_SEM_GIVE);
		return;
	}
#endif
	compiler_barrier();
	z_impl_k_sem_give(sem);
    2b6c:	f101 0010 	add.w	r0, r1, #16
    2b70:	f002 b90e 	b.w	4d90 <z_impl_k_sem_give>
		dev_data->res = NRFX_ERROR_DRV_TWI_ERR_ANACK;
    2b74:	4b03      	ldr	r3, [pc, #12]	; (2b84 <event_handler+0x28>)
    2b76:	e7f8      	b.n	2b6a <event_handler+0xe>
		dev_data->res = NRFX_ERROR_DRV_TWI_ERR_DNACK;
    2b78:	4b03      	ldr	r3, [pc, #12]	; (2b88 <event_handler+0x2c>)
    2b7a:	e7f6      	b.n	2b6a <event_handler+0xe>
		dev_data->res = NRFX_ERROR_INTERNAL;
    2b7c:	4b03      	ldr	r3, [pc, #12]	; (2b8c <event_handler+0x30>)
    2b7e:	e7f4      	b.n	2b6a <event_handler+0xe>
    2b80:	0bad0000 	.word	0x0bad0000
    2b84:	0bae0001 	.word	0x0bae0001
    2b88:	0bae0002 	.word	0x0bae0002
    2b8c:	0bad0001 	.word	0x0bad0001

00002b90 <twim_1_init>:
#endif

#ifdef CONFIG_I2C_1_NRF_TWIM
I2C_NRFX_TWIM_DEVICE(1);
    2b90:	b510      	push	{r4, lr}
    2b92:	4604      	mov	r4, r0
    2b94:	2200      	movs	r2, #0
    2b96:	2101      	movs	r1, #1
    2b98:	2004      	movs	r0, #4
    2b9a:	f7ff f967 	bl	1e6c <z_arm_irq_priority_set>
	const struct i2c_nrfx_twim_config *config = dev->config;
    2b9e:	6860      	ldr	r0, [r4, #4]
	nrfx_err_t result = nrfx_twim_init(&config->twim, &config->config,
    2ba0:	6923      	ldr	r3, [r4, #16]
    2ba2:	4a06      	ldr	r2, [pc, #24]	; (2bbc <twim_1_init+0x2c>)
    2ba4:	f100 0108 	add.w	r1, r0, #8
    2ba8:	f001 fc54 	bl	4454 <nrfx_twim_init>
	if (result != NRFX_SUCCESS) {
    2bac:	4b04      	ldr	r3, [pc, #16]	; (2bc0 <twim_1_init+0x30>)
		return -EBUSY;
    2bae:	4298      	cmp	r0, r3
I2C_NRFX_TWIM_DEVICE(1);
    2bb0:	bf14      	ite	ne
    2bb2:	f06f 000f 	mvnne.w	r0, #15
    2bb6:	2000      	moveq	r0, #0
    2bb8:	bd10      	pop	{r4, pc}
    2bba:	bf00      	nop
    2bbc:	00002b5d 	.word	0x00002b5d
    2bc0:	0bad0000 	.word	0x0bad0000

00002bc4 <i2c_nrfx_twim_transfer>:
{
    2bc4:	e92d 4ff0 	stmdb	sp!, {r4, r5, r6, r7, r8, r9, sl, fp, lr}
	const struct i2c_nrfx_twim_config *dev_config = dev->config;
    2bc8:	6846      	ldr	r6, [r0, #4]
	struct i2c_nrfx_twim_data *dev_data = dev->data;
    2bca:	6907      	ldr	r7, [r0, #16]
{
    2bcc:	b089      	sub	sp, #36	; 0x24
    2bce:	461d      	mov	r5, r3
    2bd0:	460c      	mov	r4, r1
	uint16_t concat_buf_size = dev_config->concat_buf_size;
    2bd2:	8b33      	ldrh	r3, [r6, #24]
	uint8_t *msg_buf = dev_data->msg_buf;
    2bd4:	f8d7 9028 	ldr.w	r9, [r7, #40]	; 0x28
	uint16_t concat_buf_size = dev_config->concat_buf_size;
    2bd8:	9300      	str	r3, [sp, #0]
{
    2bda:	4693      	mov	fp, r2
	nrfx_twim_xfer_desc_t cur_xfer = {
    2bdc:	2100      	movs	r1, #0
    2bde:	2214      	movs	r2, #20
    2be0:	a803      	add	r0, sp, #12
    2be2:	f003 f94f 	bl	5e84 <memset>
    2be6:	f88d 500d 	strb.w	r5, [sp, #13]
	return z_impl_k_sem_take(sem, timeout);
    2bea:	f04f 32ff 	mov.w	r2, #4294967295	; 0xffffffff
    2bee:	f04f 33ff 	mov.w	r3, #4294967295	; 0xffffffff
    2bf2:	4638      	mov	r0, r7
    2bf4:	f002 f8ec 	bl	4dd0 <z_impl_k_sem_take>
	k_sem_take(&dev_data->completion_sync, K_NO_WAIT);
    2bf8:	f107 0a10 	add.w	sl, r7, #16
    2bfc:	2200      	movs	r2, #0
    2bfe:	2300      	movs	r3, #0
    2c00:	4650      	mov	r0, sl
    2c02:	f002 f8e5 	bl	4dd0 <z_impl_k_sem_take>
	nrfx_twim_enable(&dev_config->twim);
    2c06:	4630      	mov	r0, r6
    2c08:	f001 fc74 	bl	44f4 <nrfx_twim_enable>
	for (size_t i = 0; i < num_msgs; i++) {
    2c0c:	f04f 0800 	mov.w	r8, #0
	uint16_t msg_buf_used = 0;
    2c10:	4645      	mov	r5, r8
	for (size_t i = 0; i < num_msgs; i++) {
    2c12:	45d8      	cmp	r8, fp
    2c14:	d301      	bcc.n	2c1a <i2c_nrfx_twim_transfer+0x56>
    2c16:	2400      	movs	r4, #0
    2c18:	e049      	b.n	2cae <i2c_nrfx_twim_transfer+0xea>
		if (I2C_MSG_ADDR_10_BITS & msgs[i].flags) {
    2c1a:	7a21      	ldrb	r1, [r4, #8]
    2c1c:	070a      	lsls	r2, r1, #28
    2c1e:	f100 808f 	bmi.w	2d40 <i2c_nrfx_twim_transfer+0x17c>
		bool concat_next = ((i + 1) < num_msgs)
    2c22:	f108 0801 	add.w	r8, r8, #1
				&& ((msgs[i].flags & I2C_MSG_READ)
    2c26:	45d8      	cmp	r8, fp
    2c28:	6862      	ldr	r2, [r4, #4]
    2c2a:	d20a      	bcs.n	2c42 <i2c_nrfx_twim_transfer+0x7e>
				&& !(msgs[i].flags & I2C_MSG_STOP)
    2c2c:	078b      	lsls	r3, r1, #30
    2c2e:	d408      	bmi.n	2c42 <i2c_nrfx_twim_transfer+0x7e>
				&& !(msgs[i + 1].flags & I2C_MSG_RESTART)
    2c30:	7d23      	ldrb	r3, [r4, #20]
				    == (msgs[i + 1].flags & I2C_MSG_READ));
    2c32:	ea81 0003 	eor.w	r0, r1, r3
				&& ((msgs[i].flags & I2C_MSG_READ)
    2c36:	f000 0001 	and.w	r0, r0, #1
    2c3a:	f003 0304 	and.w	r3, r3, #4
    2c3e:	4303      	orrs	r3, r0
    2c40:	d016      	beq.n	2c70 <i2c_nrfx_twim_transfer+0xac>
		if (concat_next || (msg_buf_used != 0)) {
    2c42:	b1bd      	cbz	r5, 2c74 <i2c_nrfx_twim_transfer+0xb0>
				&& ((msgs[i].flags & I2C_MSG_READ)
    2c44:	2300      	movs	r3, #0
			if ((msg_buf_used + msgs[i].len) > concat_buf_size) {
    2c46:	f8dd c000 	ldr.w	ip, [sp]
    2c4a:	18a8      	adds	r0, r5, r2
    2c4c:	4560      	cmp	r0, ip
    2c4e:	d87a      	bhi.n	2d46 <i2c_nrfx_twim_transfer+0x182>
			if (!(msgs[i].flags & I2C_MSG_READ)) {
    2c50:	07c8      	lsls	r0, r1, #31
    2c52:	d406      	bmi.n	2c62 <i2c_nrfx_twim_transfer+0x9e>
				memcpy(msg_buf + msg_buf_used,
    2c54:	6821      	ldr	r1, [r4, #0]
    2c56:	9301      	str	r3, [sp, #4]
    2c58:	eb09 0005 	add.w	r0, r9, r5
    2c5c:	f003 f907 	bl	5e6e <memcpy>
    2c60:	9b01      	ldr	r3, [sp, #4]
			msg_buf_used += msgs[i].len;
    2c62:	6862      	ldr	r2, [r4, #4]
    2c64:	4415      	add	r5, r2
    2c66:	b2ad      	uxth	r5, r5
		if (concat_next) {
    2c68:	2b00      	cmp	r3, #0
    2c6a:	d037      	beq.n	2cdc <i2c_nrfx_twim_transfer+0x118>
    2c6c:	340c      	adds	r4, #12
    2c6e:	e7d0      	b.n	2c12 <i2c_nrfx_twim_transfer+0x4e>
				&& ((msgs[i].flags & I2C_MSG_READ)
    2c70:	2301      	movs	r3, #1
    2c72:	e7e8      	b.n	2c46 <i2c_nrfx_twim_transfer+0x82>
		} else if (!(msgs[i].flags & I2C_MSG_READ) &&
    2c74:	07c9      	lsls	r1, r1, #31
    2c76:	d524      	bpl.n	2cc2 <i2c_nrfx_twim_transfer+0xfe>
			cur_xfer.p_primary_buf = msgs[i].buf;
    2c78:	6823      	ldr	r3, [r4, #0]
    2c7a:	9306      	str	r3, [sp, #24]
			cur_xfer.primary_length = msgs[i].len;
    2c7c:	6863      	ldr	r3, [r4, #4]
    2c7e:	9304      	str	r3, [sp, #16]
    2c80:	2500      	movs	r5, #0
		cur_xfer.type = (msgs[i].flags & I2C_MSG_READ) ?
    2c82:	7a23      	ldrb	r3, [r4, #8]
			NRFX_TWIM_XFER_RX : NRFX_TWIM_XFER_TX;
    2c84:	f003 0201 	and.w	r2, r3, #1
		nrfx_err_t res = nrfx_twim_xfer(&dev_config->twim,
    2c88:	f013 0f02 	tst.w	r3, #2
		cur_xfer.type = (msgs[i].flags & I2C_MSG_READ) ?
    2c8c:	f88d 200c 	strb.w	r2, [sp, #12]
		nrfx_err_t res = nrfx_twim_xfer(&dev_config->twim,
    2c90:	a903      	add	r1, sp, #12
    2c92:	bf0c      	ite	eq
    2c94:	2220      	moveq	r2, #32
    2c96:	2200      	movne	r2, #0
    2c98:	4630      	mov	r0, r6
    2c9a:	f001 fc59 	bl	4550 <nrfx_twim_xfer>
		if (res != NRFX_SUCCESS) {
    2c9e:	4b2e      	ldr	r3, [pc, #184]	; (2d58 <i2c_nrfx_twim_transfer+0x194>)
    2ca0:	4298      	cmp	r0, r3
    2ca2:	d021      	beq.n	2ce8 <i2c_nrfx_twim_transfer+0x124>
			if (res == NRFX_ERROR_BUSY) {
    2ca4:	330b      	adds	r3, #11
    2ca6:	4298      	cmp	r0, r3
    2ca8:	d053      	beq.n	2d52 <i2c_nrfx_twim_transfer+0x18e>
			ret = -EIO;
    2caa:	f06f 0404 	mvn.w	r4, #4
	nrfx_twim_disable(&dev_config->twim);
    2cae:	4630      	mov	r0, r6
    2cb0:	f001 fc30 	bl	4514 <nrfx_twim_disable>
	z_impl_k_sem_give(sem);
    2cb4:	4638      	mov	r0, r7
    2cb6:	f002 f86b 	bl	4d90 <z_impl_k_sem_give>
}
    2cba:	4620      	mov	r0, r4
    2cbc:	b009      	add	sp, #36	; 0x24
    2cbe:	e8bd 8ff0 	ldmia.w	sp!, {r4, r5, r6, r7, r8, r9, sl, fp, pc}
			   !nrfx_is_in_ram(msgs[i].buf)) {
    2cc2:	6821      	ldr	r1, [r4, #0]

#ifndef NRF_DECLARE_ONLY

NRF_STATIC_INLINE bool nrfx_is_in_ram(void const * p_object)
{
    return ((((uint32_t)p_object) & 0xE0000000u) == 0x20000000u);
    2cc4:	f001 4360 	and.w	r3, r1, #3758096384	; 0xe0000000
		} else if (!(msgs[i].flags & I2C_MSG_READ) &&
    2cc8:	f1b3 5f00 	cmp.w	r3, #536870912	; 0x20000000
    2ccc:	d0d4      	beq.n	2c78 <i2c_nrfx_twim_transfer+0xb4>
			if (msgs[i].len > dev_config->flash_buf_max_size) {
    2cce:	8b73      	ldrh	r3, [r6, #26]
    2cd0:	4293      	cmp	r3, r2
    2cd2:	d33b      	bcc.n	2d4c <i2c_nrfx_twim_transfer+0x188>
			memcpy(msg_buf, msgs[i].buf, msgs[i].len);
    2cd4:	4648      	mov	r0, r9
    2cd6:	f003 f8ca 	bl	5e6e <memcpy>
			msg_buf_used = msgs[i].len;
    2cda:	88a5      	ldrh	r5, [r4, #4]
		if (msg_buf_used == 0) {
    2cdc:	2d00      	cmp	r5, #0
    2cde:	d0cb      	beq.n	2c78 <i2c_nrfx_twim_transfer+0xb4>
			cur_xfer.p_primary_buf = msg_buf;
    2ce0:	f8cd 9018 	str.w	r9, [sp, #24]
			cur_xfer.primary_length = msg_buf_used;
    2ce4:	9504      	str	r5, [sp, #16]
    2ce6:	e7cc      	b.n	2c82 <i2c_nrfx_twim_transfer+0xbe>
	return z_impl_k_sem_take(sem, timeout);
    2ce8:	f44f 4280 	mov.w	r2, #16384	; 0x4000
    2cec:	2300      	movs	r3, #0
    2cee:	4650      	mov	r0, sl
    2cf0:	f002 f86e 	bl	4dd0 <z_impl_k_sem_take>
		if (ret != 0) {
    2cf4:	b138      	cbz	r0, 2d06 <i2c_nrfx_twim_transfer+0x142>
			nrfx_twim_disable(&dev_config->twim);
    2cf6:	4630      	mov	r0, r6
    2cf8:	f001 fc0c 	bl	4514 <nrfx_twim_disable>
    2cfc:	e9d6 0102 	ldrd	r0, r1, [r6, #8]
    2d00:	f001 fdb4 	bl	486c <nrfx_twi_twim_bus_recover>
    2d04:	e7d1      	b.n	2caa <i2c_nrfx_twim_transfer+0xe6>
		res = dev_data->res;
    2d06:	6a3b      	ldr	r3, [r7, #32]
		if (res != NRFX_SUCCESS) {
    2d08:	4a13      	ldr	r2, [pc, #76]	; (2d58 <i2c_nrfx_twim_transfer+0x194>)
    2d0a:	4293      	cmp	r3, r2
    2d0c:	d1cd      	bne.n	2caa <i2c_nrfx_twim_transfer+0xe6>
		if ((msgs[i].flags & I2C_MSG_READ)
    2d0e:	7a23      	ldrb	r3, [r4, #8]
    2d10:	07db      	lsls	r3, r3, #31
    2d12:	d401      	bmi.n	2d18 <i2c_nrfx_twim_transfer+0x154>
		msg_buf_used = 0;
    2d14:	2500      	movs	r5, #0
    2d16:	e7a9      	b.n	2c6c <i2c_nrfx_twim_transfer+0xa8>
		    && cur_xfer.p_primary_buf == msg_buf) {
    2d18:	9b06      	ldr	r3, [sp, #24]
    2d1a:	4599      	cmp	r9, r3
    2d1c:	d1fa      	bne.n	2d14 <i2c_nrfx_twim_transfer+0x150>
    2d1e:	4623      	mov	r3, r4
    2d20:	e008      	b.n	2d34 <i2c_nrfx_twim_transfer+0x170>
				msg_buf_used -= msgs[j].len;
    2d22:	1aa9      	subs	r1, r5, r2
				memcpy(msgs[j].buf,
    2d24:	68d8      	ldr	r0, [r3, #12]
    2d26:	9301      	str	r3, [sp, #4]
				msg_buf_used -= msgs[j].len;
    2d28:	b28d      	uxth	r5, r1
				memcpy(msgs[j].buf,
    2d2a:	fa19 f181 	uxtah	r1, r9, r1
    2d2e:	f003 f89e 	bl	5e6e <memcpy>
				j--;
    2d32:	9b01      	ldr	r3, [sp, #4]
			while (msg_buf_used >= msgs[j].len) {
    2d34:	685a      	ldr	r2, [r3, #4]
    2d36:	4295      	cmp	r5, r2
    2d38:	f1a3 030c 	sub.w	r3, r3, #12
    2d3c:	d2f1      	bcs.n	2d22 <i2c_nrfx_twim_transfer+0x15e>
    2d3e:	e7e9      	b.n	2d14 <i2c_nrfx_twim_transfer+0x150>
			ret = -ENOTSUP;
    2d40:	f06f 0485 	mvn.w	r4, #133	; 0x85
    2d44:	e7b3      	b.n	2cae <i2c_nrfx_twim_transfer+0xea>
				ret = -ENOSPC;
    2d46:	f06f 041b 	mvn.w	r4, #27
    2d4a:	e7b0      	b.n	2cae <i2c_nrfx_twim_transfer+0xea>
				ret = -EINVAL;
    2d4c:	f06f 0415 	mvn.w	r4, #21
    2d50:	e7ad      	b.n	2cae <i2c_nrfx_twim_transfer+0xea>
				ret = -EBUSY;
    2d52:	f06f 040f 	mvn.w	r4, #15
    2d56:	e7aa      	b.n	2cae <i2c_nrfx_twim_transfer+0xea>
    2d58:	0bad0000 	.word	0x0bad0000

00002d5c <hts221_channel_get>:

	/*
	 * see "Interpreting humidity and temperature readings" document
	 * for more details
	 */
	if (chan == SENSOR_CHAN_AMBIENT_TEMP) {
    2d5c:	290d      	cmp	r1, #13
{
    2d5e:	b570      	push	{r4, r5, r6, lr}
	struct hts221_data *data = dev->data;
    2d60:	6900      	ldr	r0, [r0, #16]
	if (chan == SENSOR_CHAN_AMBIENT_TEMP) {
    2d62:	d120      	bne.n	2da6 <hts221_channel_get+0x4a>
		conv_val = (int32_t)(data->t1_degc_x8 - data->t0_degc_x8) *
    2d64:	88c5      	ldrh	r5, [r0, #6]
			   (data->t_sample - data->t0_out) /
    2d66:	f9b0 600e 	ldrsh.w	r6, [r0, #14]
		conv_val = (int32_t)(data->t1_degc_x8 - data->t0_degc_x8) *
    2d6a:	8903      	ldrh	r3, [r0, #8]
			   (data->t_sample - data->t0_out) /
    2d6c:	f9b0 4002 	ldrsh.w	r4, [r0, #2]
			   (data->t1_out - data->t0_out) +
    2d70:	f9b0 1010 	ldrsh.w	r1, [r0, #16]
		conv_val = (int32_t)(data->t1_degc_x8 - data->t0_degc_x8) *
    2d74:	1b5b      	subs	r3, r3, r5
			   (data->t_sample - data->t0_out) /
    2d76:	1ba4      	subs	r4, r4, r6
			   (data->t1_out - data->t0_out) +
    2d78:	1b89      	subs	r1, r1, r6
		conv_val = (int32_t)(data->t1_degc_x8 - data->t0_degc_x8) *
    2d7a:	4363      	muls	r3, r4
			   (data->t_sample - data->t0_out) /
    2d7c:	fb93 f3f1 	sdiv	r3, r3, r1
		conv_val = (int32_t)(data->t1_degc_x8 - data->t0_degc_x8) *
    2d80:	442b      	add	r3, r5
			   data->t0_degc_x8;

		/* convert temperature x8 to degrees Celsius */
		val->val1 = conv_val / 8;
    2d82:	2b00      	cmp	r3, #0
    2d84:	4619      	mov	r1, r3
    2d86:	bfb8      	it	lt
    2d88:	1dd9      	addlt	r1, r3, #7
    2d8a:	10c9      	asrs	r1, r1, #3
    2d8c:	6011      	str	r1, [r2, #0]
		val->val2 = (conv_val % 8) * (1000000 / 8);
    2d8e:	4259      	negs	r1, r3
    2d90:	f001 0107 	and.w	r1, r1, #7
    2d94:	f003 0307 	and.w	r3, r3, #7
    2d98:	bf58      	it	pl
    2d9a:	424b      	negpl	r3, r1
    2d9c:	4911      	ldr	r1, [pc, #68]	; (2de4 <hts221_channel_get+0x88>)
			   (data->h1_t0_out - data->h0_t0_out) +
			   data->h0_rh_x2;

		/* convert humidity x2 to percent */
		val->val1 = conv_val / 2;
		val->val2 = (conv_val % 2) * 500000;
    2d9e:	434b      	muls	r3, r1
    2da0:	6053      	str	r3, [r2, #4]
	} else {
		return -ENOTSUP;
	}

	return 0;
    2da2:	2000      	movs	r0, #0
}
    2da4:	bd70      	pop	{r4, r5, r6, pc}
	} else if (chan == SENSOR_CHAN_HUMIDITY) {
    2da6:	2910      	cmp	r1, #16
    2da8:	d119      	bne.n	2dde <hts221_channel_get+0x82>
		conv_val = (int32_t)(data->h1_rh_x2 - data->h0_rh_x2) *
    2daa:	7905      	ldrb	r5, [r0, #4]
			   (data->rh_sample - data->h0_t0_out) /
    2dac:	f9b0 600a 	ldrsh.w	r6, [r0, #10]
		conv_val = (int32_t)(data->h1_rh_x2 - data->h0_rh_x2) *
    2db0:	7943      	ldrb	r3, [r0, #5]
			   (data->rh_sample - data->h0_t0_out) /
    2db2:	f9b0 4000 	ldrsh.w	r4, [r0]
			   (data->h1_t0_out - data->h0_t0_out) +
    2db6:	f9b0 100c 	ldrsh.w	r1, [r0, #12]
		conv_val = (int32_t)(data->h1_rh_x2 - data->h0_rh_x2) *
    2dba:	1b5b      	subs	r3, r3, r5
			   (data->rh_sample - data->h0_t0_out) /
    2dbc:	1ba4      	subs	r4, r4, r6
			   (data->h1_t0_out - data->h0_t0_out) +
    2dbe:	1b89      	subs	r1, r1, r6
		conv_val = (int32_t)(data->h1_rh_x2 - data->h0_rh_x2) *
    2dc0:	4363      	muls	r3, r4
			   (data->rh_sample - data->h0_t0_out) /
    2dc2:	fb93 f3f1 	sdiv	r3, r3, r1
		conv_val = (int32_t)(data->h1_rh_x2 - data->h0_rh_x2) *
    2dc6:	442b      	add	r3, r5
		val->val1 = conv_val / 2;
    2dc8:	eb03 71d3 	add.w	r1, r3, r3, lsr #31
    2dcc:	1049      	asrs	r1, r1, #1
		val->val2 = (conv_val % 2) * 500000;
    2dce:	2b00      	cmp	r3, #0
    2dd0:	f003 0301 	and.w	r3, r3, #1
		val->val1 = conv_val / 2;
    2dd4:	6011      	str	r1, [r2, #0]
		val->val2 = (conv_val % 2) * 500000;
    2dd6:	bfb8      	it	lt
    2dd8:	425b      	neglt	r3, r3
    2dda:	4903      	ldr	r1, [pc, #12]	; (2de8 <hts221_channel_get+0x8c>)
    2ddc:	e7df      	b.n	2d9e <hts221_channel_get+0x42>
		return -ENOTSUP;
    2dde:	f06f 0085 	mvn.w	r0, #133	; 0x85
    2de2:	e7df      	b.n	2da4 <hts221_channel_get+0x48>
    2de4:	0001e848 	.word	0x0001e848
    2de8:	0007a120 	.word	0x0007a120

00002dec <hts221_init>:
	.sample_fetch = hts221_sample_fetch,
	.channel_get = hts221_channel_get,
};

int hts221_init(const struct device *dev)
{
    2dec:	b530      	push	{r4, r5, lr}
	const struct hts221_config *cfg = dev->config;
	stmdev_ctx_t *ctx = (stmdev_ctx_t *)&cfg->ctx;
    2dee:	6844      	ldr	r4, [r0, #4]
{
    2df0:	b087      	sub	sp, #28
    2df2:	4605      	mov	r5, r0
	uint8_t id, idx;
	int status;

	/* check chip ID */

	status = hts221_device_id_get(ctx, &id);
    2df4:	f10d 0107 	add.w	r1, sp, #7
    2df8:	4620      	mov	r0, r4
    2dfa:	f002 ffe5 	bl	5dc8 <hts221_device_id_get>
	if (status < 0) {
    2dfe:	2800      	cmp	r0, #0
    2e00:	db05      	blt.n	2e0e <hts221_init+0x22>
		LOG_ERR("Failed to read chip ID.");
		return status;
	}

	if (id != HTS221_ID) {
    2e02:	f89d 3007 	ldrb.w	r3, [sp, #7]
    2e06:	2bbc      	cmp	r3, #188	; 0xbc
    2e08:	d003      	beq.n	2e12 <hts221_init+0x26>
		LOG_ERR("Invalid chip ID.");
		return -EINVAL;
    2e0a:	f06f 0015 	mvn.w	r0, #21
#else
	LOG_INF("Cannot enable trigger without drdy-gpios");
#endif

	return 0;
}
    2e0e:	b007      	add	sp, #28
    2e10:	bd30      	pop	{r4, r5, pc}
		if (!strcmp(hts221_odrs[idx].str, CONFIG_HTS221_ODR)) {
    2e12:	492c      	ldr	r1, [pc, #176]	; (2ec4 <hts221_init+0xd8>)
    2e14:	4608      	mov	r0, r1
    2e16:	f003 f81e 	bl	5e56 <strcmp>
    2e1a:	b168      	cbz	r0, 2e38 <hts221_init+0x4c>
    2e1c:	4929      	ldr	r1, [pc, #164]	; (2ec4 <hts221_init+0xd8>)
    2e1e:	482a      	ldr	r0, [pc, #168]	; (2ec8 <hts221_init+0xdc>)
    2e20:	f003 f819 	bl	5e56 <strcmp>
    2e24:	b138      	cbz	r0, 2e36 <hts221_init+0x4a>
    2e26:	4927      	ldr	r1, [pc, #156]	; (2ec4 <hts221_init+0xd8>)
    2e28:	4828      	ldr	r0, [pc, #160]	; (2ecc <hts221_init+0xe0>)
    2e2a:	f003 f814 	bl	5e56 <strcmp>
    2e2e:	2800      	cmp	r0, #0
    2e30:	d1eb      	bne.n	2e0a <hts221_init+0x1e>
    2e32:	2002      	movs	r0, #2
    2e34:	e000      	b.n	2e38 <hts221_init+0x4c>
    2e36:	2001      	movs	r0, #1
	status = hts221_data_rate_set(ctx, hts221_odrs[idx].odr);
    2e38:	4b25      	ldr	r3, [pc, #148]	; (2ed0 <hts221_init+0xe4>)
    2e3a:	eb03 00c0 	add.w	r0, r3, r0, lsl #3
    2e3e:	7901      	ldrb	r1, [r0, #4]
    2e40:	4620      	mov	r0, r4
    2e42:	f002 ff93 	bl	5d6c <hts221_data_rate_set>
	if (status < 0) {
    2e46:	2800      	cmp	r0, #0
    2e48:	dbe1      	blt.n	2e0e <hts221_init+0x22>
	status = hts221_block_data_update_set(ctx, 1);
    2e4a:	2101      	movs	r1, #1
    2e4c:	4620      	mov	r0, r4
    2e4e:	f002 ffa4 	bl	5d9a <hts221_block_data_update_set>
	if (status < 0) {
    2e52:	2800      	cmp	r0, #0
    2e54:	dbdb      	blt.n	2e0e <hts221_init+0x22>
	status = hts221_power_on_set(ctx, 1);
    2e56:	2101      	movs	r1, #1
    2e58:	4620      	mov	r0, r4
    2e5a:	f002 ffba 	bl	5dd2 <hts221_power_on_set>
	if (status < 0) {
    2e5e:	2800      	cmp	r0, #0
    2e60:	dbd5      	blt.n	2e0e <hts221_init+0x22>
	return z_impl_k_sleep(timeout);
    2e62:	2100      	movs	r1, #0
    2e64:	2063      	movs	r0, #99	; 0x63
    2e66:	f002 fbb7 	bl	55d8 <z_impl_k_sleep>
	status = hts221_read_reg(ctx, HTS221_H0_RH_X2 |
    2e6a:	6868      	ldr	r0, [r5, #4]
	struct hts221_data *data = dev->data;
    2e6c:	692c      	ldr	r4, [r5, #16]
	status = hts221_read_reg(ctx, HTS221_H0_RH_X2 |
    2e6e:	2310      	movs	r3, #16
    2e70:	aa02      	add	r2, sp, #8
    2e72:	21b0      	movs	r1, #176	; 0xb0
    2e74:	f002 ff6e 	bl	5d54 <hts221_read_reg>
	if (status < 0) {
    2e78:	2800      	cmp	r0, #0
    2e7a:	dbc8      	blt.n	2e0e <hts221_init+0x22>
	data->h0_rh_x2 = buf[0];
    2e7c:	f89d 3008 	ldrb.w	r3, [sp, #8]
    2e80:	7123      	strb	r3, [r4, #4]
	data->h1_rh_x2 = buf[1];
    2e82:	f89d 3009 	ldrb.w	r3, [sp, #9]
    2e86:	7163      	strb	r3, [r4, #5]
	data->t0_degc_x8 = sys_le16_to_cpu(buf[2] | ((buf[5] & 0x3) << 8));
    2e88:	f89d 300d 	ldrb.w	r3, [sp, #13]
    2e8c:	021a      	lsls	r2, r3, #8
    2e8e:	f402 7140 	and.w	r1, r2, #768	; 0x300
    2e92:	f89d 200a 	ldrb.w	r2, [sp, #10]
    2e96:	430a      	orrs	r2, r1
    2e98:	80e2      	strh	r2, [r4, #6]
	data->t1_degc_x8 = sys_le16_to_cpu(buf[3] | ((buf[5] & 0xC) << 6));
    2e9a:	019b      	lsls	r3, r3, #6
    2e9c:	f89d 200b 	ldrb.w	r2, [sp, #11]
    2ea0:	f403 7340 	and.w	r3, r3, #768	; 0x300
    2ea4:	4313      	orrs	r3, r2
    2ea6:	8123      	strh	r3, [r4, #8]
	data->h0_t0_out = sys_le16_to_cpu(buf[6] | (buf[7] << 8));
    2ea8:	f8bd 300e 	ldrh.w	r3, [sp, #14]
    2eac:	8163      	strh	r3, [r4, #10]
	data->h1_t0_out = sys_le16_to_cpu(buf[10] | (buf[11] << 8));
    2eae:	f8bd 3012 	ldrh.w	r3, [sp, #18]
    2eb2:	81a3      	strh	r3, [r4, #12]
	data->t0_out = sys_le16_to_cpu(buf[12] | (buf[13] << 8));
    2eb4:	f8bd 3014 	ldrh.w	r3, [sp, #20]
    2eb8:	81e3      	strh	r3, [r4, #14]
	data->t1_out = sys_le16_to_cpu(buf[14] | (buf[15] << 8));
    2eba:	f8bd 3016 	ldrh.w	r3, [sp, #22]
    2ebe:	8223      	strh	r3, [r4, #16]
	return 0;
    2ec0:	2000      	movs	r0, #0
    2ec2:	e7a4      	b.n	2e0e <hts221_init+0x22>
    2ec4:	000072b1 	.word	0x000072b1
    2ec8:	000073f9 	.word	0x000073f9
    2ecc:	000073fb 	.word	0x000073fb
    2ed0:	000071a4 	.word	0x000071a4

00002ed4 <regulator_fixed_init_onoff>:
	.enable = enable_onoff,
	.disable = disable_onoff,
};

static int regulator_fixed_init_onoff(const struct device *dev)
{
    2ed4:	b538      	push	{r3, r4, r5, lr}
	struct driver_data_onoff *data = dev->data;
    2ed6:	6905      	ldr	r5, [r0, #16]
	int rc;

	data->dev = dev;
	rc = onoff_manager_init(&data->mgr, &transitions);
    2ed8:	4908      	ldr	r1, [pc, #32]	; (2efc <regulator_fixed_init_onoff+0x28>)
{
    2eda:	4604      	mov	r4, r0
	data->dev = dev;
    2edc:	4628      	mov	r0, r5
    2ede:	f840 4b04 	str.w	r4, [r0], #4
	rc = onoff_manager_init(&data->mgr, &transitions);
    2ee2:	f002 fdf4 	bl	5ace <onoff_manager_init>
	__ASSERT_NO_MSG(rc == 0);

#ifdef CONFIG_MULTITHREADING
	k_work_init_delayable(&data->dwork, onoff_worker);
    2ee6:	4906      	ldr	r1, [pc, #24]	; (2f00 <regulator_fixed_init_onoff+0x2c>)
    2ee8:	f105 0020 	add.w	r0, r5, #32
    2eec:	f003 fdc8 	bl	6a80 <k_work_init_delayable>
#endif /* CONFIG_MULTITHREADING */

	rc = common_init(dev);
    2ef0:	6860      	ldr	r0, [r4, #4]
    2ef2:	f003 fb80 	bl	65f6 <common_init.isra.0>
	}

	LOG_INF("%s onoff: %d", dev->name, rc);

	return rc;
}
    2ef6:	ea00 70e0 	and.w	r0, r0, r0, asr #31
    2efa:	bd38      	pop	{r3, r4, r5, pc}
    2efc:	00007244 	.word	0x00007244
    2f00:	00006661 	.word	0x00006661

00002f04 <finalize_transition>:
{
    2f04:	e92d 47f0 	stmdb	sp!, {r4, r5, r6, r7, r8, r9, sl, lr}
	if ((rc >= 0) && (delay_us > 0)) {
    2f08:	1e1c      	subs	r4, r3, #0
{
    2f0a:	4605      	mov	r5, r0
    2f0c:	460f      	mov	r7, r1
    2f0e:	4690      	mov	r8, r2
	if ((rc >= 0) && (delay_us > 0)) {
    2f10:	db10      	blt.n	2f34 <finalize_transition+0x30>
    2f12:	b17a      	cbz	r2, 2f34 <finalize_transition+0x30>
    2f14:	ea4f 4952 	mov.w	r9, r2, lsr #17
    2f18:	03d6      	lsls	r6, r2, #15
    2f1a:	2300      	movs	r3, #0
    2f1c:	4a14      	ldr	r2, [pc, #80]	; (2f70 <finalize_transition+0x6c>)
    2f1e:	4630      	mov	r0, r6
    2f20:	4649      	mov	r1, r9
    2f22:	f7fd fcab 	bl	87c <__aeabi_uldivmod>
		    || k_is_pre_kernel()
    2f26:	b110      	cbz	r0, 2f2e <finalize_transition+0x2a>
	return !z_sys_post_kernel;
    2f28:	4b12      	ldr	r3, [pc, #72]	; (2f74 <finalize_transition+0x70>)
    2f2a:	781b      	ldrb	r3, [r3, #0]
    2f2c:	b943      	cbnz	r3, 2f40 <finalize_transition+0x3c>
	z_impl_k_busy_wait(usec_to_wait);
    2f2e:	4640      	mov	r0, r8
    2f30:	f003 feb5 	bl	6c9e <z_impl_k_busy_wait>
	notify(&data->mgr, rc);
    2f34:	4621      	mov	r1, r4
    2f36:	1d28      	adds	r0, r5, #4
    2f38:	463b      	mov	r3, r7
}
    2f3a:	e8bd 47f0 	ldmia.w	sp!, {r4, r5, r6, r7, r8, r9, sl, lr}
	notify(&data->mgr, rc);
    2f3e:	4718      	bx	r3
			/* Faster algorithm but source is first multiplied by target frequency
			 * and it can overflow even though final result would not overflow.
			 * Kconfig option shall prevent use of this algorithm when there is a
			 * risk of overflow.
			 */
			return ((t * to_hz + off) / from_hz);
    2f40:	480d      	ldr	r0, [pc, #52]	; (2f78 <finalize_transition+0x74>)
    2f42:	4a0b      	ldr	r2, [pc, #44]	; (2f70 <finalize_transition+0x6c>)
			data->notify = notify;
    2f44:	652f      	str	r7, [r5, #80]	; 0x50
    2f46:	1830      	adds	r0, r6, r0
			data->task = WORK_TASK_DELAY;
    2f48:	f04f 0303 	mov.w	r3, #3
    2f4c:	f149 0100 	adc.w	r1, r9, #0
    2f50:	f885 3054 	strb.w	r3, [r5, #84]	; 0x54
    2f54:	2300      	movs	r3, #0
    2f56:	f7fd fc91 	bl	87c <__aeabi_uldivmod>
    2f5a:	4602      	mov	r2, r0
    2f5c:	460b      	mov	r3, r1
			rc = k_work_schedule(&data->dwork, K_USEC(delay_us));
    2f5e:	f105 0020 	add.w	r0, r5, #32
    2f62:	f002 f8a5 	bl	50b0 <k_work_schedule>
			if (rc >= 0) {
    2f66:	1e04      	subs	r4, r0, #0
    2f68:	dbe4      	blt.n	2f34 <finalize_transition+0x30>
}
    2f6a:	e8bd 87f0 	ldmia.w	sp!, {r4, r5, r6, r7, r8, r9, sl, pc}
    2f6e:	bf00      	nop
    2f70:	000f4240 	.word	0x000f4240
    2f74:	20000a81 	.word	0x20000a81
    2f78:	000f423f 	.word	0x000f423f

00002f7c <uarte_nrfx_configure>:
	return 0;
}

static int uarte_nrfx_configure(const struct device *dev,
				const struct uart_config *cfg)
{
    2f7c:	b570      	push	{r4, r5, r6, lr}
		break;
	default:
		return -ENOTSUP;
	}
#else
	if (cfg->stop_bits != UART_CFG_STOP_BITS_1) {
    2f7e:	794b      	ldrb	r3, [r1, #5]
    2f80:	2b01      	cmp	r3, #1
    2f82:	d120      	bne.n	2fc6 <uarte_nrfx_configure+0x4a>
		return -ENOTSUP;
	}
#endif

	if (cfg->data_bits != UART_CFG_DATA_BITS_8) {
    2f84:	798b      	ldrb	r3, [r1, #6]
    2f86:	2b03      	cmp	r3, #3
    2f88:	d11d      	bne.n	2fc6 <uarte_nrfx_configure+0x4a>
		return -ENOTSUP;
	}

	switch (cfg->flow_ctrl) {
    2f8a:	79cc      	ldrb	r4, [r1, #7]
    2f8c:	b10c      	cbz	r4, 2f92 <uarte_nrfx_configure+0x16>
    2f8e:	2c01      	cmp	r4, #1
    2f90:	d119      	bne.n	2fc6 <uarte_nrfx_configure+0x4a>
	}

#if defined(UARTE_CONFIG_PARITYTYPE_Msk)
	uarte_cfg.paritytype = NRF_UARTE_PARITYTYPE_EVEN;
#endif
	switch (cfg->parity) {
    2f92:	790a      	ldrb	r2, [r1, #4]
    2f94:	b112      	cbz	r2, 2f9c <uarte_nrfx_configure+0x20>
    2f96:	2a02      	cmp	r2, #2
    2f98:	d115      	bne.n	2fc6 <uarte_nrfx_configure+0x4a>
    2f9a:	220e      	movs	r2, #14
#endif
	default:
		return -ENOTSUP;
	}

	if (baudrate_set(dev, cfg->baudrate) != 0) {
    2f9c:	680b      	ldr	r3, [r1, #0]
	return config->uarte_regs;
    2f9e:	6845      	ldr	r5, [r0, #4]
	switch (baudrate) {
    2fa0:	f5b3 4f16 	cmp.w	r3, #38400	; 0x9600
	return config->uarte_regs;
    2fa4:	682d      	ldr	r5, [r5, #0]
	switch (baudrate) {
    2fa6:	d062      	beq.n	306e <uarte_nrfx_configure+0xf2>
    2fa8:	d82b      	bhi.n	3002 <uarte_nrfx_configure+0x86>
    2faa:	f5b3 5f16 	cmp.w	r3, #9600	; 0x2580
    2fae:	d061      	beq.n	3074 <uarte_nrfx_configure+0xf8>
    2fb0:	d814      	bhi.n	2fdc <uarte_nrfx_configure+0x60>
    2fb2:	f5b3 6f96 	cmp.w	r3, #1200	; 0x4b0
    2fb6:	d05f      	beq.n	3078 <uarte_nrfx_configure+0xfc>
    2fb8:	d808      	bhi.n	2fcc <uarte_nrfx_configure+0x50>
    2fba:	f5b3 7f96 	cmp.w	r3, #300	; 0x12c
    2fbe:	d05e      	beq.n	307e <uarte_nrfx_configure+0x102>
    2fc0:	f5b3 7f16 	cmp.w	r3, #600	; 0x258
    2fc4:	d05e      	beq.n	3084 <uarte_nrfx_configure+0x108>
    2fc6:	f06f 0085 	mvn.w	r0, #133	; 0x85
    2fca:	e04f      	b.n	306c <uarte_nrfx_configure+0xf0>
    2fcc:	f5b3 6f16 	cmp.w	r3, #2400	; 0x960
    2fd0:	d05b      	beq.n	308a <uarte_nrfx_configure+0x10e>
    2fd2:	f5b3 5f96 	cmp.w	r3, #4800	; 0x12c0
    2fd6:	d1f6      	bne.n	2fc6 <uarte_nrfx_configure+0x4a>
		nrf_baudrate = NRF_UARTE_BAUDRATE_4800;
    2fd8:	4b36      	ldr	r3, [pc, #216]	; (30b4 <uarte_nrfx_configure+0x138>)
    2fda:	e03c      	b.n	3056 <uarte_nrfx_configure+0xda>
	switch (baudrate) {
    2fdc:	f5b3 4fe1 	cmp.w	r3, #28800	; 0x7080
    2fe0:	d056      	beq.n	3090 <uarte_nrfx_configure+0x114>
    2fe2:	d807      	bhi.n	2ff4 <uarte_nrfx_configure+0x78>
    2fe4:	f5b3 5f61 	cmp.w	r3, #14400	; 0x3840
    2fe8:	d054      	beq.n	3094 <uarte_nrfx_configure+0x118>
    2fea:	f5b3 4f96 	cmp.w	r3, #19200	; 0x4b00
    2fee:	d1ea      	bne.n	2fc6 <uarte_nrfx_configure+0x4a>
		nrf_baudrate = NRF_UARTE_BAUDRATE_19200;
    2ff0:	4b31      	ldr	r3, [pc, #196]	; (30b8 <uarte_nrfx_configure+0x13c>)
    2ff2:	e030      	b.n	3056 <uarte_nrfx_configure+0xda>
	switch (baudrate) {
    2ff4:	f647 2612 	movw	r6, #31250	; 0x7a12
    2ff8:	42b3      	cmp	r3, r6
    2ffa:	d1e4      	bne.n	2fc6 <uarte_nrfx_configure+0x4a>
		nrf_baudrate = NRF_UARTE_BAUDRATE_31250;
    2ffc:	f44f 0300 	mov.w	r3, #8388608	; 0x800000
    3000:	e029      	b.n	3056 <uarte_nrfx_configure+0xda>
	switch (baudrate) {
    3002:	f5b3 3f61 	cmp.w	r3, #230400	; 0x38400
    3006:	d047      	beq.n	3098 <uarte_nrfx_configure+0x11c>
    3008:	d813      	bhi.n	3032 <uarte_nrfx_configure+0xb6>
    300a:	f5b3 3f96 	cmp.w	r3, #76800	; 0x12c00
    300e:	d046      	beq.n	309e <uarte_nrfx_configure+0x122>
    3010:	d809      	bhi.n	3026 <uarte_nrfx_configure+0xaa>
    3012:	f64d 26c0 	movw	r6, #56000	; 0xdac0
    3016:	42b3      	cmp	r3, r6
    3018:	d043      	beq.n	30a2 <uarte_nrfx_configure+0x126>
    301a:	f5b3 4f61 	cmp.w	r3, #57600	; 0xe100
    301e:	d1d2      	bne.n	2fc6 <uarte_nrfx_configure+0x4a>
		nrf_baudrate = NRF_UARTE_BAUDRATE_57600;
    3020:	f44f 036b 	mov.w	r3, #15400960	; 0xeb0000
    3024:	e017      	b.n	3056 <uarte_nrfx_configure+0xda>
	switch (baudrate) {
    3026:	f5b3 3fe1 	cmp.w	r3, #115200	; 0x1c200
    302a:	d1cc      	bne.n	2fc6 <uarte_nrfx_configure+0x4a>
		nrf_baudrate = NRF_UARTE_BAUDRATE_115200;
    302c:	f04f 73eb 	mov.w	r3, #30801920	; 0x1d60000
    3030:	e011      	b.n	3056 <uarte_nrfx_configure+0xda>
	switch (baudrate) {
    3032:	f5b3 2f61 	cmp.w	r3, #921600	; 0xe1000
    3036:	d037      	beq.n	30a8 <uarte_nrfx_configure+0x12c>
    3038:	d808      	bhi.n	304c <uarte_nrfx_configure+0xd0>
    303a:	4e20      	ldr	r6, [pc, #128]	; (30bc <uarte_nrfx_configure+0x140>)
    303c:	42b3      	cmp	r3, r6
    303e:	d036      	beq.n	30ae <uarte_nrfx_configure+0x132>
    3040:	f5b3 2fe1 	cmp.w	r3, #460800	; 0x70800
    3044:	d1bf      	bne.n	2fc6 <uarte_nrfx_configure+0x4a>
		nrf_baudrate = NRF_UARTE_BAUDRATE_460800;
    3046:	f04f 63e8 	mov.w	r3, #121634816	; 0x7400000
    304a:	e004      	b.n	3056 <uarte_nrfx_configure+0xda>
	switch (baudrate) {
    304c:	4e1c      	ldr	r6, [pc, #112]	; (30c0 <uarte_nrfx_configure+0x144>)
    304e:	42b3      	cmp	r3, r6
    3050:	d1b9      	bne.n	2fc6 <uarte_nrfx_configure+0x4a>
		nrf_baudrate = NRF_UARTE_BAUDRATE_1000000;
    3052:	f04f 5380 	mov.w	r3, #268435456	; 0x10000000
	struct uarte_nrfx_data *data = dev->data;
    3056:	6900      	ldr	r0, [r0, #16]
                    | (uint32_t)p_cfg->hwfc;
}

NRF_STATIC_INLINE void nrf_uarte_baudrate_set(NRF_UARTE_Type * p_reg, nrf_uarte_baudrate_t baudrate)
{
    p_reg->BAUDRATE = baudrate;
    3058:	f8c5 3524 	str.w	r3, [r5, #1316]	; 0x524
		return -ENOTSUP;
	}

	nrf_uarte_configure(get_uarte_instance(dev), &uarte_cfg);

	data->uart_config = *cfg;
    305c:	1d03      	adds	r3, r0, #4
    305e:	c903      	ldmia	r1, {r0, r1}
                    | (uint32_t)p_cfg->hwfc;
    3060:	4322      	orrs	r2, r4
    p_reg->CONFIG = (uint32_t)p_cfg->parity
    3062:	f8c5 256c 	str.w	r2, [r5, #1388]	; 0x56c
    3066:	e883 0003 	stmia.w	r3, {r0, r1}

	return 0;
    306a:	2000      	movs	r0, #0
}
    306c:	bd70      	pop	{r4, r5, r6, pc}
		nrf_baudrate = NRF_UARTE_BAUDRATE_38400;
    306e:	f44f 031d 	mov.w	r3, #10289152	; 0x9d0000
    3072:	e7f0      	b.n	3056 <uarte_nrfx_configure+0xda>
		nrf_baudrate = NRF_UARTE_BAUDRATE_9600;
    3074:	4b13      	ldr	r3, [pc, #76]	; (30c4 <uarte_nrfx_configure+0x148>)
    3076:	e7ee      	b.n	3056 <uarte_nrfx_configure+0xda>
		nrf_baudrate = NRF_UARTE_BAUDRATE_1200;
    3078:	f44f 239e 	mov.w	r3, #323584	; 0x4f000
    307c:	e7eb      	b.n	3056 <uarte_nrfx_configure+0xda>
		nrf_baudrate = 0x00014000;
    307e:	f44f 33a0 	mov.w	r3, #81920	; 0x14000
    3082:	e7e8      	b.n	3056 <uarte_nrfx_configure+0xda>
	switch (baudrate) {
    3084:	f44f 331c 	mov.w	r3, #159744	; 0x27000
    3088:	e7e5      	b.n	3056 <uarte_nrfx_configure+0xda>
		nrf_baudrate = NRF_UARTE_BAUDRATE_2400;
    308a:	f44f 231d 	mov.w	r3, #643072	; 0x9d000
    308e:	e7e2      	b.n	3056 <uarte_nrfx_configure+0xda>
		nrf_baudrate = NRF_UARTE_BAUDRATE_28800;
    3090:	4b0d      	ldr	r3, [pc, #52]	; (30c8 <uarte_nrfx_configure+0x14c>)
    3092:	e7e0      	b.n	3056 <uarte_nrfx_configure+0xda>
		nrf_baudrate = NRF_UARTE_BAUDRATE_14400;
    3094:	4b0d      	ldr	r3, [pc, #52]	; (30cc <uarte_nrfx_configure+0x150>)
    3096:	e7de      	b.n	3056 <uarte_nrfx_configure+0xda>
		nrf_baudrate = NRF_UARTE_BAUDRATE_230400;
    3098:	f04f 736c 	mov.w	r3, #61865984	; 0x3b00000
    309c:	e7db      	b.n	3056 <uarte_nrfx_configure+0xda>
		nrf_baudrate = NRF_UARTE_BAUDRATE_76800;
    309e:	4b0c      	ldr	r3, [pc, #48]	; (30d0 <uarte_nrfx_configure+0x154>)
    30a0:	e7d9      	b.n	3056 <uarte_nrfx_configure+0xda>
		nrf_baudrate = NRF_UARTE_BAUDRATE_56000;
    30a2:	f44f 0365 	mov.w	r3, #15007744	; 0xe50000
    30a6:	e7d6      	b.n	3056 <uarte_nrfx_configure+0xda>
		nrf_baudrate = NRF_UARTE_BAUDRATE_921600;
    30a8:	f04f 6370 	mov.w	r3, #251658240	; 0xf000000
    30ac:	e7d3      	b.n	3056 <uarte_nrfx_configure+0xda>
		nrf_baudrate = NRF_UARTE_BAUDRATE_250000;
    30ae:	f04f 6380 	mov.w	r3, #67108864	; 0x4000000
    30b2:	e7d0      	b.n	3056 <uarte_nrfx_configure+0xda>
    30b4:	0013b000 	.word	0x0013b000
    30b8:	004ea000 	.word	0x004ea000
    30bc:	0003d090 	.word	0x0003d090
    30c0:	000f4240 	.word	0x000f4240
    30c4:	00275000 	.word	0x00275000
    30c8:	0075c000 	.word	0x0075c000
    30cc:	003af000 	.word	0x003af000
    30d0:	013a9000 	.word	0x013a9000

000030d4 <uarte_nrfx_poll_out>:
 *
 * @param dev UARTE device struct
 * @param c Character to send
 */
static void uarte_nrfx_poll_out(const struct device *dev, unsigned char c)
{
    30d4:	b5f8      	push	{r3, r4, r5, r6, r7, lr}
	struct uarte_nrfx_data *data = dev->data;
    30d6:	6906      	ldr	r6, [r0, #16]
{
    30d8:	4605      	mov	r5, r0
    30da:	460f      	mov	r7, r1
	bool isr_mode = k_is_in_isr() || k_is_pre_kernel();
    30dc:	f003 fc8d 	bl	69fa <k_is_in_isr>
    30e0:	b910      	cbnz	r0, 30e8 <uarte_nrfx_poll_out+0x14>
    30e2:	4b2c      	ldr	r3, [pc, #176]	; (3194 <uarte_nrfx_poll_out+0xc0>)
	int key;

	if (isr_mode) {
    30e4:	781b      	ldrb	r3, [r3, #0]
    30e6:	b983      	cbnz	r3, 310a <uarte_nrfx_poll_out+0x36>
	__asm__ volatile(
    30e8:	f04f 0320 	mov.w	r3, #32
    30ec:	f3ef 8411 	mrs	r4, BASEPRI
    30f0:	f383 8812 	msr	BASEPRI_MAX, r3
    30f4:	f3bf 8f6f 	isb	sy
		while (1) {
			key = irq_lock();
			if (is_tx_ready(dev)) {
    30f8:	6868      	ldr	r0, [r5, #4]
    30fa:	f003 fb4f 	bl	679c <is_tx_ready.isra.0>
    30fe:	bb28      	cbnz	r0, 314c <uarte_nrfx_poll_out+0x78>
	__asm__ volatile(
    3100:	f384 8811 	msr	BASEPRI, r4
    3104:	f3bf 8f6f 	isb	sy
}
    3108:	e7ee      	b.n	30e8 <uarte_nrfx_poll_out+0x14>
{
    310a:	2464      	movs	r4, #100	; 0x64
		NRFX_WAIT_FOR(is_tx_ready(dev), 100, 1, res);
    310c:	6868      	ldr	r0, [r5, #4]
    310e:	f003 fb45 	bl	679c <is_tx_ready.isra.0>
    3112:	b970      	cbnz	r0, 3132 <uarte_nrfx_poll_out+0x5e>
    3114:	2001      	movs	r0, #1
    3116:	f003 fb9a 	bl	684e <nrfx_busy_wait>
    311a:	3c01      	subs	r4, #1
    311c:	d1f6      	bne.n	310c <uarte_nrfx_poll_out+0x38>
	return z_impl_k_sleep(timeout);
    311e:	2100      	movs	r1, #0
    3120:	2021      	movs	r0, #33	; 0x21
    3122:	f002 fa59 	bl	55d8 <z_impl_k_sleep>
	return k_sleep(Z_TIMEOUT_MS(ms));
    3126:	e7f0      	b.n	310a <uarte_nrfx_poll_out+0x36>
	__asm__ volatile(
    3128:	f384 8811 	msr	BASEPRI, r4
    312c:	f3bf 8f6f 	isb	sy
}
    3130:	e7f5      	b.n	311e <uarte_nrfx_poll_out+0x4a>
	__asm__ volatile(
    3132:	f04f 0320 	mov.w	r3, #32
    3136:	f3ef 8411 	mrs	r4, BASEPRI
    313a:	f383 8812 	msr	BASEPRI_MAX, r3
    313e:	f3bf 8f6f 	isb	sy
			if (is_tx_ready(dev)) {
    3142:	6868      	ldr	r0, [r5, #4]
    3144:	f003 fb2a 	bl	679c <is_tx_ready.isra.0>
    3148:	2800      	cmp	r0, #0
    314a:	d0ed      	beq.n	3128 <uarte_nrfx_poll_out+0x54>
		}
	} else {
		key = wait_tx_ready(dev);
	}

	data->char_out = c;
    314c:	f806 7f10 	strb.w	r7, [r6, #16]!
	tx_start(dev, &data->char_out, 1);
    3150:	6869      	ldr	r1, [r5, #4]
	return config->uarte_regs;
    3152:	680b      	ldr	r3, [r1, #0]
NRF_STATIC_INLINE void nrf_uarte_tx_buffer_set(NRF_UARTE_Type * p_reg,
                                               uint8_t  const * p_buffer,
                                               size_t           length)
{
    p_reg->TXD.PTR    = (uint32_t)p_buffer;
    p_reg->TXD.MAXCNT = length;
    3154:	2201      	movs	r2, #1
    p_reg->TXD.PTR    = (uint32_t)p_buffer;
    3156:	f8c3 6544 	str.w	r6, [r3, #1348]	; 0x544
    p_reg->TXD.MAXCNT = length;
    315a:	f8c3 2548 	str.w	r2, [r3, #1352]	; 0x548
    *((volatile uint32_t *)((uint8_t *)p_reg + (uint32_t)event)) = 0x0UL;
    315e:	2200      	movs	r2, #0
    3160:	f8c3 2120 	str.w	r2, [r3, #288]	; 0x120
    3164:	f8d3 0120 	ldr.w	r0, [r3, #288]	; 0x120
    3168:	f8c3 2158 	str.w	r2, [r3, #344]	; 0x158
    316c:	f8d3 2158 	ldr.w	r2, [r3, #344]	; 0x158
	if (config->flags & UARTE_CFG_FLAG_LOW_POWER) {
    3170:	684a      	ldr	r2, [r1, #4]
    3172:	06d2      	lsls	r2, r2, #27
    p_reg->ENABLE = UARTE_ENABLE_ENABLE_Enabled;
    3174:	bf41      	itttt	mi
    3176:	2208      	movmi	r2, #8
    3178:	f8c3 2500 	strmi.w	r2, [r3, #1280]	; 0x500
    p_reg->INTENSET = mask;
    317c:	f44f 0280 	movmi.w	r2, #4194304	; 0x400000
    3180:	f8c3 2304 	strmi.w	r2, [r3, #772]	; 0x304
    *((volatile uint32_t *)((uint8_t *)p_reg + (uint32_t)task)) = 0x1UL;
    3184:	2201      	movs	r2, #1
    3186:	609a      	str	r2, [r3, #8]
	__asm__ volatile(
    3188:	f384 8811 	msr	BASEPRI, r4
    318c:	f3bf 8f6f 	isb	sy

	irq_unlock(key);
}
    3190:	bdf8      	pop	{r3, r4, r5, r6, r7, pc}
    3192:	bf00      	nop
    3194:	20000a81 	.word	0x20000a81

00003198 <uarte_0_init>:
				.tx_buffer = uarte##idx##_tx_buffer,	       \
				.tx_buff_size = sizeof(uarte##idx##_tx_buffer),\
			};))

#ifdef CONFIG_UART_0_NRF_UARTE
UART_NRF_UARTE_DEVICE(0);
    3198:	e92d 43f8 	stmdb	sp!, {r3, r4, r5, r6, r7, r8, r9, lr}
    319c:	2101      	movs	r1, #1
    319e:	4606      	mov	r6, r0
    31a0:	2200      	movs	r2, #0
    31a2:	2002      	movs	r0, #2
    31a4:	f7fe fe62 	bl	1e6c <z_arm_irq_priority_set>
    31a8:	2002      	movs	r0, #2
    31aa:	f7fe fe41 	bl	1e30 <arch_irq_enable>
	const struct uarte_nrfx_config *config = dev->config;
    31ae:	6877      	ldr	r7, [r6, #4]
	struct uarte_nrfx_data *data = dev->data;
    31b0:	6935      	ldr	r5, [r6, #16]
	return config->uarte_regs;
    31b2:	683c      	ldr	r4, [r7, #0]
    p_reg->ENABLE = UARTE_ENABLE_ENABLE_Disabled;
    31b4:	2300      	movs	r3, #0
    31b6:	f8c4 3500 	str.w	r3, [r4, #1280]	; 0x500
	data->dev = dev;
    31ba:	602e      	str	r6, [r5, #0]
	uarte_nrfx_pins_configure(dev, false);
    31bc:	6873      	ldr	r3, [r6, #4]
		if (cfg->tx_pin != NRF_UARTE_PSEL_DISCONNECTED) {
    31be:	68d8      	ldr	r0, [r3, #12]
    31c0:	1c41      	adds	r1, r0, #1
    31c2:	d00c      	beq.n	31de <uarte_0_init+0x46>
    *p_pin = pin_number & 0x1F;
    31c4:	f000 021f 	and.w	r2, r0, #31
    p_reg->OUTSET = set_mask;
    31c8:	f04f 4ca0 	mov.w	ip, #1342177280	; 0x50000000
    nrf_gpio_port_out_set(reg, 1UL << pin_number);
    31cc:	2101      	movs	r1, #1
    31ce:	4091      	lsls	r1, r2
    reg->PIN_CNF[pin_number] = cnf;
    31d0:	f502 72e0 	add.w	r2, r2, #448	; 0x1c0
    p_reg->OUTSET = set_mask;
    31d4:	f8cc 1508 	str.w	r1, [ip, #1288]	; 0x508
    reg->PIN_CNF[pin_number] = cnf;
    31d8:	2103      	movs	r1, #3
    31da:	f84c 1022 	str.w	r1, [ip, r2, lsl #2]
		if (cfg->rx_pin != NRF_UARTE_PSEL_DISCONNECTED) {
    31de:	6919      	ldr	r1, [r3, #16]
    31e0:	1c4a      	adds	r2, r1, #1
    31e2:	d010      	beq.n	3206 <uarte_0_init+0x6e>
			nrf_gpio_cfg_input(cfg->rx_pin,
    31e4:	7f1a      	ldrb	r2, [r3, #28]
    31e6:	2a00      	cmp	r2, #0
    *p_pin = pin_number & 0x1F;
    31e8:	f001 021f 	and.w	r2, r1, #31
    31ec:	bf14      	ite	ne
    31ee:	f04f 0c03 	movne.w	ip, #3
    31f2:	f04f 0c00 	moveq.w	ip, #0
    reg->PIN_CNF[pin_number] = cnf;
    31f6:	f502 72e0 	add.w	r2, r2, #448	; 0x1c0
    31fa:	f04f 4ea0 	mov.w	lr, #1342177280	; 0x50000000
           ((uint32_t)pull << GPIO_PIN_CNF_PULL_Pos)   |
    31fe:	ea4f 0c8c 	mov.w	ip, ip, lsl #2
    reg->PIN_CNF[pin_number] = cnf;
    3202:	f84e c022 	str.w	ip, [lr, r2, lsl #2]
		if (cfg->rts_pin != NRF_UARTE_PSEL_DISCONNECTED) {
    3206:	f8d3 c014 	ldr.w	ip, [r3, #20]
    320a:	f1bc 3fff 	cmp.w	ip, #4294967295	; 0xffffffff
    320e:	d00f      	beq.n	3230 <uarte_0_init+0x98>
    *p_pin = pin_number & 0x1F;
    3210:	f00c 021f 	and.w	r2, ip, #31
    p_reg->OUTSET = set_mask;
    3214:	f04f 48a0 	mov.w	r8, #1342177280	; 0x50000000
    nrf_gpio_port_out_set(reg, 1UL << pin_number);
    3218:	f04f 0e01 	mov.w	lr, #1
    321c:	fa0e fe02 	lsl.w	lr, lr, r2
    reg->PIN_CNF[pin_number] = cnf;
    3220:	f502 72e0 	add.w	r2, r2, #448	; 0x1c0
    p_reg->OUTSET = set_mask;
    3224:	f8c8 e508 	str.w	lr, [r8, #1288]	; 0x508
    reg->PIN_CNF[pin_number] = cnf;
    3228:	f04f 0e03 	mov.w	lr, #3
    322c:	f848 e022 	str.w	lr, [r8, r2, lsl #2]
		if (cfg->cts_pin != NRF_UARTE_PSEL_DISCONNECTED) {
    3230:	f8d3 e018 	ldr.w	lr, [r3, #24]
    3234:	f1be 3fff 	cmp.w	lr, #4294967295	; 0xffffffff
    3238:	d010      	beq.n	325c <uarte_0_init+0xc4>
			nrf_gpio_cfg_input(cfg->cts_pin,
    323a:	7f5a      	ldrb	r2, [r3, #29]
    323c:	2a00      	cmp	r2, #0
    *p_pin = pin_number & 0x1F;
    323e:	f00e 021f 	and.w	r2, lr, #31
    3242:	bf14      	ite	ne
    3244:	f04f 0803 	movne.w	r8, #3
    3248:	f04f 0800 	moveq.w	r8, #0
    reg->PIN_CNF[pin_number] = cnf;
    324c:	f502 72e0 	add.w	r2, r2, #448	; 0x1c0
    3250:	f04f 49a0 	mov.w	r9, #1342177280	; 0x50000000
           ((uint32_t)pull << GPIO_PIN_CNF_PULL_Pos)   |
    3254:	ea4f 0888 	mov.w	r8, r8, lsl #2
    reg->PIN_CNF[pin_number] = cnf;
    3258:	f849 8022 	str.w	r8, [r9, r2, lsl #2]
	nrf_uarte_txrx_pins_set(cfg->uarte_regs, cfg->tx_pin, cfg->rx_pin);
    325c:	681b      	ldr	r3, [r3, #0]
    p_reg->PSEL.TXD = pseltxd;
    325e:	f8c3 050c 	str.w	r0, [r3, #1292]	; 0x50c
    p_reg->PSEL.RXD = pselrxd;
    3262:	f8c3 1514 	str.w	r1, [r3, #1300]	; 0x514
	err = uarte_nrfx_configure(dev, &data->uart_config);
    3266:	4630      	mov	r0, r6
    p_reg->PSEL.RTS = pselrts;
    3268:	f8c3 c508 	str.w	ip, [r3, #1288]	; 0x508
    326c:	1d29      	adds	r1, r5, #4
    p_reg->PSEL.CTS = pselcts;
    326e:	f8c3 e510 	str.w	lr, [r3, #1296]	; 0x510
    3272:	f7ff fe83 	bl	2f7c <uarte_nrfx_configure>
	if (err) {
    3276:	4606      	mov	r6, r0
    3278:	2800      	cmp	r0, #0
    327a:	d143      	bne.n	3304 <uarte_0_init+0x16c>
	    cfg->flags & UARTE_CFG_FLAG_PPI_ENDTX) {
    327c:	687b      	ldr	r3, [r7, #4]
	if (IS_ENABLED(CONFIG_UART_ENHANCED_POLL_OUT) &&
    327e:	0799      	lsls	r1, r3, #30
    3280:	d519      	bpl.n	32b6 <uarte_0_init+0x11e>
	ret = gppi_channel_alloc(&data->ppi_ch_endtx);
    3282:	f105 0012 	add.w	r0, r5, #18
    3286:	f001 f821 	bl	42cc <nrfx_ppi_channel_alloc>
	if (ret != NRFX_SUCCESS) {
    328a:	4b21      	ldr	r3, [pc, #132]	; (3310 <uarte_0_init+0x178>)
    328c:	4298      	cmp	r0, r3
    328e:	d13c      	bne.n	330a <uarte_0_init+0x172>
	nrfx_gppi_channel_endpoints_setup(data->ppi_ch_endtx,
    3290:	7ca8      	ldrb	r0, [r5, #18]
    return (uint32_t)((uint8_t *)p_reg + (uint32_t)event);
    3292:	00c3      	lsls	r3, r0, #3
    3294:	f103 4380 	add.w	r3, r3, #1073741824	; 0x40000000
    3298:	f503 33f8 	add.w	r3, r3, #126976	; 0x1f000
    return (uint32_t)p_reg + (uint32_t)task;
    329c:	f104 020c 	add.w	r2, r4, #12
    return (uint32_t)((uint8_t *)p_reg + (uint32_t)event);
    32a0:	f504 7190 	add.w	r1, r4, #288	; 0x120
NRF_STATIC_INLINE void nrf_ppi_channel_endpoint_setup(NRF_PPI_Type *    p_reg,
                                                      nrf_ppi_channel_t channel,
                                                      uint32_t          eep,
                                                      uint32_t          tep)
{
    p_reg->CH[(uint32_t) channel].EEP = eep;
    32a4:	f8c3 1510 	str.w	r1, [r3, #1296]	; 0x510
    p_reg->CH[(uint32_t) channel].TEP = tep;
    32a8:	f8c3 2514 	str.w	r2, [r3, #1300]	; 0x514
    p_reg->CHENSET = mask;
    32ac:	4a19      	ldr	r2, [pc, #100]	; (3314 <uarte_0_init+0x17c>)
	nrfx_gppi_channels_enable(BIT(data->ppi_ch_endtx));
    32ae:	2301      	movs	r3, #1
    32b0:	4083      	lsls	r3, r0
    32b2:	f8c2 3504 	str.w	r3, [r2, #1284]	; 0x504
    p_reg->ENABLE = UARTE_ENABLE_ENABLE_Enabled;
    32b6:	2308      	movs	r3, #8
    32b8:	f8c4 3500 	str.w	r3, [r4, #1280]	; 0x500
		if (!cfg->disable_rx) {
    32bc:	7a3b      	ldrb	r3, [r7, #8]
    32be:	b95b      	cbnz	r3, 32d8 <uarte_0_init+0x140>
    *((volatile uint32_t *)((uint8_t *)p_reg + (uint32_t)event)) = 0x0UL;
    32c0:	f8c4 3110 	str.w	r3, [r4, #272]	; 0x110
    32c4:	f8d4 3110 	ldr.w	r3, [r4, #272]	; 0x110
			nrf_uarte_rx_buffer_set(uarte, &data->rx_data, 1);
    32c8:	f105 0311 	add.w	r3, r5, #17

NRF_STATIC_INLINE void nrf_uarte_rx_buffer_set(NRF_UARTE_Type * p_reg,
                                               uint8_t *        p_buffer,
                                               size_t           length)
{
    p_reg->RXD.PTR    = (uint32_t)p_buffer;
    32cc:	f8c4 3534 	str.w	r3, [r4, #1332]	; 0x534
    p_reg->RXD.MAXCNT = length;
    32d0:	2301      	movs	r3, #1
    32d2:	f8c4 3538 	str.w	r3, [r4, #1336]	; 0x538
    *((volatile uint32_t *)((uint8_t *)p_reg + (uint32_t)task)) = 0x1UL;
    32d6:	6023      	str	r3, [r4, #0]
	if (!(cfg->flags & UARTE_CFG_FLAG_PPI_ENDTX)) {
    32d8:	687b      	ldr	r3, [r7, #4]
    32da:	079a      	lsls	r2, r3, #30
    p_reg->INTENSET = mask;
    32dc:	bf5c      	itt	pl
    32de:	f44f 7280 	movpl.w	r2, #256	; 0x100
    32e2:	f8c4 2304 	strpl.w	r2, [r4, #772]	; 0x304
	if (cfg->flags & UARTE_CFG_FLAG_LOW_POWER) {
    32e6:	06db      	lsls	r3, r3, #27
    32e8:	bf44      	itt	mi
    32ea:	f44f 0380 	movmi.w	r3, #4194304	; 0x400000
    32ee:	f8c4 3304 	strmi.w	r3, [r4, #772]	; 0x304
	nrf_uarte_tx_buffer_set(uarte, &data->char_out, 0);
    32f2:	3510      	adds	r5, #16
    p_reg->TXD.MAXCNT = length;
    32f4:	2300      	movs	r3, #0
    p_reg->TXD.PTR    = (uint32_t)p_buffer;
    32f6:	f8c4 5544 	str.w	r5, [r4, #1348]	; 0x544
    p_reg->TXD.MAXCNT = length;
    32fa:	f8c4 3548 	str.w	r3, [r4, #1352]	; 0x548
    *((volatile uint32_t *)((uint8_t *)p_reg + (uint32_t)task)) = 0x1UL;
    32fe:	2301      	movs	r3, #1
    3300:	60a3      	str	r3, [r4, #8]
    3302:	60e3      	str	r3, [r4, #12]
UART_NRF_UARTE_DEVICE(0);
    3304:	4630      	mov	r0, r6
    3306:	e8bd 83f8 	ldmia.w	sp!, {r3, r4, r5, r6, r7, r8, r9, pc}
		return -EIO;
    330a:	f06f 0604 	mvn.w	r6, #4
UART_NRF_UARTE_DEVICE(0);
    330e:	e7f9      	b.n	3304 <uarte_0_init+0x16c>
    3310:	0bad0000 	.word	0x0bad0000
    3314:	4001f000 	.word	0x4001f000

00003318 <compare_int_lock>:
	return 0;
#endif
}

static bool compare_int_lock(int32_t chan)
{
    3318:	b510      	push	{r4, lr}
	atomic_val_t prev = atomic_and(&int_mask, ~BIT(chan));
    331a:	2301      	movs	r3, #1
    331c:	4083      	lsls	r3, r0
	return __atomic_fetch_and(target, value, __ATOMIC_SEQ_CST);
    331e:	4a11      	ldr	r2, [pc, #68]	; (3364 <compare_int_lock+0x4c>)
    3320:	f3bf 8f5b 	dmb	ish
    3324:	43dc      	mvns	r4, r3
    3326:	e852 1f00 	ldrex	r1, [r2]
    332a:	ea01 0c04 	and.w	ip, r1, r4
    332e:	e842 ce00 	strex	lr, ip, [r2]
    3332:	f1be 0f00 	cmp.w	lr, #0
    3336:	d1f6      	bne.n	3326 <compare_int_lock+0xe>
    3338:	f3bf 8f5b 	dmb	ish

	nrf_rtc_int_disable(RTC, RTC_CHANNEL_INT_MASK(chan));
    333c:	f44f 3280 	mov.w	r2, #65536	; 0x10000
    3340:	fa02 f000 	lsl.w	r0, r2, r0
    p_reg->INTENSET = mask;
}

NRF_STATIC_INLINE void nrf_rtc_int_disable(NRF_RTC_Type * p_reg, uint32_t mask)
{
    p_reg->INTENCLR = mask;
    3344:	f102 4280 	add.w	r2, r2, #1073741824	; 0x40000000
    3348:	f502 5280 	add.w	r2, r2, #4096	; 0x1000
    334c:	f8c2 0308 	str.w	r0, [r2, #776]	; 0x308
    3350:	f3bf 8f5f 	dmb	sy
  __ASM volatile ("isb 0xF":::"memory");
    3354:	f3bf 8f6f 	isb	sy

	__DMB();
	__ISB();

	return prev & BIT(chan);
    3358:	420b      	tst	r3, r1
}
    335a:	bf14      	ite	ne
    335c:	2001      	movne	r0, #1
    335e:	2000      	moveq	r0, #0
    3360:	bd10      	pop	{r4, pc}
    3362:	bf00      	nop
    3364:	200004dc 	.word	0x200004dc

00003368 <sys_clock_timeout_handler>:
static void sys_clock_timeout_handler(int32_t chan,
				      uint64_t expire_time,
				      void *user_data)
{
	uint32_t cc_value = absolute_time_to_cc(expire_time);
	uint64_t dticks = (expire_time - last_count) / CYC_PER_TICK;
    3368:	4919      	ldr	r1, [pc, #100]	; (33d0 <sys_clock_timeout_handler+0x68>)
{
    336a:	b5f8      	push	{r3, r4, r5, r6, r7, lr}
    336c:	4604      	mov	r4, r0
	return absolute_time & COUNTER_MAX;
    336e:	f022 457f 	bic.w	r5, r2, #4278190080	; 0xff000000
	uint64_t dticks = (expire_time - last_count) / CYC_PER_TICK;
    3372:	6808      	ldr	r0, [r1, #0]

	last_count += dticks * CYC_PER_TICK;
    3374:	e9c1 2300 	strd	r2, r3, [r1]
	return (cc_value >= ANCHOR_RANGE_START) && (cc_value < ANCHOR_RANGE_END);
    3378:	f5a5 1300 	sub.w	r3, r5, #2097152	; 0x200000
	uint64_t dticks = (expire_time - last_count) / CYC_PER_TICK;
    337c:	1a10      	subs	r0, r2, r0
	if (in_anchor_range(cc_value)) {
    337e:	f5b3 0f40 	cmp.w	r3, #12582912	; 0xc00000
    3382:	d222      	bcs.n	33ca <sys_clock_timeout_handler+0x62>
		anchor = (((uint64_t)overflow_cnt) << COUNTER_BIT_WIDTH) + cc_value;
    3384:	4b13      	ldr	r3, [pc, #76]	; (33d4 <sys_clock_timeout_handler+0x6c>)
    3386:	681b      	ldr	r3, [r3, #0]
    3388:	0a1a      	lsrs	r2, r3, #8
    338a:	061b      	lsls	r3, r3, #24
    338c:	195e      	adds	r6, r3, r5
    338e:	4b12      	ldr	r3, [pc, #72]	; (33d8 <sys_clock_timeout_handler+0x70>)
    3390:	f142 0700 	adc.w	r7, r2, #0
    3394:	e9c3 6700 	strd	r6, r7, [r3]
		return true;
    3398:	2601      	movs	r6, #1
		 */
		compare_set(chan, last_count + CYC_PER_TICK,
					  sys_clock_timeout_handler, NULL);
	}

	sys_clock_announce(IS_ENABLED(CONFIG_TICKLESS_KERNEL) ?
    339a:	f002 fa81 	bl	58a0 <sys_clock_announce>
    return p_reg->CC[ch];
    339e:	00a3      	lsls	r3, r4, #2
    33a0:	f103 4380 	add.w	r3, r3, #1073741824	; 0x40000000
    33a4:	f503 3388 	add.w	r3, r3, #69632	; 0x11000
    33a8:	f8d3 2540 	ldr.w	r2, [r3, #1344]	; 0x540
			   (int32_t)dticks : (dticks > 0));

	if (cc_value == get_comparator(chan)) {
    33ac:	42aa      	cmp	r2, r5
    33ae:	d10b      	bne.n	33c8 <sys_clock_timeout_handler+0x60>
		 * If anchor was updated we can enable same CC value to trigger
		 * interrupt after full cycle. Else set event in anchor update
		 * range. Since anchor was not updated we know that it's very
		 * far from mid point so setting is done without any protection.
		 */
		if (!anchor_updated) {
    33b0:	b91e      	cbnz	r6, 33ba <sys_clock_timeout_handler+0x52>
    p_reg->CC[ch] = cc_val;
    33b2:	f44f 0200 	mov.w	r2, #8388608	; 0x800000
    33b6:	f8c3 2540 	str.w	r2, [r3, #1344]	; 0x540
    *(__IO uint32_t *)((uint32_t)p_reg + task) = 1;
}

NRF_STATIC_INLINE void nrf_rtc_event_enable(NRF_RTC_Type * p_reg, uint32_t mask)
{
    p_reg->EVTENSET = mask;
    33ba:	4b08      	ldr	r3, [pc, #32]	; (33dc <sys_clock_timeout_handler+0x74>)
	nrf_rtc_event_enable(RTC, RTC_CHANNEL_INT_MASK(chan));
    33bc:	f44f 3080 	mov.w	r0, #65536	; 0x10000
    33c0:	fa00 f404 	lsl.w	r4, r0, r4
    33c4:	f8c3 4344 	str.w	r4, [r3, #836]	; 0x344
			set_comparator(chan, COUNTER_HALF_SPAN);
		}
		event_enable(chan);
	}
}
    33c8:	bdf8      	pop	{r3, r4, r5, r6, r7, pc}
	return false;
    33ca:	2600      	movs	r6, #0
    33cc:	e7e5      	b.n	339a <sys_clock_timeout_handler+0x32>
    33ce:	bf00      	nop
    33d0:	20000268 	.word	0x20000268
    33d4:	200004e0 	.word	0x200004e0
    33d8:	20000250 	.word	0x20000250
    33dc:	40011000 	.word	0x40011000

000033e0 <compare_int_unlock>:
	if (key) {
    33e0:	b319      	cbz	r1, 342a <compare_int_unlock+0x4a>
	return __atomic_fetch_or(target, value, __ATOMIC_SEQ_CST);
    33e2:	f3bf 8f5b 	dmb	ish
		atomic_or(&int_mask, BIT(chan));
    33e6:	2301      	movs	r3, #1
    33e8:	4a10      	ldr	r2, [pc, #64]	; (342c <compare_int_unlock+0x4c>)
    33ea:	4083      	lsls	r3, r0
    33ec:	e852 1f00 	ldrex	r1, [r2]
    33f0:	4319      	orrs	r1, r3
    33f2:	e842 1c00 	strex	ip, r1, [r2]
    33f6:	f1bc 0f00 	cmp.w	ip, #0
    33fa:	d1f7      	bne.n	33ec <compare_int_unlock+0xc>
    33fc:	f3bf 8f5b 	dmb	ish
    p_reg->INTENSET = mask;
    3400:	4a0b      	ldr	r2, [pc, #44]	; (3430 <compare_int_unlock+0x50>)
		nrf_rtc_int_enable(RTC, RTC_CHANNEL_INT_MASK(chan));
    3402:	f44f 3380 	mov.w	r3, #65536	; 0x10000
    3406:	4083      	lsls	r3, r0
    3408:	f8c2 3304 	str.w	r3, [r2, #772]	; 0x304
	return __atomic_load_n(target, __ATOMIC_SEQ_CST);
    340c:	4b09      	ldr	r3, [pc, #36]	; (3434 <compare_int_unlock+0x54>)
    340e:	f3bf 8f5b 	dmb	ish
    3412:	681b      	ldr	r3, [r3, #0]
    3414:	f3bf 8f5b 	dmb	ish
		if (atomic_get(&force_isr_mask) & BIT(chan)) {
    3418:	fa23 f000 	lsr.w	r0, r3, r0
    341c:	07c3      	lsls	r3, r0, #31
    NVIC->ISPR[(((uint32_t)IRQn) >> 5UL)] = (uint32_t)(1UL << (((uint32_t)IRQn) & 0x1FUL));
    341e:	bf42      	ittt	mi
    3420:	4b05      	ldrmi	r3, [pc, #20]	; (3438 <compare_int_unlock+0x58>)
    3422:	f44f 3200 	movmi.w	r2, #131072	; 0x20000
    3426:	f8c3 2100 	strmi.w	r2, [r3, #256]	; 0x100
}
    342a:	4770      	bx	lr
    342c:	200004dc 	.word	0x200004dc
    3430:	40011000 	.word	0x40011000
    3434:	200004d8 	.word	0x200004d8
    3438:	e000e100 	.word	0xe000e100

0000343c <z_nrf_rtc_timer_read>:
	uint64_t val = ((uint64_t)overflow_cnt) << COUNTER_BIT_WIDTH;
    343c:	4b0d      	ldr	r3, [pc, #52]	; (3474 <z_nrf_rtc_timer_read+0x38>)
    343e:	6818      	ldr	r0, [r3, #0]
    3440:	0a01      	lsrs	r1, r0, #8
    3442:	0600      	lsls	r0, r0, #24
  __ASM volatile ("dmb 0xF":::"memory");
    3444:	f3bf 8f5f 	dmb	sy
     return p_reg->COUNTER;
    3448:	4b0b      	ldr	r3, [pc, #44]	; (3478 <z_nrf_rtc_timer_read+0x3c>)
    344a:	f8d3 3504 	ldr.w	r3, [r3, #1284]	; 0x504
	val += cntr;
    344e:	1818      	adds	r0, r3, r0
    3450:	f141 0100 	adc.w	r1, r1, #0
	if (cntr < OVERFLOW_RISK_RANGE_END) {
    3454:	f5b3 1f80 	cmp.w	r3, #1048576	; 0x100000
    3458:	d20a      	bcs.n	3470 <z_nrf_rtc_timer_read+0x34>
		if (val < anchor) {
    345a:	4b08      	ldr	r3, [pc, #32]	; (347c <z_nrf_rtc_timer_read+0x40>)
    345c:	e9d3 2300 	ldrd	r2, r3, [r3]
    3460:	4290      	cmp	r0, r2
    3462:	eb71 0303 	sbcs.w	r3, r1, r3
    3466:	d203      	bcs.n	3470 <z_nrf_rtc_timer_read+0x34>
			val += COUNTER_SPAN;
    3468:	f110 7080 	adds.w	r0, r0, #16777216	; 0x1000000
    346c:	f141 0100 	adc.w	r1, r1, #0
}
    3470:	4770      	bx	lr
    3472:	bf00      	nop
    3474:	200004e0 	.word	0x200004e0
    3478:	40011000 	.word	0x40011000
    347c:	20000250 	.word	0x20000250

00003480 <compare_set>:
{
    3480:	e92d 4ff0 	stmdb	sp!, {r4, r5, r6, r7, r8, r9, sl, fp, lr}
    3484:	b085      	sub	sp, #20
    3486:	4616      	mov	r6, r2
    3488:	4698      	mov	r8, r3
    348a:	4605      	mov	r5, r0
	key = compare_int_lock(chan);
    348c:	f7ff ff44 	bl	3318 <compare_int_lock>
    3490:	9000      	str	r0, [sp, #0]
	uint64_t curr_time = z_nrf_rtc_timer_read();
    3492:	f7ff ffd3 	bl	343c <z_nrf_rtc_timer_read>
	if (curr_time < target_time) {
    3496:	42b0      	cmp	r0, r6
    3498:	eb71 0308 	sbcs.w	r3, r1, r8
    349c:	d278      	bcs.n	3590 <compare_set+0x110>
		if (target_time - curr_time > COUNTER_SPAN) {
    349e:	4b46      	ldr	r3, [pc, #280]	; (35b8 <compare_set+0x138>)
    34a0:	1a30      	subs	r0, r6, r0
    34a2:	eb68 0101 	sbc.w	r1, r8, r1
    34a6:	4298      	cmp	r0, r3
    34a8:	f171 0300 	sbcs.w	r3, r1, #0
    34ac:	f080 8081 	bcs.w	35b2 <compare_set+0x132>
		if (target_time != cc_data[chan].target_time) {
    34b0:	4b42      	ldr	r3, [pc, #264]	; (35bc <compare_set+0x13c>)
    34b2:	eb03 1305 	add.w	r3, r3, r5, lsl #4
    34b6:	e9d3 ab02 	ldrd	sl, fp, [r3, #8]
    34ba:	45d8      	cmp	r8, fp
    34bc:	bf08      	it	eq
    34be:	4556      	cmpeq	r6, sl
    34c0:	d051      	beq.n	3566 <compare_set+0xe6>
    34c2:	ea4f 0985 	mov.w	r9, r5, lsl #2
    34c6:	f109 4980 	add.w	r9, r9, #1073741824	; 0x40000000
	nrf_rtc_event_clear(RTC, RTC_CHANNEL_EVENT_ADDR(chan));
    34ca:	f105 0750 	add.w	r7, r5, #80	; 0x50
    34ce:	f509 3988 	add.w	r9, r9, #69632	; 0x11000
    34d2:	00bf      	lsls	r7, r7, #2
	nrf_rtc_event_enable(RTC, RTC_CHANNEL_INT_MASK(chan));
    34d4:	f44f 3180 	mov.w	r1, #65536	; 0x10000
    34d8:	fa01 f305 	lsl.w	r3, r1, r5
    *((volatile uint32_t *)((uint8_t *)p_reg + (uint32_t)event)) = 0;
    34dc:	b2bf      	uxth	r7, r7
	return absolute_time & COUNTER_MAX;
    34de:	f026 427f 	bic.w	r2, r6, #4278190080	; 0xff000000
    34e2:	f107 4780 	add.w	r7, r7, #1073741824	; 0x40000000
	nrf_rtc_event_enable(RTC, RTC_CHANNEL_INT_MASK(chan));
    34e6:	9301      	str	r3, [sp, #4]
    return p_reg->CC[ch];
    34e8:	f8d9 0540 	ldr.w	r0, [r9, #1344]	; 0x540
     return p_reg->COUNTER;
    34ec:	4b34      	ldr	r3, [pc, #208]	; (35c0 <compare_set+0x140>)
    *((volatile uint32_t *)((uint8_t *)p_reg + (uint32_t)event)) = 0;
    34ee:	f507 3788 	add.w	r7, r7, #69632	; 0x11000
	uint32_t cc_val = abs_val & COUNTER_MAX;
    34f2:	4614      	mov	r4, r2
     return p_reg->COUNTER;
    34f4:	f8d3 1504 	ldr.w	r1, [r3, #1284]	; 0x504
	return (a - b) & COUNTER_MAX;
    34f8:	1a40      	subs	r0, r0, r1
    34fa:	f020 407f 	bic.w	r0, r0, #4278190080	; 0xff000000
	nrf_rtc_cc_set(RTC, chan, cyc & COUNTER_MAX);
    34fe:	f021 4c7f 	bic.w	ip, r1, #4278190080	; 0xff000000
		if (counter_sub(prev_cc, now) == 1) {
    3502:	2801      	cmp	r0, #1
    p_reg->CC[ch] = cc_val;
    3504:	f8c9 c540 	str.w	ip, [r9, #1344]	; 0x540
    3508:	d107      	bne.n	351a <compare_set+0x9a>
    350a:	e9cd 2102 	strd	r2, r1, [sp, #8]
	z_impl_k_busy_wait(usec_to_wait);
    350e:	2013      	movs	r0, #19
    3510:	f003 fbc5 	bl	6c9e <z_impl_k_busy_wait>
    3514:	e9dd 2102 	ldrd	r2, r1, [sp, #8]
    3518:	4b29      	ldr	r3, [pc, #164]	; (35c0 <compare_set+0x140>)
		if (counter_sub(cc_val, now + 2) > COUNTER_HALF_SPAN) {
    351a:	f101 0c02 	add.w	ip, r1, #2
	return (a - b) & COUNTER_MAX;
    351e:	eba4 000c 	sub.w	r0, r4, ip
    3522:	f020 407f 	bic.w	r0, r0, #4278190080	; 0xff000000
			cc_val = now + 2;
    3526:	f5b0 0f00 	cmp.w	r0, #8388608	; 0x800000
    352a:	bf88      	it	hi
    352c:	4664      	movhi	r4, ip
    *((volatile uint32_t *)((uint8_t *)p_reg + (uint32_t)event)) = 0;
    352e:	2000      	movs	r0, #0
    3530:	6038      	str	r0, [r7, #0]
    3532:	6838      	ldr	r0, [r7, #0]
    p_reg->EVTENSET = mask;
    3534:	9801      	ldr	r0, [sp, #4]
    3536:	f8c3 0344 	str.w	r0, [r3, #836]	; 0x344
	nrf_rtc_cc_set(RTC, chan, cyc & COUNTER_MAX);
    353a:	f024 407f 	bic.w	r0, r4, #4278190080	; 0xff000000
    p_reg->CC[ch] = cc_val;
    353e:	f8c9 0540 	str.w	r0, [r9, #1344]	; 0x540
     return p_reg->COUNTER;
    3542:	f8d3 0504 	ldr.w	r0, [r3, #1284]	; 0x504
		 (counter_sub(cc_val, now2 + 2) > COUNTER_HALF_SPAN));
    3546:	4281      	cmp	r1, r0
    3548:	d006      	beq.n	3558 <compare_set+0xd8>
	return (a - b) & COUNTER_MAX;
    354a:	1a20      	subs	r0, r4, r0
    354c:	3802      	subs	r0, #2
    354e:	f020 407f 	bic.w	r0, r0, #4278190080	; 0xff000000
	} while ((now2 != now) &&
    3552:	f5b0 0f00 	cmp.w	r0, #8388608	; 0x800000
    3556:	d819      	bhi.n	358c <compare_set+0x10c>
	return (a - b) & COUNTER_MAX;
    3558:	1aa4      	subs	r4, r4, r2
    355a:	f024 447f 	bic.w	r4, r4, #4278190080	; 0xff000000
			target_time += counter_sub(cc_set, cc_value);
    355e:	eb14 0a06 	adds.w	sl, r4, r6
    3562:	f148 0b00 	adc.w	fp, r8, #0
	cc_data[chan].target_time = target_time;
    3566:	4915      	ldr	r1, [pc, #84]	; (35bc <compare_set+0x13c>)
	cc_data[chan].callback = handler;
    3568:	980e      	ldr	r0, [sp, #56]	; 0x38
	cc_data[chan].target_time = target_time;
    356a:	012b      	lsls	r3, r5, #4
    356c:	eb01 1205 	add.w	r2, r1, r5, lsl #4
    3570:	e9c2 ab02 	strd	sl, fp, [r2, #8]
	cc_data[chan].callback = handler;
    3574:	50c8      	str	r0, [r1, r3]
	cc_data[chan].user_context = user_data;
    3576:	9b0f      	ldr	r3, [sp, #60]	; 0x3c
    3578:	6053      	str	r3, [r2, #4]
	return ret;
    357a:	2400      	movs	r4, #0
	compare_int_unlock(chan, key);
    357c:	4628      	mov	r0, r5
    357e:	9900      	ldr	r1, [sp, #0]
    3580:	f7ff ff2e 	bl	33e0 <compare_int_unlock>
}
    3584:	4620      	mov	r0, r4
    3586:	b005      	add	sp, #20
    3588:	e8bd 8ff0 	ldmia.w	sp!, {r4, r5, r6, r7, r8, r9, sl, fp, pc}
    358c:	4620      	mov	r0, r4
    358e:	e7b1      	b.n	34f4 <compare_set+0x74>
		atomic_or(&force_isr_mask, BIT(chan));
    3590:	2301      	movs	r3, #1
	return __atomic_fetch_or(target, value, __ATOMIC_SEQ_CST);
    3592:	4a0c      	ldr	r2, [pc, #48]	; (35c4 <compare_set+0x144>)
    3594:	f3bf 8f5b 	dmb	ish
    3598:	40ab      	lsls	r3, r5
    359a:	e852 1f00 	ldrex	r1, [r2]
    359e:	4319      	orrs	r1, r3
    35a0:	e842 1000 	strex	r0, r1, [r2]
    35a4:	2800      	cmp	r0, #0
    35a6:	d1f8      	bne.n	359a <compare_set+0x11a>
    35a8:	f3bf 8f5b 	dmb	ish
    35ac:	46b2      	mov	sl, r6
    35ae:	46c3      	mov	fp, r8
    35b0:	e7d9      	b.n	3566 <compare_set+0xe6>
			return -EINVAL;
    35b2:	f06f 0415 	mvn.w	r4, #21
    35b6:	e7e1      	b.n	357c <compare_set+0xfc>
    35b8:	01000001 	.word	0x01000001
    35bc:	20000258 	.word	0x20000258
    35c0:	40011000 	.word	0x40011000
    35c4:	200004d8 	.word	0x200004d8

000035c8 <sys_clock_driver_init>:
{
	return (uint32_t)z_nrf_rtc_timer_read();
}

static int sys_clock_driver_init(const struct device *dev)
{
    35c8:	b573      	push	{r0, r1, r4, r5, r6, lr}
			CLOCK_CONTROL_NRF_LF_START_STABLE);

	/* TODO: replace with counter driver to access RTC */
	nrf_rtc_prescaler_set(RTC, 0);
	for (int32_t chan = 0; chan < CHAN_COUNT; chan++) {
		cc_data[chan].target_time = TARGET_TIME_INVALID;
    35ca:	4b19      	ldr	r3, [pc, #100]	; (3630 <sys_clock_driver_init+0x68>)
    p_reg->PRESCALER = val;
    35cc:	4d19      	ldr	r5, [pc, #100]	; (3634 <sys_clock_driver_init+0x6c>)
    35ce:	2400      	movs	r4, #0
    35d0:	f04f 30ff 	mov.w	r0, #4294967295	; 0xffffffff
    35d4:	f04f 31ff 	mov.w	r1, #4294967295	; 0xffffffff
    35d8:	f8c5 4508 	str.w	r4, [r5, #1288]	; 0x508
    35dc:	e9c3 0102 	strd	r0, r1, [r3, #8]
    p_reg->INTENSET = mask;
    35e0:	f44f 3380 	mov.w	r3, #65536	; 0x10000
    35e4:	f8c5 3304 	str.w	r3, [r5, #772]	; 0x304
    NVIC->ICPR[(((uint32_t)IRQn) >> 5UL)] = (uint32_t)(1UL << (((uint32_t)IRQn) & 0x1FUL));
    35e8:	4b13      	ldr	r3, [pc, #76]	; (3638 <sys_clock_driver_init+0x70>)
    35ea:	2602      	movs	r6, #2
    35ec:	f44f 3200 	mov.w	r2, #131072	; 0x20000

	nrf_rtc_int_enable(RTC, NRF_RTC_INT_OVERFLOW_MASK);

	NVIC_ClearPendingIRQ(RTC_IRQn);

	IRQ_CONNECT(RTC_IRQn, DT_IRQ(DT_NODELABEL(RTC_LABEL), priority),
    35f0:	2101      	movs	r1, #1
    35f2:	f8c5 6304 	str.w	r6, [r5, #772]	; 0x304
    35f6:	2011      	movs	r0, #17
    35f8:	f8c3 2180 	str.w	r2, [r3, #384]	; 0x180
    35fc:	4622      	mov	r2, r4
    35fe:	f7fe fc35 	bl	1e6c <z_arm_irq_priority_set>
		    rtc_nrf_isr, 0, 0);
	irq_enable(RTC_IRQn);
    3602:	2011      	movs	r0, #17
    3604:	f7fe fc14 	bl	1e30 <arch_irq_enable>

	nrf_rtc_task_trigger(RTC, NRF_RTC_TASK_CLEAR);
	nrf_rtc_task_trigger(RTC, NRF_RTC_TASK_START);

	int_mask = BIT_MASK(CHAN_COUNT);
    3608:	4a0c      	ldr	r2, [pc, #48]	; (363c <sys_clock_driver_init+0x74>)
    *(__IO uint32_t *)((uint32_t)p_reg + task) = 1;
    360a:	2301      	movs	r3, #1
    360c:	60ab      	str	r3, [r5, #8]
    360e:	602b      	str	r3, [r5, #0]
    3610:	6013      	str	r3, [r2, #0]

	uint32_t initial_timeout = IS_ENABLED(CONFIG_TICKLESS_KERNEL) ?
		(COUNTER_HALF_SPAN - 1) :
		(counter() + CYC_PER_TICK);

	compare_set(0, initial_timeout, sys_clock_timeout_handler, NULL);
    3612:	4b0b      	ldr	r3, [pc, #44]	; (3640 <sys_clock_driver_init+0x78>)
    3614:	4a0b      	ldr	r2, [pc, #44]	; (3644 <sys_clock_driver_init+0x7c>)
    3616:	9300      	str	r3, [sp, #0]
    3618:	9401      	str	r4, [sp, #4]
    361a:	2300      	movs	r3, #0
    361c:	4620      	mov	r0, r4
    361e:	f7ff ff2f 	bl	3480 <compare_set>

	z_nrf_clock_control_lf_on(mode);
    3622:	4630      	mov	r0, r6
    3624:	f7ff f870 	bl	2708 <z_nrf_clock_control_lf_on>

	return 0;
}
    3628:	4620      	mov	r0, r4
    362a:	b002      	add	sp, #8
    362c:	bd70      	pop	{r4, r5, r6, pc}
    362e:	bf00      	nop
    3630:	20000258 	.word	0x20000258
    3634:	40011000 	.word	0x40011000
    3638:	e000e100 	.word	0xe000e100
    363c:	200004dc 	.word	0x200004dc
    3640:	00003369 	.word	0x00003369
    3644:	007fffff 	.word	0x007fffff

00003648 <rtc_nrf_isr>:
{
    3648:	e92d 43f7 	stmdb	sp!, {r0, r1, r2, r4, r5, r6, r7, r8, r9, lr}
    return p_reg->INTENSET & mask;
    364c:	4c35      	ldr	r4, [pc, #212]	; (3724 <rtc_nrf_isr+0xdc>)
    364e:	f8d4 3304 	ldr.w	r3, [r4, #772]	; 0x304
	if (nrf_rtc_int_enable_check(RTC, NRF_RTC_INT_OVERFLOW_MASK) &&
    3652:	079a      	lsls	r2, r3, #30
    3654:	d50b      	bpl.n	366e <rtc_nrf_isr+0x26>
    return (bool)*(volatile uint32_t *)((uint8_t *)p_reg + (uint32_t)event);
    3656:	f8d4 3104 	ldr.w	r3, [r4, #260]	; 0x104
    365a:	b143      	cbz	r3, 366e <rtc_nrf_isr+0x26>
		overflow_cnt++;
    365c:	4a32      	ldr	r2, [pc, #200]	; (3728 <rtc_nrf_isr+0xe0>)
    *((volatile uint32_t *)((uint8_t *)p_reg + (uint32_t)event)) = 0;
    365e:	2300      	movs	r3, #0
    3660:	f8c4 3104 	str.w	r3, [r4, #260]	; 0x104
    3664:	f8d4 3104 	ldr.w	r3, [r4, #260]	; 0x104
    3668:	6813      	ldr	r3, [r2, #0]
    366a:	3301      	adds	r3, #1
    366c:	6013      	str	r3, [r2, #0]
	__asm__ volatile(
    366e:	f04f 0320 	mov.w	r3, #32
    3672:	f3ef 8211 	mrs	r2, BASEPRI
    3676:	f383 8812 	msr	BASEPRI_MAX, r3
    367a:	f3bf 8f6f 	isb	sy
    return p_reg->INTENSET & mask;
    367e:	f8d4 3304 	ldr.w	r3, [r4, #772]	; 0x304
	if (nrf_rtc_int_enable_check(RTC, RTC_CHANNEL_INT_MASK(chan))) {
    3682:	03db      	lsls	r3, r3, #15
    3684:	d512      	bpl.n	36ac <rtc_nrf_isr+0x64>
	return __atomic_fetch_and(target, value, __ATOMIC_SEQ_CST);
    3686:	f3bf 8f5b 	dmb	ish
    368a:	4b28      	ldr	r3, [pc, #160]	; (372c <rtc_nrf_isr+0xe4>)
    368c:	e853 1f00 	ldrex	r1, [r3]
    3690:	f021 0001 	bic.w	r0, r1, #1
    3694:	e843 0600 	strex	r6, r0, [r3]
    3698:	2e00      	cmp	r6, #0
    369a:	d1f7      	bne.n	368c <rtc_nrf_isr+0x44>
    369c:	f3bf 8f5b 	dmb	ish
		result = atomic_and(&force_isr_mask, ~BIT(chan)) ||
    36a0:	2900      	cmp	r1, #0
    36a2:	d136      	bne.n	3712 <rtc_nrf_isr+0xca>
    return (bool)*(volatile uint32_t *)((uint8_t *)p_reg + (uint32_t)event);
    36a4:	f8d4 3140 	ldr.w	r3, [r4, #320]	; 0x140
		if (result) {
    36a8:	2b00      	cmp	r3, #0
    36aa:	d132      	bne.n	3712 <rtc_nrf_isr+0xca>
{
    36ac:	2300      	movs	r3, #0
	__asm__ volatile(
    36ae:	f382 8811 	msr	BASEPRI, r2
    36b2:	f3bf 8f6f 	isb	sy
	if (channel_processing_check_and_clear(chan)) {
    36b6:	b34b      	cbz	r3, 370c <rtc_nrf_isr+0xc4>
		curr_time = z_nrf_rtc_timer_read();
    36b8:	f7ff fec0 	bl	343c <z_nrf_rtc_timer_read>
	__asm__ volatile(
    36bc:	f04f 0320 	mov.w	r3, #32
    36c0:	f3ef 8c11 	mrs	ip, BASEPRI
    36c4:	f383 8812 	msr	BASEPRI_MAX, r3
    36c8:	f3bf 8f6f 	isb	sy
		expire_time = cc_data[chan].target_time;
    36cc:	4b18      	ldr	r3, [pc, #96]	; (3730 <rtc_nrf_isr+0xe8>)
    36ce:	e9d3 6702 	ldrd	r6, r7, [r3, #8]
		if (curr_time >= expire_time) {
    36d2:	42b0      	cmp	r0, r6
    36d4:	eb71 0207 	sbcs.w	r2, r1, r7
    36d8:	f04f 0200 	mov.w	r2, #0
    36dc:	d320      	bcc.n	3720 <rtc_nrf_isr+0xd8>
			cc_data[chan].target_time = TARGET_TIME_INVALID;
    36de:	f04f 38ff 	mov.w	r8, #4294967295	; 0xffffffff
    36e2:	f04f 39ff 	mov.w	r9, #4294967295	; 0xffffffff
			user_context = cc_data[chan].user_context;
    36e6:	e9d3 1500 	ldrd	r1, r5, [r3]
			cc_data[chan].target_time = TARGET_TIME_INVALID;
    36ea:	e9c3 8902 	strd	r8, r9, [r3, #8]
			cc_data[chan].callback = NULL;
    36ee:	601a      	str	r2, [r3, #0]
}

NRF_STATIC_INLINE void nrf_rtc_event_disable(NRF_RTC_Type * p_reg, uint32_t mask)
{
    p_reg->EVTENCLR = mask;
    36f0:	f44f 3380 	mov.w	r3, #65536	; 0x10000
    36f4:	f8c4 3348 	str.w	r3, [r4, #840]	; 0x348
	__asm__ volatile(
    36f8:	f38c 8811 	msr	BASEPRI, ip
    36fc:	f3bf 8f6f 	isb	sy
		if (handler) {
    3700:	b121      	cbz	r1, 370c <rtc_nrf_isr+0xc4>
			handler(chan, expire_time, user_context);
    3702:	9500      	str	r5, [sp, #0]
    3704:	4632      	mov	r2, r6
    3706:	463b      	mov	r3, r7
    3708:	2000      	movs	r0, #0
    370a:	4788      	blx	r1
}
    370c:	b003      	add	sp, #12
    370e:	e8bd 83f0 	ldmia.w	sp!, {r4, r5, r6, r7, r8, r9, pc}
    *((volatile uint32_t *)((uint8_t *)p_reg + (uint32_t)event)) = 0;
    3712:	2300      	movs	r3, #0
    3714:	f8c4 3140 	str.w	r3, [r4, #320]	; 0x140
    3718:	f8d4 3140 	ldr.w	r3, [r4, #320]	; 0x140
		result = atomic_and(&force_isr_mask, ~BIT(chan)) ||
    371c:	2301      	movs	r3, #1
}
    371e:	e7c6      	b.n	36ae <rtc_nrf_isr+0x66>
		z_nrf_rtc_timer_compare_handler_t handler = NULL;
    3720:	4611      	mov	r1, r2
    3722:	e7e9      	b.n	36f8 <rtc_nrf_isr+0xb0>
    3724:	40011000 	.word	0x40011000
    3728:	200004e0 	.word	0x200004e0
    372c:	200004d8 	.word	0x200004d8
    3730:	20000258 	.word	0x20000258

00003734 <sys_clock_set_timeout>:
	ticks = (ticks == K_TICKS_FOREVER) ? MAX_TICKS : ticks;
    3734:	1c43      	adds	r3, r0, #1
{
    3736:	b513      	push	{r0, r1, r4, lr}
	ticks = (ticks == K_TICKS_FOREVER) ? MAX_TICKS : ticks;
    3738:	d021      	beq.n	377e <sys_clock_set_timeout+0x4a>
	ticks = CLAMP(ticks - 1, 0, (int32_t)MAX_TICKS);
    373a:	2801      	cmp	r0, #1
    373c:	dd21      	ble.n	3782 <sys_clock_set_timeout+0x4e>
    373e:	f5b0 0f00 	cmp.w	r0, #8388608	; 0x800000
    3742:	da20      	bge.n	3786 <sys_clock_set_timeout+0x52>
    3744:	1e44      	subs	r4, r0, #1
	uint32_t unannounced = z_nrf_rtc_timer_read() - last_count;
    3746:	f7ff fe79 	bl	343c <z_nrf_rtc_timer_read>
    374a:	4b10      	ldr	r3, [pc, #64]	; (378c <sys_clock_set_timeout+0x58>)
    374c:	e9d3 1300 	ldrd	r1, r3, [r3]
    3750:	1a40      	subs	r0, r0, r1
		ticks = 0;
    3752:	f5b0 0f00 	cmp.w	r0, #8388608	; 0x800000
    3756:	bf28      	it	cs
    3758:	2400      	movcs	r4, #0
	cyc = ticks * CYC_PER_TICK + 1 + unannounced;
    375a:	3001      	adds	r0, #1
    375c:	1902      	adds	r2, r0, r4
	uint64_t target_time = cyc + last_count;
    375e:	480c      	ldr	r0, [pc, #48]	; (3790 <sys_clock_set_timeout+0x5c>)
    3760:	4282      	cmp	r2, r0
    3762:	bf28      	it	cs
    3764:	4602      	movcs	r2, r0
    3766:	1852      	adds	r2, r2, r1
    3768:	f04f 0000 	mov.w	r0, #0
	compare_set(0, target_time, sys_clock_timeout_handler, NULL);
    376c:	4909      	ldr	r1, [pc, #36]	; (3794 <sys_clock_set_timeout+0x60>)
    376e:	9001      	str	r0, [sp, #4]
    3770:	9100      	str	r1, [sp, #0]
    3772:	f143 0300 	adc.w	r3, r3, #0
    3776:	f7ff fe83 	bl	3480 <compare_set>
}
    377a:	b002      	add	sp, #8
    377c:	bd10      	pop	{r4, pc}
	ticks = (ticks == K_TICKS_FOREVER) ? MAX_TICKS : ticks;
    377e:	4804      	ldr	r0, [pc, #16]	; (3790 <sys_clock_set_timeout+0x5c>)
    3780:	e7e0      	b.n	3744 <sys_clock_set_timeout+0x10>
	ticks = CLAMP(ticks - 1, 0, (int32_t)MAX_TICKS);
    3782:	2400      	movs	r4, #0
    3784:	e7df      	b.n	3746 <sys_clock_set_timeout+0x12>
    3786:	4c02      	ldr	r4, [pc, #8]	; (3790 <sys_clock_set_timeout+0x5c>)
    3788:	e7dd      	b.n	3746 <sys_clock_set_timeout+0x12>
    378a:	bf00      	nop
    378c:	20000268 	.word	0x20000268
    3790:	007fffff 	.word	0x007fffff
    3794:	00003369 	.word	0x00003369

00003798 <sys_clock_elapsed>:
{
    3798:	b508      	push	{r3, lr}
	return (z_nrf_rtc_timer_read() - last_count) / CYC_PER_TICK;
    379a:	f7ff fe4f 	bl	343c <z_nrf_rtc_timer_read>
    379e:	4b02      	ldr	r3, [pc, #8]	; (37a8 <sys_clock_elapsed+0x10>)
    37a0:	681b      	ldr	r3, [r3, #0]
}
    37a2:	1ac0      	subs	r0, r0, r3
    37a4:	bd08      	pop	{r3, pc}
    37a6:	bf00      	nop
    37a8:	20000268 	.word	0x20000268

000037ac <nrf52_errata_16>:
    #ifndef NRF52_SERIES
        return false;
    #else
        #if defined (NRF52832_XXAA) || defined (DEVELOP_IN_NRF52832)\
         || defined (NRF52832_XXAB) || defined (DEVELOP_IN_NRF52832)
            uint32_t var1 = ((*(uint32_t *)0xF0000FE0ul) & 0x000000FFul);
    37ac:	f04f 4370 	mov.w	r3, #4026531840	; 0xf0000000
    37b0:	f893 2fe0 	ldrb.w	r2, [r3, #4064]	; 0xfe0
            uint32_t var2 = ((*(uint32_t *)0xF0000FE8ul) & 0x000000F0ul) >> 4;
        #endif
        #if defined (NRF52832_XXAA) || defined (DEVELOP_IN_NRF52832)\
         || defined (NRF52832_XXAB) || defined (DEVELOP_IN_NRF52832)
            if (var1 == 0x06)
    37b4:	2a06      	cmp	r2, #6
    37b6:	d109      	bne.n	37cc <nrf52_errata_16+0x20>
            uint32_t var2 = ((*(uint32_t *)0xF0000FE8ul) & 0x000000F0ul) >> 4;
    37b8:	f8d3 3fe8 	ldr.w	r3, [r3, #4072]	; 0xfe8
    37bc:	f3c3 1303 	ubfx	r3, r3, #4, #4
    37c0:	3b03      	subs	r3, #3
    37c2:	2b04      	cmp	r3, #4
    37c4:	d802      	bhi.n	37cc <nrf52_errata_16+0x20>
    37c6:	4a02      	ldr	r2, [pc, #8]	; (37d0 <nrf52_errata_16+0x24>)
    37c8:	5cd0      	ldrb	r0, [r2, r3]
    37ca:	4770      	bx	lr
                    default:
                        return false;
                }
            }
        #endif
        return false;
    37cc:	2000      	movs	r0, #0
    #endif
}
    37ce:	4770      	bx	lr
    37d0:	00007457 	.word	0x00007457

000037d4 <nvmc_wait>:

/* -- NVMC utility functions -- */
/* Waits until NVMC is done with the current pending action */
void nvmc_wait(void)
{
    while (NRF_NVMC->READY == NVMC_READY_READY_Busy){}
    37d4:	4a02      	ldr	r2, [pc, #8]	; (37e0 <nvmc_wait+0xc>)
    37d6:	f8d2 3400 	ldr.w	r3, [r2, #1024]	; 0x400
    37da:	2b00      	cmp	r3, #0
    37dc:	d0fb      	beq.n	37d6 <nvmc_wait+0x2>
}
    37de:	4770      	bx	lr
    37e0:	4001e000 	.word	0x4001e000

000037e4 <SystemInit>:
{
    SystemCoreClock = __SYSTEM_CLOCK_64M;
}

void SystemInit(void)
{
    37e4:	b510      	push	{r4, lr}
    #endif

    #if NRF52_ERRATA_12_ENABLE_WORKAROUND
        /* Workaround for Errata 12 "COMP: Reference ladder not correctly calibrated" found at the Errata document
           for your device located at https://infocenter.nordicsemi.com/index.jsp */
        if (nrf52_errata_12()){
    37e6:	f003 f823 	bl	6830 <nrf52_errata_108>
    37ea:	b140      	cbz	r0, 37fe <SystemInit+0x1a>
            *(volatile uint32_t *)0x40013540 = (*(uint32_t *)0x10000324 & 0x00001F00) >> 8;
    37ec:	f04f 5380 	mov.w	r3, #268435456	; 0x10000000
    37f0:	4a90      	ldr	r2, [pc, #576]	; (3a34 <SystemInit+0x250>)
    37f2:	f8d3 3324 	ldr.w	r3, [r3, #804]	; 0x324
    37f6:	f3c3 2304 	ubfx	r3, r3, #8, #5
    37fa:	f8c2 3540 	str.w	r3, [r2, #1344]	; 0x540
    #endif

    #if NRF52_ERRATA_16_ENABLE_WORKAROUND
        /* Workaround for Errata 16 "System: RAM may be corrupt on wakeup from CPU IDLE" found at the Errata document
           for your device located at https://infocenter.nordicsemi.com/index.jsp */
        if (nrf52_errata_16()){
    37fe:	f7ff ffd5 	bl	37ac <nrf52_errata_16>
    3802:	b110      	cbz	r0, 380a <SystemInit+0x26>
            *(volatile uint32_t *)0x4007C074 = 3131961357ul;
    3804:	4b8c      	ldr	r3, [pc, #560]	; (3a38 <SystemInit+0x254>)
    3806:	4a8d      	ldr	r2, [pc, #564]	; (3a3c <SystemInit+0x258>)
    3808:	675a      	str	r2, [r3, #116]	; 0x74
    #endif

    #if NRF52_ERRATA_31_ENABLE_WORKAROUND
        /* Workaround for Errata 31 "CLOCK: Calibration values are not correctly loaded from FICR at reset" found at the Errata document
           for your device located at https://infocenter.nordicsemi.com/index.jsp */
        if (nrf52_errata_31()){
    380a:	f003 f811 	bl	6830 <nrf52_errata_108>
    380e:	b148      	cbz	r0, 3824 <SystemInit+0x40>
            *(volatile uint32_t *)0x4000053C = ((*(volatile uint32_t *)0x10000244) & 0x0000E000) >> 13;
    3810:	f04f 5380 	mov.w	r3, #268435456	; 0x10000000
    3814:	f04f 4280 	mov.w	r2, #1073741824	; 0x40000000
    3818:	f8d3 3244 	ldr.w	r3, [r3, #580]	; 0x244
    381c:	f3c3 3342 	ubfx	r3, r3, #13, #3
    3820:	f8c2 353c 	str.w	r3, [r2, #1340]	; 0x53c
    #endif

    #if NRF52_ERRATA_32_ENABLE_WORKAROUND
        /* Workaround for Errata 32 "DIF: Debug session automatically enables TracePort pins" found at the Errata document
           for your device located at https://infocenter.nordicsemi.com/index.jsp */
        if (nrf52_errata_32()){
    3824:	f7ff ffc2 	bl	37ac <nrf52_errata_16>
    3828:	b130      	cbz	r0, 3838 <SystemInit+0x54>
            CoreDebug->DEMCR &= ~CoreDebug_DEMCR_TRCENA_Msk;
    382a:	4a85      	ldr	r2, [pc, #532]	; (3a40 <SystemInit+0x25c>)
    382c:	f8d2 30fc 	ldr.w	r3, [r2, #252]	; 0xfc
    3830:	f023 7380 	bic.w	r3, r3, #16777216	; 0x1000000
    3834:	f8c2 30fc 	str.w	r3, [r2, #252]	; 0xfc
    #endif

    #if NRF52_ERRATA_36_ENABLE_WORKAROUND
        /* Workaround for Errata 36 "CLOCK: Some registers are not reset when expected" found at the Errata document
           for your device located at https://infocenter.nordicsemi.com/index.jsp  */
        if (nrf52_errata_36()){
    3838:	f002 fffa 	bl	6830 <nrf52_errata_108>
    383c:	b140      	cbz	r0, 3850 <SystemInit+0x6c>
            NRF_CLOCK->EVENTS_DONE = 0;
    383e:	f04f 4380 	mov.w	r3, #1073741824	; 0x40000000
    3842:	2200      	movs	r2, #0
    3844:	f8c3 210c 	str.w	r2, [r3, #268]	; 0x10c
            NRF_CLOCK->EVENTS_CTTO = 0;
    3848:	f8c3 2110 	str.w	r2, [r3, #272]	; 0x110
            NRF_CLOCK->CTIV = 0;
    384c:	f8c3 2538 	str.w	r2, [r3, #1336]	; 0x538
    #endif

    #if NRF52_ERRATA_37_ENABLE_WORKAROUND
        /* Workaround for Errata 37 "RADIO: Encryption engine is slow by default" found at the Errata document
           for your device located at https://infocenter.nordicsemi.com/index.jsp  */
        if (nrf52_errata_37()){
    3850:	f7ff ffac 	bl	37ac <nrf52_errata_16>
    3854:	b120      	cbz	r0, 3860 <SystemInit+0x7c>
            *(volatile uint32_t *)0x400005A0 = 0x3;
    3856:	f04f 4380 	mov.w	r3, #1073741824	; 0x40000000
    385a:	2203      	movs	r2, #3
    385c:	f8c3 25a0 	str.w	r2, [r3, #1440]	; 0x5a0
    #endif

    #if NRF52_ERRATA_57_ENABLE_WORKAROUND
        /* Workaround for Errata 57 "NFCT: NFC Modulation amplitude" found at the Errata document
           for your device located at https://infocenter.nordicsemi.com/index.jsp  */
        if (nrf52_errata_57()){
    3860:	f7ff ffa4 	bl	37ac <nrf52_errata_16>
    3864:	b160      	cbz	r0, 3880 <SystemInit+0x9c>
            *(volatile uint32_t *)0x40005610 = 0x00000005;
    3866:	4b77      	ldr	r3, [pc, #476]	; (3a44 <SystemInit+0x260>)
    3868:	2205      	movs	r2, #5
    386a:	f8c3 2610 	str.w	r2, [r3, #1552]	; 0x610
            *(volatile uint32_t *)0x40005688 = 0x00000001;
    386e:	2201      	movs	r2, #1
    3870:	f8c3 2688 	str.w	r2, [r3, #1672]	; 0x688
            *(volatile uint32_t *)0x40005618 = 0x00000000;
    3874:	2200      	movs	r2, #0
    3876:	f8c3 2618 	str.w	r2, [r3, #1560]	; 0x618
            *(volatile uint32_t *)0x40005614 = 0x0000003F;
    387a:	223f      	movs	r2, #63	; 0x3f
    387c:	f8c3 2614 	str.w	r2, [r3, #1556]	; 0x614
        #if defined (NRF52832_XXAA) || defined (DEVELOP_IN_NRF52832)\
         || defined (NRF52832_XXAB) || defined (DEVELOP_IN_NRF52832)
            uint32_t var1;
            uint32_t var2;

            if (*(uint32_t *)0x10000130ul == 0xFFFFFFFF)
    3880:	f04f 5380 	mov.w	r3, #268435456	; 0x10000000
    3884:	f8d3 2130 	ldr.w	r2, [r3, #304]	; 0x130
    3888:	1c51      	adds	r1, r2, #1
            {
                var1 = ((*(uint32_t *)0xF0000FE0ul) & 0x000000FFul);
    388a:	bf09      	itett	eq
    388c:	f04f 4370 	moveq.w	r3, #4026531840	; 0xf0000000
                var2 = ((*(uint32_t *)0xF0000FE8ul) & 0x000000F0ul) >> 4;
            }
            else
            {
                var1 = *(uint32_t *)0x10000130ul;
                var2 = *(uint32_t *)0x10000134ul;
    3890:	f8d3 3134 	ldrne.w	r3, [r3, #308]	; 0x134
                var1 = ((*(uint32_t *)0xF0000FE0ul) & 0x000000FFul);
    3894:	f893 2fe0 	ldrbeq.w	r2, [r3, #4064]	; 0xfe0
                var2 = ((*(uint32_t *)0xF0000FE8ul) & 0x000000F0ul) >> 4;
    3898:	f8d3 3fe8 	ldreq.w	r3, [r3, #4072]	; 0xfe8
    389c:	bf08      	it	eq
    389e:	f3c3 1303 	ubfxeq	r3, r3, #4, #4
            uint32_t var1 = *(uint32_t *)0x10000130ul;
            uint32_t var2 = *(uint32_t *)0x10000134ul;
        #endif
        #if defined (NRF52832_XXAA) || defined (DEVELOP_IN_NRF52832)\
         || defined (NRF52832_XXAB) || defined (DEVELOP_IN_NRF52832)
            if (var1 == 0x06)
    38a2:	2a06      	cmp	r2, #6
    38a4:	d14d      	bne.n	3942 <SystemInit+0x15e>
            {
                switch(var2)
    38a6:	3b03      	subs	r3, #3
    38a8:	2b04      	cmp	r3, #4
    38aa:	d803      	bhi.n	38b4 <SystemInit+0xd0>
    #endif

    #if NRF52_ERRATA_66_ENABLE_WORKAROUND
        /* Workaround for Errata 66 "TEMP: Linearity specification not met with default settings" found at the Errata document
           for your device located at https://infocenter.nordicsemi.com/index.jsp  */
        if (nrf52_errata_66()){
    38ac:	4a66      	ldr	r2, [pc, #408]	; (3a48 <SystemInit+0x264>)
    38ae:	5cd3      	ldrb	r3, [r2, r3]
    38b0:	2b00      	cmp	r3, #0
    38b2:	d046      	beq.n	3942 <SystemInit+0x15e>
            NRF_TEMP->A0 = NRF_FICR->TEMP.A0;
    38b4:	f04f 5280 	mov.w	r2, #268435456	; 0x10000000
    38b8:	4b64      	ldr	r3, [pc, #400]	; (3a4c <SystemInit+0x268>)
    38ba:	f8d2 1404 	ldr.w	r1, [r2, #1028]	; 0x404
    38be:	f8c3 1520 	str.w	r1, [r3, #1312]	; 0x520
            NRF_TEMP->A1 = NRF_FICR->TEMP.A1;
    38c2:	f8d2 1408 	ldr.w	r1, [r2, #1032]	; 0x408
    38c6:	f8c3 1524 	str.w	r1, [r3, #1316]	; 0x524
            NRF_TEMP->A2 = NRF_FICR->TEMP.A2;
    38ca:	f8d2 140c 	ldr.w	r1, [r2, #1036]	; 0x40c
    38ce:	f8c3 1528 	str.w	r1, [r3, #1320]	; 0x528
            NRF_TEMP->A3 = NRF_FICR->TEMP.A3;
    38d2:	f8d2 1410 	ldr.w	r1, [r2, #1040]	; 0x410
    38d6:	f8c3 152c 	str.w	r1, [r3, #1324]	; 0x52c
            NRF_TEMP->A4 = NRF_FICR->TEMP.A4;
    38da:	f8d2 1414 	ldr.w	r1, [r2, #1044]	; 0x414
    38de:	f8c3 1530 	str.w	r1, [r3, #1328]	; 0x530
            NRF_TEMP->A5 = NRF_FICR->TEMP.A5;
    38e2:	f8d2 1418 	ldr.w	r1, [r2, #1048]	; 0x418
    38e6:	f8c3 1534 	str.w	r1, [r3, #1332]	; 0x534
            NRF_TEMP->B0 = NRF_FICR->TEMP.B0;
    38ea:	f8d2 141c 	ldr.w	r1, [r2, #1052]	; 0x41c
    38ee:	f8c3 1540 	str.w	r1, [r3, #1344]	; 0x540
            NRF_TEMP->B1 = NRF_FICR->TEMP.B1;
    38f2:	f8d2 1420 	ldr.w	r1, [r2, #1056]	; 0x420
    38f6:	f8c3 1544 	str.w	r1, [r3, #1348]	; 0x544
            NRF_TEMP->B2 = NRF_FICR->TEMP.B2;
    38fa:	f8d2 1424 	ldr.w	r1, [r2, #1060]	; 0x424
    38fe:	f8c3 1548 	str.w	r1, [r3, #1352]	; 0x548
            NRF_TEMP->B3 = NRF_FICR->TEMP.B3;
    3902:	f8d2 1428 	ldr.w	r1, [r2, #1064]	; 0x428
    3906:	f8c3 154c 	str.w	r1, [r3, #1356]	; 0x54c
            NRF_TEMP->B4 = NRF_FICR->TEMP.B4;
    390a:	f8d2 142c 	ldr.w	r1, [r2, #1068]	; 0x42c
    390e:	f8c3 1550 	str.w	r1, [r3, #1360]	; 0x550
            NRF_TEMP->B5 = NRF_FICR->TEMP.B5;
    3912:	f8d2 1430 	ldr.w	r1, [r2, #1072]	; 0x430
    3916:	f8c3 1554 	str.w	r1, [r3, #1364]	; 0x554
            NRF_TEMP->T0 = NRF_FICR->TEMP.T0;
    391a:	f8d2 1434 	ldr.w	r1, [r2, #1076]	; 0x434
    391e:	f8c3 1560 	str.w	r1, [r3, #1376]	; 0x560
            NRF_TEMP->T1 = NRF_FICR->TEMP.T1;
    3922:	f8d2 1438 	ldr.w	r1, [r2, #1080]	; 0x438
    3926:	f8c3 1564 	str.w	r1, [r3, #1380]	; 0x564
            NRF_TEMP->T2 = NRF_FICR->TEMP.T2;
    392a:	f8d2 143c 	ldr.w	r1, [r2, #1084]	; 0x43c
    392e:	f8c3 1568 	str.w	r1, [r3, #1384]	; 0x568
            NRF_TEMP->T3 = NRF_FICR->TEMP.T3;
    3932:	f8d2 1440 	ldr.w	r1, [r2, #1088]	; 0x440
    3936:	f8c3 156c 	str.w	r1, [r3, #1388]	; 0x56c
            NRF_TEMP->T4 = NRF_FICR->TEMP.T4;
    393a:	f8d2 2444 	ldr.w	r2, [r2, #1092]	; 0x444
    393e:	f8c3 2570 	str.w	r2, [r3, #1392]	; 0x570
    #endif

    #if NRF52_ERRATA_108_ENABLE_WORKAROUND
        /* Workaround for Errata 108 "RAM: RAM content cannot be trusted upon waking up from System ON Idle or System OFF mode" found at the Errata document
           for your device located at https://infocenter.nordicsemi.com/index.jsp  */
        if (nrf52_errata_108()){
    3942:	f002 ff75 	bl	6830 <nrf52_errata_108>
    3946:	b148      	cbz	r0, 395c <SystemInit+0x178>
            *(volatile uint32_t *)0x40000EE4ul = *(volatile uint32_t *)0x10000258ul & 0x0000004Ful;
    3948:	f04f 5380 	mov.w	r3, #268435456	; 0x10000000
    394c:	f04f 4280 	mov.w	r2, #1073741824	; 0x40000000
    3950:	f8d3 3258 	ldr.w	r3, [r3, #600]	; 0x258
    3954:	f003 034f 	and.w	r3, r3, #79	; 0x4f
    3958:	f8c2 3ee4 	str.w	r3, [r2, #3812]	; 0xee4
    #endif

    #if NRF52_ERRATA_136_ENABLE_WORKAROUND
        /* Workaround for Errata 136 "System: Bits in RESETREAS are set when they should not be" found at the Errata document
           for your device located at https://infocenter.nordicsemi.com/index.jsp  */
        if (nrf52_errata_136()){
    395c:	f002 ff68 	bl	6830 <nrf52_errata_108>
    3960:	b148      	cbz	r0, 3976 <SystemInit+0x192>
            if (NRF_POWER->RESETREAS & POWER_RESETREAS_RESETPIN_Msk){
    3962:	f04f 4380 	mov.w	r3, #1073741824	; 0x40000000
    3966:	f8d3 2400 	ldr.w	r2, [r3, #1024]	; 0x400
    396a:	07d2      	lsls	r2, r2, #31
                NRF_POWER->RESETREAS =  ~POWER_RESETREAS_RESETPIN_Msk;
    396c:	bf44      	itt	mi
    396e:	f06f 0201 	mvnmi.w	r2, #1
    3972:	f8c3 2400 	strmi.w	r2, [r3, #1024]	; 0x400
    #ifndef NRF52_SERIES
        return false;
    #else
        #if defined (NRF52832_XXAA) || defined (DEVELOP_IN_NRF52832)\
         || defined (NRF52832_XXAB) || defined (DEVELOP_IN_NRF52832)
            uint32_t var1 = *(uint32_t *)0x10000130ul;
    3976:	f04f 5380 	mov.w	r3, #268435456	; 0x10000000
            uint32_t var2 = *(uint32_t *)0x10000134ul;
        #endif
        #if defined (NRF52832_XXAA) || defined (DEVELOP_IN_NRF52832)\
         || defined (NRF52832_XXAB) || defined (DEVELOP_IN_NRF52832)
            if (var1 == 0x06)
    397a:	f8d3 2130 	ldr.w	r2, [r3, #304]	; 0x130
    397e:	2a06      	cmp	r2, #6
    3980:	d126      	bne.n	39d0 <SystemInit+0x1ec>
            {
                switch(var2)
    3982:	f8d3 3134 	ldr.w	r3, [r3, #308]	; 0x134
    3986:	3b03      	subs	r3, #3
    3988:	2b04      	cmp	r3, #4
    398a:	d802      	bhi.n	3992 <SystemInit+0x1ae>
    #endif

    #if NRF52_ERRATA_182_ENABLE_WORKAROUND
        /* Workaround for Errata 182 "RADIO: Fixes for anomalies #102, #106, and #107 do not take effect" found at the Errata document
           for your device located at https://infocenter.nordicsemi.com/index.jsp  */
        if (nrf52_errata_182()){
    398c:	4a30      	ldr	r2, [pc, #192]	; (3a50 <SystemInit+0x26c>)
    398e:	5cd3      	ldrb	r3, [r2, r3]
    3990:	b163      	cbz	r3, 39ac <SystemInit+0x1c8>
            *(volatile uint32_t *) 0x4000173C |= (0x1 << 10);
    3992:	4a30      	ldr	r2, [pc, #192]	; (3a54 <SystemInit+0x270>)
    3994:	f8d2 373c 	ldr.w	r3, [r2, #1852]	; 0x73c
    3998:	f443 6380 	orr.w	r3, r3, #1024	; 0x400
    399c:	f8c2 373c 	str.w	r3, [r2, #1852]	; 0x73c
         || defined (NRF52820_XXAA) || defined (DEVELOP_IN_NRF52820)\
         || defined (NRF52832_XXAA) || defined (DEVELOP_IN_NRF52832)\
         || defined (NRF52832_XXAB) || defined (DEVELOP_IN_NRF52832)\
         || defined (NRF52833_XXAA) || defined (DEVELOP_IN_NRF52833)\
         || defined (NRF52840_XXAA) || defined (DEVELOP_IN_NRF52840)
            uint32_t var1 = *(uint32_t *)0x10000130ul;
    39a0:	f04f 5380 	mov.w	r3, #268435456	; 0x10000000
            uint32_t var2 = *(uint32_t *)0x10000134ul;
        #endif
        #if defined (NRF52832_XXAA) || defined (DEVELOP_IN_NRF52832)\
         || defined (NRF52832_XXAB) || defined (DEVELOP_IN_NRF52832)
            if (var1 == 0x06)
    39a4:	f8d3 3130 	ldr.w	r3, [r3, #304]	; 0x130
    39a8:	2b06      	cmp	r3, #6
    39aa:	d111      	bne.n	39d0 <SystemInit+0x1ec>
            uint32_t var2 = *(uint32_t *)0x10000134ul;
    39ac:	f04f 5380 	mov.w	r3, #268435456	; 0x10000000
    39b0:	f8d3 3134 	ldr.w	r3, [r3, #308]	; 0x134
    39b4:	3b03      	subs	r3, #3
    39b6:	2b04      	cmp	r3, #4
    39b8:	d802      	bhi.n	39c0 <SystemInit+0x1dc>
            {
                /* Prevent processor from unlocking APPROTECT soft branch after this point. */
                NRF_APPROTECT->FORCEPROTECT = APPROTECT_FORCEPROTECT_FORCEPROTECT_Force;
            }
        #else
            if (nrf52_configuration_249())
    39ba:	4a27      	ldr	r2, [pc, #156]	; (3a58 <SystemInit+0x274>)
    39bc:	5cd3      	ldrb	r3, [r2, r3]
    39be:	b13b      	cbz	r3, 39d0 <SystemInit+0x1ec>
            {
                /* Load APPROTECT soft branch from UICR.
                   If UICR->APPROTECT is disabled, POWER->APPROTECT will be disabled. */
                NRF_APPROTECT->DISABLE = NRF_UICR->APPROTECT;
    39c0:	f04f 2310 	mov.w	r3, #268439552	; 0x10001000
    39c4:	f8d3 2208 	ldr.w	r2, [r3, #520]	; 0x208
    39c8:	f04f 4380 	mov.w	r3, #1073741824	; 0x40000000
    39cc:	f8c3 2558 	str.w	r2, [r3, #1368]	; 0x558

    /* Configure GPIO pads as pPin Reset pin if Pin Reset capabilities desired. If CONFIG_GPIO_AS_PINRESET is not
      defined, pin reset will not be available. One GPIO (see Product Specification to see which one) will then be
      reserved for PinReset and not available as normal GPIO. */
    #if defined (CONFIG_GPIO_AS_PINRESET)
        if (((NRF_UICR->PSELRESET[0] & UICR_PSELRESET_CONNECT_Msk) != (UICR_PSELRESET_CONNECT_Connected << UICR_PSELRESET_CONNECT_Pos)) ||
    39d0:	f04f 2310 	mov.w	r3, #268439552	; 0x10001000
    39d4:	f8d3 2200 	ldr.w	r2, [r3, #512]	; 0x200
    39d8:	2a00      	cmp	r2, #0
    39da:	db03      	blt.n	39e4 <SystemInit+0x200>
            ((NRF_UICR->PSELRESET[1] & UICR_PSELRESET_CONNECT_Msk) != (UICR_PSELRESET_CONNECT_Connected << UICR_PSELRESET_CONNECT_Pos))){
    39dc:	f8d3 3204 	ldr.w	r3, [r3, #516]	; 0x204
        if (((NRF_UICR->PSELRESET[0] & UICR_PSELRESET_CONNECT_Msk) != (UICR_PSELRESET_CONNECT_Connected << UICR_PSELRESET_CONNECT_Pos)) ||
    39e0:	2b00      	cmp	r3, #0
    39e2:	da22      	bge.n	3a2a <SystemInit+0x246>
    NRF_NVMC->CONFIG = mode << NVMC_CONFIG_WEN_Pos;
    39e4:	491d      	ldr	r1, [pc, #116]	; (3a5c <SystemInit+0x278>)
    39e6:	2301      	movs	r3, #1
            nvmc_config(NVMC_CONFIG_WEN_Wen);
            NRF_UICR->PSELRESET[0] = RESET_PIN;
    39e8:	f04f 2010 	mov.w	r0, #268439552	; 0x10001000
    NRF_NVMC->CONFIG = mode << NVMC_CONFIG_WEN_Pos;
    39ec:	f8c1 3504 	str.w	r3, [r1, #1284]	; 0x504
            NRF_UICR->PSELRESET[0] = RESET_PIN;
    39f0:	2415      	movs	r4, #21
    nvmc_wait();
    39f2:	f7ff feef 	bl	37d4 <nvmc_wait>
            NRF_UICR->PSELRESET[0] = RESET_PIN;
    39f6:	f8c0 4200 	str.w	r4, [r0, #512]	; 0x200
            nvmc_wait();
    39fa:	f7ff feeb 	bl	37d4 <nvmc_wait>
            NRF_UICR->PSELRESET[1] = RESET_PIN;
    39fe:	f8c0 4204 	str.w	r4, [r0, #516]	; 0x204
            nvmc_wait();
    3a02:	f7ff fee7 	bl	37d4 <nvmc_wait>
    NRF_NVMC->CONFIG = mode << NVMC_CONFIG_WEN_Pos;
    3a06:	2300      	movs	r3, #0
    3a08:	f8c1 3504 	str.w	r3, [r1, #1284]	; 0x504
    nvmc_wait();
    3a0c:	f7ff fee2 	bl	37d4 <nvmc_wait>
  __ASM volatile ("dsb 0xF":::"memory");
    3a10:	f3bf 8f4f 	dsb	sy
__NO_RETURN __STATIC_INLINE void __NVIC_SystemReset(void)
{
  __DSB();                                                          /* Ensure all outstanding memory accesses included
                                                                       buffered write are completed before reset */
  SCB->AIRCR  = (uint32_t)((0x5FAUL << SCB_AIRCR_VECTKEY_Pos)    |
                           (SCB->AIRCR & SCB_AIRCR_PRIGROUP_Msk) |
    3a14:	490a      	ldr	r1, [pc, #40]	; (3a40 <SystemInit+0x25c>)
    3a16:	4b12      	ldr	r3, [pc, #72]	; (3a60 <SystemInit+0x27c>)
    3a18:	68ca      	ldr	r2, [r1, #12]
    3a1a:	f402 62e0 	and.w	r2, r2, #1792	; 0x700
    3a1e:	4313      	orrs	r3, r2
  SCB->AIRCR  = (uint32_t)((0x5FAUL << SCB_AIRCR_VECTKEY_Pos)    |
    3a20:	60cb      	str	r3, [r1, #12]
    3a22:	f3bf 8f4f 	dsb	sy
                            SCB_AIRCR_SYSRESETREQ_Msk    );         /* Keep priority group unchanged */
  __DSB();                                                          /* Ensure completion of memory access */

  for(;;)                                                           /* wait until reset */
  {
    __NOP();
    3a26:	bf00      	nop
  for(;;)                                                           /* wait until reset */
    3a28:	e7fd      	b.n	3a26 <SystemInit+0x242>
    SystemCoreClock = __SYSTEM_CLOCK_64M;
    3a2a:	4b0e      	ldr	r3, [pc, #56]	; (3a64 <SystemInit+0x280>)
    3a2c:	4a0e      	ldr	r2, [pc, #56]	; (3a68 <SystemInit+0x284>)
    3a2e:	601a      	str	r2, [r3, #0]
            NVIC_SystemReset();
        }
    #endif

    SystemCoreClockUpdate();
}
    3a30:	bd10      	pop	{r4, pc}
    3a32:	bf00      	nop
    3a34:	40013000 	.word	0x40013000
    3a38:	4007c000 	.word	0x4007c000
    3a3c:	baadf00d 	.word	0xbaadf00d
    3a40:	e000ed00 	.word	0xe000ed00
    3a44:	40005000 	.word	0x40005000
    3a48:	00007448 	.word	0x00007448
    3a4c:	4000c000 	.word	0x4000c000
    3a50:	0000744d 	.word	0x0000744d
    3a54:	40001000 	.word	0x40001000
    3a58:	00007452 	.word	0x00007452
    3a5c:	4001e000 	.word	0x4001e000
    3a60:	05fa0004 	.word	0x05fa0004
    3a64:	200000a4 	.word	0x200000a4
    3a68:	03d09000 	.word	0x03d09000

00003a6c <nrfx_flag32_alloc>:
{
    return (mask & NRFX_BIT(bitpos)) ? false : true;
}

nrfx_err_t nrfx_flag32_alloc(nrfx_atomic_t * p_mask, uint8_t *p_flag)
{
    3a6c:	b570      	push	{r4, r5, r6, lr}
        idx = 31 - NRF_CLZ(prev_mask);
        if (idx < 0) {
            return NRFX_ERROR_NO_MEM;
        }

        new_mask = prev_mask & ~NRFX_BIT(idx);
    3a6e:	2501      	movs	r5, #1
        prev_mask = *p_mask;
    3a70:	6802      	ldr	r2, [r0, #0]
        idx = 31 - NRF_CLZ(prev_mask);
    3a72:	fab2 f382 	clz	r3, r2
    3a76:	f1c3 031f 	rsb	r3, r3, #31
        if (idx < 0) {
    3a7a:	1c5e      	adds	r6, r3, #1
        idx = 31 - NRF_CLZ(prev_mask);
    3a7c:	b2dc      	uxtb	r4, r3
        if (idx < 0) {
    3a7e:	d014      	beq.n	3aaa <nrfx_flag32_alloc+0x3e>
	return __atomic_compare_exchange_n(target, &old_value, new_value,
    3a80:	f3bf 8f5b 	dmb	ish
        new_mask = prev_mask & ~NRFX_BIT(idx);
    3a84:	fa05 f303 	lsl.w	r3, r5, r3
    3a88:	ea22 0303 	bic.w	r3, r2, r3
    3a8c:	e850 6f00 	ldrex	r6, [r0]
    3a90:	4296      	cmp	r6, r2
    3a92:	d104      	bne.n	3a9e <nrfx_flag32_alloc+0x32>
    3a94:	e840 3c00 	strex	ip, r3, [r0]
    3a98:	f1bc 0f00 	cmp.w	ip, #0
    3a9c:	d1f6      	bne.n	3a8c <nrfx_flag32_alloc+0x20>
    3a9e:	f3bf 8f5b 	dmb	ish
    } while (!NRFX_ATOMIC_CAS(p_mask, prev_mask, new_mask));
    3aa2:	d1e5      	bne.n	3a70 <nrfx_flag32_alloc+0x4>

    *p_flag = idx;

    return NRFX_SUCCESS;
    3aa4:	4802      	ldr	r0, [pc, #8]	; (3ab0 <nrfx_flag32_alloc+0x44>)
    *p_flag = idx;
    3aa6:	700c      	strb	r4, [r1, #0]
}
    3aa8:	bd70      	pop	{r4, r5, r6, pc}
            return NRFX_ERROR_NO_MEM;
    3aaa:	4802      	ldr	r0, [pc, #8]	; (3ab4 <nrfx_flag32_alloc+0x48>)
    3aac:	e7fc      	b.n	3aa8 <nrfx_flag32_alloc+0x3c>
    3aae:	bf00      	nop
    3ab0:	0bad0000 	.word	0x0bad0000
    3ab4:	0bad0002 	.word	0x0bad0002

00003ab8 <nrfx_flag32_free>:

nrfx_err_t nrfx_flag32_free(nrfx_atomic_t * p_mask, uint8_t flag)
{
    uint32_t new_mask, prev_mask;

    if ((NRFX_BIT(flag) & *p_mask))
    3ab8:	6803      	ldr	r3, [r0, #0]
    3aba:	40cb      	lsrs	r3, r1
    3abc:	07db      	lsls	r3, r3, #31
{
    3abe:	b510      	push	{r4, lr}
    if ((NRFX_BIT(flag) & *p_mask))
    3ac0:	d415      	bmi.n	3aee <nrfx_flag32_free+0x36>
        return NRFX_ERROR_INVALID_PARAM;
    }

    do {
        prev_mask = *p_mask;
        new_mask = prev_mask | NRFX_BIT(flag);
    3ac2:	2301      	movs	r3, #1
    3ac4:	fa03 f101 	lsl.w	r1, r3, r1
        prev_mask = *p_mask;
    3ac8:	6803      	ldr	r3, [r0, #0]
    3aca:	f3bf 8f5b 	dmb	ish
        new_mask = prev_mask | NRFX_BIT(flag);
    3ace:	ea41 0203 	orr.w	r2, r1, r3
    3ad2:	e850 4f00 	ldrex	r4, [r0]
    3ad6:	429c      	cmp	r4, r3
    3ad8:	d104      	bne.n	3ae4 <nrfx_flag32_free+0x2c>
    3ada:	e840 2c00 	strex	ip, r2, [r0]
    3ade:	f1bc 0f00 	cmp.w	ip, #0
    3ae2:	d1f6      	bne.n	3ad2 <nrfx_flag32_free+0x1a>
    3ae4:	f3bf 8f5b 	dmb	ish
    } while (!NRFX_ATOMIC_CAS(p_mask, prev_mask, new_mask));
    3ae8:	d1ee      	bne.n	3ac8 <nrfx_flag32_free+0x10>

    return NRFX_SUCCESS;
    3aea:	4802      	ldr	r0, [pc, #8]	; (3af4 <nrfx_flag32_free+0x3c>)
}
    3aec:	bd10      	pop	{r4, pc}
        return NRFX_ERROR_INVALID_PARAM;
    3aee:	4802      	ldr	r0, [pc, #8]	; (3af8 <nrfx_flag32_free+0x40>)
    3af0:	e7fc      	b.n	3aec <nrfx_flag32_free+0x34>
    3af2:	bf00      	nop
    3af4:	0bad0000 	.word	0x0bad0000
    3af8:	0bad0004 	.word	0x0bad0004

00003afc <nrfx_clock_init>:
nrfx_err_t nrfx_clock_init(nrfx_clock_event_handler_t event_handler)
{
    NRFX_ASSERT(event_handler);

    nrfx_err_t err_code = NRFX_SUCCESS;
    if (m_clock_cb.module_initialized)
    3afc:	4b04      	ldr	r3, [pc, #16]	; (3b10 <nrfx_clock_init+0x14>)
    3afe:	791a      	ldrb	r2, [r3, #4]
    3b00:	b922      	cbnz	r2, 3b0c <nrfx_clock_init+0x10>
    {
#if NRFX_CHECK(NRFX_CLOCK_CONFIG_LF_CAL_ENABLED)
        m_clock_cb.cal_state = CAL_STATE_IDLE;
#endif
        m_clock_cb.event_handler = event_handler;
        m_clock_cb.module_initialized = true;
    3b02:	2201      	movs	r2, #1
        m_clock_cb.event_handler = event_handler;
    3b04:	6018      	str	r0, [r3, #0]
        m_clock_cb.module_initialized = true;
    3b06:	809a      	strh	r2, [r3, #4]
    nrfx_err_t err_code = NRFX_SUCCESS;
    3b08:	4802      	ldr	r0, [pc, #8]	; (3b14 <nrfx_clock_init+0x18>)
    3b0a:	4770      	bx	lr
        err_code = NRFX_ERROR_ALREADY_INITIALIZED;
    3b0c:	4802      	ldr	r0, [pc, #8]	; (3b18 <nrfx_clock_init+0x1c>)
#endif
    }

    NRFX_LOG_INFO("Function: %s, error code: %s.", __func__, NRFX_LOG_ERROR_STRING_GET(err_code));
    return err_code;
}
    3b0e:	4770      	bx	lr
    3b10:	200004e4 	.word	0x200004e4
    3b14:	0bad0000 	.word	0x0bad0000
    3b18:	0bad000c 	.word	0x0bad000c

00003b1c <nrfx_clock_start>:
    m_clock_cb.module_initialized = false;
    NRFX_LOG_INFO("Uninitialized.");
}

void nrfx_clock_start(nrf_clock_domain_t domain)
{
    3b1c:	b530      	push	{r4, r5, lr}
    NRFX_ASSERT(m_clock_cb.module_initialized);
    switch (domain)
    3b1e:	b110      	cbz	r0, 3b26 <nrfx_clock_start+0xa>
    3b20:	2801      	cmp	r0, #1
    3b22:	d034      	beq.n	3b8e <nrfx_clock_start+0x72>
#endif
        default:
            NRFX_ASSERT(0);
            break;
    }
}
    3b24:	bd30      	pop	{r4, r5, pc}
                    (nrf_clock_lfclk_t)((p_reg->LFCLKSTAT & CLOCK_LFCLKSTAT_SRC_Msk)
    3b26:	f04f 4380 	mov.w	r3, #1073741824	; 0x40000000
    3b2a:	f8d3 2418 	ldr.w	r2, [r3, #1048]	; 0x418
            if ((p_reg->LFCLKSTAT & CLOCK_LFCLKSTAT_STATE_Msk)
    3b2e:	f8d3 1418 	ldr.w	r1, [r3, #1048]	; 0x418
    3b32:	03c9      	lsls	r1, r1, #15
    3b34:	d529      	bpl.n	3b8a <nrfx_clock_start+0x6e>
                                        >> CLOCK_LFCLKSTAT_SRC_Pos);
    3b36:	f002 0203 	and.w	r2, r2, #3
                if (nrf_clock_is_running(NRF_CLOCK, NRF_CLOCK_DOMAIN_LFCLK, &lfclksrc) &&
    3b3a:	2a01      	cmp	r2, #1
    3b3c:	d125      	bne.n	3b8a <nrfx_clock_start+0x6e>
    p_reg->LFCLKSRC = (uint32_t)(source);
    3b3e:	f8c3 2518 	str.w	r2, [r3, #1304]	; 0x518
    *((volatile uint32_t *)((uint8_t *)p_reg + (uint32_t)event)) = 0x0UL;
    3b42:	f04f 4380 	mov.w	r3, #1073741824	; 0x40000000
    3b46:	2200      	movs	r2, #0
    3b48:	f8c3 2104 	str.w	r2, [r3, #260]	; 0x104
    3b4c:	f8d3 2104 	ldr.w	r2, [r3, #260]	; 0x104
    p_reg->INTENSET = mask;
    3b50:	2202      	movs	r2, #2
    3b52:	f8c3 2304 	str.w	r2, [r3, #772]	; 0x304
    core_debug = CoreDebug->DEMCR;
    3b56:	4a13      	ldr	r2, [pc, #76]	; (3ba4 <nrfx_clock_start+0x88>)
    3b58:	f8d2 00fc 	ldr.w	r0, [r2, #252]	; 0xfc
    CoreDebug->DEMCR = core_debug | CoreDebug_DEMCR_TRCENA_Msk;
    3b5c:	f040 7380 	orr.w	r3, r0, #16777216	; 0x1000000
    3b60:	f8c2 30fc 	str.w	r3, [r2, #252]	; 0xfc
    dwt_ctrl = DWT->CTRL;
    3b64:	4b10      	ldr	r3, [pc, #64]	; (3ba8 <nrfx_clock_start+0x8c>)
    3b66:	681c      	ldr	r4, [r3, #0]
    DWT->CTRL = dwt_ctrl | DWT_CTRL_CYCCNTENA_Msk;
    3b68:	f044 0101 	orr.w	r1, r4, #1
    3b6c:	6019      	str	r1, [r3, #0]
    cyccnt_inital = DWT->CYCCNT;
    3b6e:	685d      	ldr	r5, [r3, #4]
    while ((DWT->CYCCNT - cyccnt_inital) < ANOMALY_132_DELAY_CYCLES)
    3b70:	6859      	ldr	r1, [r3, #4]
    3b72:	1b49      	subs	r1, r1, r5
    3b74:	f5b1 5f0a 	cmp.w	r1, #8832	; 0x2280
    3b78:	d3fa      	bcc.n	3b70 <nrfx_clock_start+0x54>
    DWT->CTRL = dwt_ctrl;
    3b7a:	601c      	str	r4, [r3, #0]
    *((volatile uint32_t *)((uint8_t *)p_reg + (uint32_t)task)) = 0x1UL;
    3b7c:	f04f 4380 	mov.w	r3, #1073741824	; 0x40000000
    CoreDebug->DEMCR = core_debug;
    3b80:	f8c2 00fc 	str.w	r0, [r2, #252]	; 0xfc
    3b84:	2201      	movs	r2, #1
    3b86:	609a      	str	r2, [r3, #8]
}
    3b88:	e7cc      	b.n	3b24 <nrfx_clock_start+0x8>
    p_reg->LFCLKSRC = (uint32_t)(source);
    3b8a:	2200      	movs	r2, #0
    3b8c:	e7d7      	b.n	3b3e <nrfx_clock_start+0x22>
    *((volatile uint32_t *)((uint8_t *)p_reg + (uint32_t)event)) = 0x0UL;
    3b8e:	f04f 4380 	mov.w	r3, #1073741824	; 0x40000000
    3b92:	2200      	movs	r2, #0
    3b94:	f8c3 2100 	str.w	r2, [r3, #256]	; 0x100
    3b98:	f8d3 2100 	ldr.w	r2, [r3, #256]	; 0x100
    p_reg->INTENSET = mask;
    3b9c:	f8c3 0304 	str.w	r0, [r3, #772]	; 0x304
    *((volatile uint32_t *)((uint8_t *)p_reg + (uint32_t)task)) = 0x1UL;
    3ba0:	6018      	str	r0, [r3, #0]
}
    3ba2:	e7bf      	b.n	3b24 <nrfx_clock_start+0x8>
    3ba4:	e000ed00 	.word	0xe000ed00
    3ba8:	e0001000 	.word	0xe0001000

00003bac <nrfx_clock_stop>:

void nrfx_clock_stop(nrf_clock_domain_t domain)
{
    3bac:	b538      	push	{r3, r4, r5, lr}
    NRFX_ASSERT(m_clock_cb.module_initialized);
    switch (domain)
    3bae:	b110      	cbz	r0, 3bb6 <nrfx_clock_stop+0xa>
    3bb0:	2801      	cmp	r0, #1
    3bb2:	d017      	beq.n	3be4 <nrfx_clock_stop+0x38>
    if (domain == NRF_CLOCK_DOMAIN_HFCLK)
    {
            m_clock_cb.hfclk_started = false;
    }
#endif
}
    3bb4:	bd38      	pop	{r3, r4, r5, pc}
    p_reg->INTENCLR = mask;
    3bb6:	f04f 4480 	mov.w	r4, #1073741824	; 0x40000000
    3bba:	2302      	movs	r3, #2
    3bbc:	f8c4 3308 	str.w	r3, [r4, #776]	; 0x308
    *((volatile uint32_t *)((uint8_t *)p_reg + (uint32_t)event)) = 0x0UL;
    3bc0:	f8c4 0104 	str.w	r0, [r4, #260]	; 0x104
    3bc4:	f8d4 3104 	ldr.w	r3, [r4, #260]	; 0x104
    *((volatile uint32_t *)((uint8_t *)p_reg + (uint32_t)task)) = 0x1UL;
    3bc8:	2301      	movs	r3, #1
    3bca:	60e3      	str	r3, [r4, #12]
    3bcc:	f242 7510 	movw	r5, #10000	; 0x2710
            if ((p_reg->LFCLKSTAT & CLOCK_LFCLKSTAT_STATE_Msk)
    3bd0:	f8d4 3418 	ldr.w	r3, [r4, #1048]	; 0x418
    3bd4:	03db      	lsls	r3, r3, #15
    3bd6:	d5ed      	bpl.n	3bb4 <nrfx_clock_stop+0x8>
        NRFX_WAIT_FOR(!nrfx_clock_is_running(domain, NULL), 10000, 1, stopped);
    3bd8:	2001      	movs	r0, #1
    3bda:	f002 fe38 	bl	684e <nrfx_busy_wait>
    3bde:	3d01      	subs	r5, #1
    3be0:	d1f6      	bne.n	3bd0 <nrfx_clock_stop+0x24>
    3be2:	e7e7      	b.n	3bb4 <nrfx_clock_stop+0x8>
    p_reg->INTENCLR = mask;
    3be4:	f04f 4480 	mov.w	r4, #1073741824	; 0x40000000
    *((volatile uint32_t *)((uint8_t *)p_reg + (uint32_t)event)) = 0x0UL;
    3be8:	2300      	movs	r3, #0
    p_reg->INTENCLR = mask;
    3bea:	f8c4 0308 	str.w	r0, [r4, #776]	; 0x308
    *((volatile uint32_t *)((uint8_t *)p_reg + (uint32_t)event)) = 0x0UL;
    3bee:	f8c4 3100 	str.w	r3, [r4, #256]	; 0x100
    3bf2:	f8d4 3100 	ldr.w	r3, [r4, #256]	; 0x100
    *((volatile uint32_t *)((uint8_t *)p_reg + (uint32_t)task)) = 0x1UL;
    3bf6:	6060      	str	r0, [r4, #4]
    3bf8:	f242 7510 	movw	r5, #10000	; 0x2710
                    (nrf_clock_hfclk_t)((p_reg->HFCLKSTAT & CLOCK_HFCLKSTAT_SRC_Msk)
    3bfc:	f8d4 340c 	ldr.w	r3, [r4, #1036]	; 0x40c
            if ((p_reg->HFCLKSTAT & CLOCK_HFCLKSTAT_STATE_Msk)
    3c00:	f8d4 240c 	ldr.w	r2, [r4, #1036]	; 0x40c
    3c04:	03d2      	lsls	r2, r2, #15
                    (nrf_clock_hfclk_t)((p_reg->HFCLKSTAT & CLOCK_HFCLKSTAT_SRC_Msk)
    3c06:	f003 0301 	and.w	r3, r3, #1
            if ((p_reg->HFCLKSTAT & CLOCK_HFCLKSTAT_STATE_Msk)
    3c0a:	d505      	bpl.n	3c18 <nrfx_clock_stop+0x6c>
        NRFX_WAIT_FOR((!nrfx_clock_is_running(domain, &clk_src) ||
    3c0c:	b123      	cbz	r3, 3c18 <nrfx_clock_stop+0x6c>
    3c0e:	2001      	movs	r0, #1
    3c10:	f002 fe1d 	bl	684e <nrfx_busy_wait>
    3c14:	3d01      	subs	r5, #1
    3c16:	d1f1      	bne.n	3bfc <nrfx_clock_stop+0x50>
            m_clock_cb.hfclk_started = false;
    3c18:	4b01      	ldr	r3, [pc, #4]	; (3c20 <nrfx_clock_stop+0x74>)
    3c1a:	2200      	movs	r2, #0
    3c1c:	715a      	strb	r2, [r3, #5]
    3c1e:	e7c9      	b.n	3bb4 <nrfx_clock_stop+0x8>
    3c20:	200004e4 	.word	0x200004e4

00003c24 <nrfx_power_clock_irq_handler>:
    return (bool)*((volatile uint32_t *)((uint8_t *)p_reg + event));
    3c24:	f04f 4380 	mov.w	r3, #1073741824	; 0x40000000
    }
}
#endif

void nrfx_clock_irq_handler(void)
{
    3c28:	b510      	push	{r4, lr}
    3c2a:	f8d3 2100 	ldr.w	r2, [r3, #256]	; 0x100
    if (nrf_clock_event_check(NRF_CLOCK, NRF_CLOCK_EVENT_HFCLKSTARTED))
    3c2e:	b16a      	cbz	r2, 3c4c <nrfx_power_clock_irq_handler+0x28>
    *((volatile uint32_t *)((uint8_t *)p_reg + (uint32_t)event)) = 0x0UL;
    3c30:	2200      	movs	r2, #0
    3c32:	f8c3 2100 	str.w	r2, [r3, #256]	; 0x100
    3c36:	f8d3 2100 	ldr.w	r2, [r3, #256]	; 0x100
    p_reg->INTENCLR = mask;
    3c3a:	2201      	movs	r2, #1
    3c3c:	f8c3 2308 	str.w	r2, [r3, #776]	; 0x308
        nrf_clock_event_clear(NRF_CLOCK, NRF_CLOCK_EVENT_HFCLKSTARTED);
        NRFX_LOG_DEBUG("Event: NRF_CLOCK_EVENT_HFCLKSTARTED");
        nrf_clock_int_disable(NRF_CLOCK, NRF_CLOCK_INT_HF_STARTED_MASK);

#if NRFX_CHECK(USE_WORKAROUND_FOR_ANOMALY_201)
        if (!m_clock_cb.hfclk_started)
    3c40:	4b11      	ldr	r3, [pc, #68]	; (3c88 <nrfx_power_clock_irq_handler+0x64>)
    3c42:	7958      	ldrb	r0, [r3, #5]
    3c44:	b910      	cbnz	r0, 3c4c <nrfx_power_clock_irq_handler+0x28>
        {
            m_clock_cb.hfclk_started = true;
    3c46:	715a      	strb	r2, [r3, #5]
            m_clock_cb.event_handler(NRFX_CLOCK_EVT_HFCLK_STARTED);
    3c48:	681b      	ldr	r3, [r3, #0]
    3c4a:	4798      	blx	r3
    return (bool)*((volatile uint32_t *)((uint8_t *)p_reg + event));
    3c4c:	f04f 4380 	mov.w	r3, #1073741824	; 0x40000000
    3c50:	f8d3 2104 	ldr.w	r2, [r3, #260]	; 0x104
        }
#else
        m_clock_cb.event_handler(NRFX_CLOCK_EVT_HFCLK_STARTED);
#endif
    }
    if (nrf_clock_event_check(NRF_CLOCK, NRF_CLOCK_EVENT_LFCLKSTARTED))
    3c54:	b172      	cbz	r2, 3c74 <nrfx_power_clock_irq_handler+0x50>
    *((volatile uint32_t *)((uint8_t *)p_reg + (uint32_t)event)) = 0x0UL;
    3c56:	2200      	movs	r2, #0
    3c58:	f8c3 2104 	str.w	r2, [r3, #260]	; 0x104
    3c5c:	f8d3 2104 	ldr.w	r2, [r3, #260]	; 0x104
                    (nrf_clock_lfclk_t)((p_reg->LFCLKSTAT & CLOCK_LFCLKSTAT_SRC_Msk)
    3c60:	f8d3 2418 	ldr.w	r2, [r3, #1048]	; 0x418
            if ((p_reg->LFCLKSTAT & CLOCK_LFCLKSTAT_STATE_Msk)
    3c64:	f8d3 1418 	ldr.w	r1, [r3, #1048]	; 0x418
        NRFX_LOG_DEBUG("Event: NRF_CLOCK_EVENT_LFCLKSTARTED");

#if NRFX_CHECK(NRFX_CLOCK_CONFIG_LFXO_TWO_STAGE_ENABLED)
        nrf_clock_lfclk_t lfclksrc;
        (void)nrf_clock_is_running(NRF_CLOCK, NRF_CLOCK_DOMAIN_LFCLK, &lfclksrc);
        if (lfclksrc == NRF_CLOCK_LFCLK_RC)
    3c68:	0792      	lsls	r2, r2, #30
    3c6a:	d104      	bne.n	3c76 <nrfx_power_clock_irq_handler+0x52>
    p_reg->LFCLKSRC = (uint32_t)(source);
    3c6c:	2201      	movs	r2, #1
    3c6e:	f8c3 2518 	str.w	r2, [r3, #1304]	; 0x518
    *((volatile uint32_t *)((uint8_t *)p_reg + (uint32_t)task)) = 0x1UL;
    3c72:	609a      	str	r2, [r3, #8]
        nrf_clock_int_disable(NRF_CLOCK, NRF_CLOCK_INT_HF192M_STARTED_MASK);

        m_clock_cb.event_handler(NRFX_CLOCK_EVT_HFCLK192M_STARTED);
    }
#endif
}
    3c74:	bd10      	pop	{r4, pc}
    p_reg->INTENCLR = mask;
    3c76:	2202      	movs	r2, #2
    3c78:	f8c3 2308 	str.w	r2, [r3, #776]	; 0x308
            m_clock_cb.event_handler(NRFX_CLOCK_EVT_LFCLK_STARTED);
    3c7c:	4b02      	ldr	r3, [pc, #8]	; (3c88 <nrfx_power_clock_irq_handler+0x64>)
}
    3c7e:	e8bd 4010 	ldmia.w	sp!, {r4, lr}
            m_clock_cb.event_handler(NRFX_CLOCK_EVT_LFCLK_STARTED);
    3c82:	681b      	ldr	r3, [r3, #0]
    3c84:	2001      	movs	r0, #1
    3c86:	4718      	bx	r3
    3c88:	200004e4 	.word	0x200004e4

00003c8c <pin_in_use_by_te>:
 *
 * @return True if pin uses GPIOTE task/event.
 */
static bool pin_in_use_by_te(uint32_t pin)
{
    return m_cb.pin_flags[pin] & PIN_FLAG_TE_USED;
    3c8c:	4b03      	ldr	r3, [pc, #12]	; (3c9c <pin_in_use_by_te+0x10>)
    3c8e:	3008      	adds	r0, #8
    3c90:	f833 0010 	ldrh.w	r0, [r3, r0, lsl #1]
}
    3c94:	f3c0 1040 	ubfx	r0, r0, #5, #1
    3c98:	4770      	bx	lr
    3c9a:	bf00      	nop
    3c9c:	200000a8 	.word	0x200000a8

00003ca0 <call_handler>:
    nrf_gpiote_event_t event = nrfx_gpiote_in_event_get(pin);
    return nrf_gpiote_event_address_get(NRF_GPIOTE, event);
}

static void call_handler(nrfx_gpiote_pin_t pin, nrfx_gpiote_trigger_t trigger)
{
    3ca0:	b570      	push	{r4, r5, r6, lr}
    int32_t handler_id = PIN_GET_HANDLER_ID(m_cb.pin_flags[pin]);
    3ca2:	f100 0308 	add.w	r3, r0, #8
    3ca6:	4c0c      	ldr	r4, [pc, #48]	; (3cd8 <call_handler+0x38>)
    3ca8:	f834 3013 	ldrh.w	r3, [r4, r3, lsl #1]
    3cac:	05da      	lsls	r2, r3, #23
{
    3cae:	4605      	mov	r5, r0
    3cb0:	460e      	mov	r6, r1
    int32_t handler_id = PIN_GET_HANDLER_ID(m_cb.pin_flags[pin]);
    3cb2:	d507      	bpl.n	3cc4 <call_handler+0x24>
    3cb4:	f3c3 2343 	ubfx	r3, r3, #9, #4
    nrfx_gpiote_handler_config_t const * handler = channel_handler_get(pin);

    if (handler)
    {
        handler->handler(pin, trigger, handler->p_context);
    3cb8:	eb04 02c3 	add.w	r2, r4, r3, lsl #3
    3cbc:	f854 3033 	ldr.w	r3, [r4, r3, lsl #3]
    3cc0:	6852      	ldr	r2, [r2, #4]
    3cc2:	4798      	blx	r3
    }
    if (m_cb.global_handler.handler)
    3cc4:	68a3      	ldr	r3, [r4, #8]
    3cc6:	b12b      	cbz	r3, 3cd4 <call_handler+0x34>
    {
        m_cb.global_handler.handler(pin, trigger, m_cb.global_handler.p_context);
    3cc8:	68e2      	ldr	r2, [r4, #12]
    3cca:	4631      	mov	r1, r6
    3ccc:	4628      	mov	r0, r5
    }
}
    3cce:	e8bd 4070 	ldmia.w	sp!, {r4, r5, r6, lr}
        m_cb.global_handler.handler(pin, trigger, m_cb.global_handler.p_context);
    3cd2:	4718      	bx	r3
}
    3cd4:	bd70      	pop	{r4, r5, r6, pc}
    3cd6:	bf00      	nop
    3cd8:	200000a8 	.word	0x200000a8

00003cdc <release_handler>:
    int32_t handler_id = PIN_GET_HANDLER_ID(m_cb.pin_flags[pin]);
    3cdc:	4a12      	ldr	r2, [pc, #72]	; (3d28 <release_handler+0x4c>)
    3cde:	3008      	adds	r0, #8
{
    3ce0:	b410      	push	{r4}
    int32_t handler_id = PIN_GET_HANDLER_ID(m_cb.pin_flags[pin]);
    3ce2:	f832 3010 	ldrh.w	r3, [r2, r0, lsl #1]
    3ce6:	05d9      	lsls	r1, r3, #23
    3ce8:	d51b      	bpl.n	3d22 <release_handler+0x46>
    3cea:	f3c3 2143 	ubfx	r1, r3, #9, #4
    m_cb.pin_flags[pin] &= ~PIN_HANDLER_MASK;
    3cee:	f423 53f8 	bic.w	r3, r3, #7936	; 0x1f00
    3cf2:	f822 3010 	strh.w	r3, [r2, r0, lsl #1]
    for (uint32_t i = 0; i < MAX_PIN_NUMBER; i++)
    3cf6:	f102 0410 	add.w	r4, r2, #16
    3cfa:	2000      	movs	r0, #0
        if (PIN_GET_HANDLER_ID(m_cb.pin_flags[i]) == handler_id)
    3cfc:	f834 3b02 	ldrh.w	r3, [r4], #2
    3d00:	f413 7f80 	tst.w	r3, #256	; 0x100
    3d04:	d003      	beq.n	3d0e <release_handler+0x32>
    3d06:	f3c3 2343 	ubfx	r3, r3, #9, #4
    3d0a:	4299      	cmp	r1, r3
    3d0c:	d009      	beq.n	3d22 <release_handler+0x46>
    for (uint32_t i = 0; i < MAX_PIN_NUMBER; i++)
    3d0e:	3001      	adds	r0, #1
    3d10:	2820      	cmp	r0, #32
    3d12:	d1f3      	bne.n	3cfc <release_handler+0x20>
        m_cb.handlers[handler_id].handler = NULL;
    3d14:	2300      	movs	r3, #0
    3d16:	f842 3031 	str.w	r3, [r2, r1, lsl #3]
        nrfx_err_t err = nrfx_flag32_free(&m_cb.available_evt_handlers, handler_id);
    3d1a:	4804      	ldr	r0, [pc, #16]	; (3d2c <release_handler+0x50>)
}
    3d1c:	bc10      	pop	{r4}
        nrfx_err_t err = nrfx_flag32_free(&m_cb.available_evt_handlers, handler_id);
    3d1e:	f7ff becb 	b.w	3ab8 <nrfx_flag32_free>
}
    3d22:	bc10      	pop	{r4}
    3d24:	4770      	bx	lr
    3d26:	bf00      	nop
    3d28:	200000a8 	.word	0x200000a8
    3d2c:	200000fc 	.word	0x200000fc

00003d30 <pin_handler_trigger_uninit>:
{
    3d30:	b538      	push	{r3, r4, r5, lr}
    3d32:	4602      	mov	r2, r0
    if (pin_in_use_by_te(pin))
    3d34:	f7ff ffaa 	bl	3c8c <pin_in_use_by_te>
    3d38:	4c09      	ldr	r4, [pc, #36]	; (3d60 <pin_handler_trigger_uninit+0x30>)
    3d3a:	f102 0508 	add.w	r5, r2, #8
    3d3e:	b140      	cbz	r0, 3d52 <pin_handler_trigger_uninit+0x22>
    return PIN_GET_TE_ID(m_cb.pin_flags[pin]);
    3d40:	f834 3015 	ldrh.w	r3, [r4, r5, lsl #1]
                         ((init_val << GPIOTE_CONFIG_OUTINIT_Pos) & GPIOTE_CONFIG_OUTINIT_Msk);
}

NRF_STATIC_INLINE void nrf_gpiote_te_default(NRF_GPIOTE_Type * p_reg, uint32_t idx)
{
    p_reg->CONFIG[idx] = 0;
    3d44:	4907      	ldr	r1, [pc, #28]	; (3d64 <pin_handler_trigger_uninit+0x34>)
        nrf_gpiote_te_default(NRF_GPIOTE, pin_te_get(pin));
    3d46:	0b5b      	lsrs	r3, r3, #13
    3d48:	f503 73a2 	add.w	r3, r3, #324	; 0x144
    3d4c:	2000      	movs	r0, #0
    3d4e:	f841 0023 	str.w	r0, [r1, r3, lsl #2]
    release_handler(pin);
    3d52:	4610      	mov	r0, r2
    3d54:	f7ff ffc2 	bl	3cdc <release_handler>
    m_cb.pin_flags[pin] = PIN_FLAG_NOT_USED;
    3d58:	2300      	movs	r3, #0
    3d5a:	f824 3015 	strh.w	r3, [r4, r5, lsl #1]
}
    3d5e:	bd38      	pop	{r3, r4, r5, pc}
    3d60:	200000a8 	.word	0x200000a8
    3d64:	40006000 	.word	0x40006000

00003d68 <nrfx_gpiote_input_configure>:
{
    3d68:	e92d 41f3 	stmdb	sp!, {r0, r1, r4, r5, r6, r7, r8, lr}
    3d6c:	4604      	mov	r4, r0
    3d6e:	461e      	mov	r6, r3
    if (p_input_config)
    3d70:	b309      	cbz	r1, 3db6 <nrfx_gpiote_input_configure+0x4e>
    return PIN_FLAG_IS_OUTPUT(m_cb.pin_flags[pin]);
    3d72:	4f4d      	ldr	r7, [pc, #308]	; (3ea8 <nrfx_gpiote_input_configure+0x140>)
    3d74:	f100 0808 	add.w	r8, r0, #8
    3d78:	f837 5018 	ldrh.w	r5, [r7, r8, lsl #1]
    return pin_is_output(pin) && pin_in_use_by_te(pin);
    3d7c:	07ab      	lsls	r3, r5, #30
    3d7e:	d506      	bpl.n	3d8e <nrfx_gpiote_input_configure+0x26>
    3d80:	f7ff ff84 	bl	3c8c <pin_in_use_by_te>
        if (pin_is_task_output(pin))
    3d84:	b118      	cbz	r0, 3d8e <nrfx_gpiote_input_configure+0x26>
            return NRFX_ERROR_INVALID_PARAM;
    3d86:	4849      	ldr	r0, [pc, #292]	; (3eac <nrfx_gpiote_input_configure+0x144>)
}
    3d88:	b002      	add	sp, #8
    3d8a:	e8bd 81f0 	ldmia.w	sp!, {r4, r5, r6, r7, r8, pc}
    *p_pin = pin_number & 0x1F;
    3d8e:	f004 001f 	and.w	r0, r4, #31
    3d92:	0080      	lsls	r0, r0, #2
    3d94:	f100 40a0 	add.w	r0, r0, #1342177280	; 0x50000000
           ((uint32_t)(p_pull  ? *p_pull  : 0) << GPIO_PIN_CNF_PULL_Pos)  |
    3d98:	7809      	ldrb	r1, [r1, #0]
    uint32_t cnf = reg->PIN_CNF[pin_number];
    3d9a:	f8d0 3700 	ldr.w	r3, [r0, #1792]	; 0x700
        m_cb.pin_flags[pin] &= ~PIN_FLAG_OUTPUT;
    3d9e:	f025 0502 	bic.w	r5, r5, #2
    cnf &= ~to_update;
    3da2:	f023 030f 	bic.w	r3, r3, #15
        m_cb.pin_flags[pin] |= PIN_FLAG_IN_USE;
    3da6:	f045 0501 	orr.w	r5, r5, #1
    cnf |= ((uint32_t)(p_dir   ? *p_dir   : 0) << GPIO_PIN_CNF_DIR_Pos)   |
    3daa:	ea43 0381 	orr.w	r3, r3, r1, lsl #2
    3dae:	f827 5018 	strh.w	r5, [r7, r8, lsl #1]
    reg->PIN_CNF[pin_number] = cnf;
    3db2:	f8c0 3700 	str.w	r3, [r0, #1792]	; 0x700
    if (p_trigger_config)
    3db6:	b192      	cbz	r2, 3dde <nrfx_gpiote_input_configure+0x76>
    return PIN_FLAG_IS_OUTPUT(m_cb.pin_flags[pin]);
    3db8:	4b3b      	ldr	r3, [pc, #236]	; (3ea8 <nrfx_gpiote_input_configure+0x140>)
        nrfx_gpiote_trigger_t trigger = p_trigger_config->trigger;
    3dba:	7815      	ldrb	r5, [r2, #0]
        bool use_evt = p_trigger_config->p_in_channel ? true : false;
    3dbc:	6852      	ldr	r2, [r2, #4]
    return PIN_FLAG_IS_OUTPUT(m_cb.pin_flags[pin]);
    3dbe:	f104 0008 	add.w	r0, r4, #8
    3dc2:	f833 1010 	ldrh.w	r1, [r3, r0, lsl #1]
        if (pin_is_output(pin))
    3dc6:	078f      	lsls	r7, r1, #30
    3dc8:	d50c      	bpl.n	3de4 <nrfx_gpiote_input_configure+0x7c>
            if (use_evt)
    3dca:	2a00      	cmp	r2, #0
    3dcc:	d1db      	bne.n	3d86 <nrfx_gpiote_input_configure+0x1e>
        m_cb.pin_flags[pin] &= ~PIN_FLAG_TRIG_MODE_MASK;
    3dce:	f833 2010 	ldrh.w	r2, [r3, r0, lsl #1]
    3dd2:	f022 021c 	bic.w	r2, r2, #28
        m_cb.pin_flags[pin] |= PIN_FLAG_TRIG_MODE_SET(trigger);
    3dd6:	ea42 0285 	orr.w	r2, r2, r5, lsl #2
    3dda:	f823 2010 	strh.w	r2, [r3, r0, lsl #1]
    if (p_handler_config)
    3dde:	bbce      	cbnz	r6, 3e54 <nrfx_gpiote_input_configure+0xec>
    return NRFX_SUCCESS;
    3de0:	4833      	ldr	r0, [pc, #204]	; (3eb0 <nrfx_gpiote_input_configure+0x148>)
    3de2:	e7d1      	b.n	3d88 <nrfx_gpiote_input_configure+0x20>
            m_cb.pin_flags[pin] &= ~(PIN_TE_ID_MASK | PIN_FLAG_TE_USED);
    3de4:	f021 0120 	bic.w	r1, r1, #32
    3de8:	04c9      	lsls	r1, r1, #19
    3dea:	0cc9      	lsrs	r1, r1, #19
    3dec:	f823 1010 	strh.w	r1, [r3, r0, lsl #1]
            if (use_evt)
    3df0:	2a00      	cmp	r2, #0
    3df2:	d0ec      	beq.n	3dce <nrfx_gpiote_input_configure+0x66>
                if (!edge)
    3df4:	2d03      	cmp	r5, #3
    3df6:	d8c6      	bhi.n	3d86 <nrfx_gpiote_input_configure+0x1e>
                uint8_t ch = *p_trigger_config->p_in_channel;
    3df8:	7817      	ldrb	r7, [r2, #0]
                if (trigger == NRFX_GPIOTE_TRIGGER_NONE)
    3dfa:	b92d      	cbnz	r5, 3e08 <nrfx_gpiote_input_configure+0xa0>
    3dfc:	4a2d      	ldr	r2, [pc, #180]	; (3eb4 <nrfx_gpiote_input_configure+0x14c>)
    3dfe:	f507 71a2 	add.w	r1, r7, #324	; 0x144
    3e02:	f842 5021 	str.w	r5, [r2, r1, lsl #2]
#if defined(NRF9160_XXAA) || defined(NRF5340_XXAA)
    p_reg->CONFIG[idx] = 0;
#endif
}
    3e06:	e7e2      	b.n	3dce <nrfx_gpiote_input_configure+0x66>
   p_reg->CONFIG[idx] &= ~GPIOTE_CONFIG_MODE_Msk;
    3e08:	00ba      	lsls	r2, r7, #2
    3e0a:	f102 4280 	add.w	r2, r2, #1073741824	; 0x40000000
    3e0e:	f502 42c0 	add.w	r2, r2, #24576	; 0x6000
                    m_cb.pin_flags[pin] |= PIN_FLAG_TE_ID(ch);
    3e12:	ea41 3147 	orr.w	r1, r1, r7, lsl #13
    3e16:	f8d2 c510 	ldr.w	ip, [r2, #1296]	; 0x510
    3e1a:	f02c 0c03 	bic.w	ip, ip, #3
    3e1e:	f8c2 c510 	str.w	ip, [r2, #1296]	; 0x510
  p_reg->CONFIG[idx] &= ~(GPIOTE_CONFIG_PORT_PIN_Msk | GPIOTE_CONFIG_POLARITY_Msk);
    3e22:	f8d2 c510 	ldr.w	ip, [r2, #1296]	; 0x510
    3e26:	f42c 3c47 	bic.w	ip, ip, #203776	; 0x31c00
    3e2a:	f42c 7c40 	bic.w	ip, ip, #768	; 0x300
    3e2e:	f8c2 c510 	str.w	ip, [r2, #1296]	; 0x510
  p_reg->CONFIG[idx] |= ((pin << GPIOTE_CONFIG_PSEL_Pos) & GPIOTE_CONFIG_PORT_PIN_Msk) |
    3e32:	f8d2 e510 	ldr.w	lr, [r2, #1296]	; 0x510
    3e36:	ea4f 2c04 	mov.w	ip, r4, lsl #8
    3e3a:	f40c 5cf8 	and.w	ip, ip, #7936	; 0x1f00
    3e3e:	ea4e 4e05 	orr.w	lr, lr, r5, lsl #16
    3e42:	ea4c 0c0e 	orr.w	ip, ip, lr
    3e46:	f041 0120 	orr.w	r1, r1, #32
    3e4a:	f823 1010 	strh.w	r1, [r3, r0, lsl #1]
    3e4e:	f8c2 c510 	str.w	ip, [r2, #1296]	; 0x510
    3e52:	e7bc      	b.n	3dce <nrfx_gpiote_input_configure+0x66>
        err = pin_handler_set(pin, p_handler_config->handler, p_handler_config->p_context);
    3e54:	e9d6 7600 	ldrd	r7, r6, [r6]
    release_handler(pin);
    3e58:	4620      	mov	r0, r4
    3e5a:	f7ff ff3f 	bl	3cdc <release_handler>
    if (!handler)
    3e5e:	2f00      	cmp	r7, #0
    3e60:	d0be      	beq.n	3de0 <nrfx_gpiote_input_configure+0x78>
        if ((m_cb.handlers[i].handler == handler) && (m_cb.handlers[i].p_context == p_context))
    3e62:	4d11      	ldr	r5, [pc, #68]	; (3ea8 <nrfx_gpiote_input_configure+0x140>)
    3e64:	682b      	ldr	r3, [r5, #0]
    3e66:	429f      	cmp	r7, r3
    3e68:	d104      	bne.n	3e74 <nrfx_gpiote_input_configure+0x10c>
    3e6a:	686b      	ldr	r3, [r5, #4]
    3e6c:	429e      	cmp	r6, r3
    3e6e:	d101      	bne.n	3e74 <nrfx_gpiote_input_configure+0x10c>
    3e70:	2200      	movs	r2, #0
    3e72:	e009      	b.n	3e88 <nrfx_gpiote_input_configure+0x120>
        err = nrfx_flag32_alloc(&m_cb.available_evt_handlers, &id);
    3e74:	4810      	ldr	r0, [pc, #64]	; (3eb8 <nrfx_gpiote_input_configure+0x150>)
    3e76:	f10d 0107 	add.w	r1, sp, #7
    3e7a:	f7ff fdf7 	bl	3a6c <nrfx_flag32_alloc>
        if (err != NRFX_SUCCESS)
    3e7e:	4b0c      	ldr	r3, [pc, #48]	; (3eb0 <nrfx_gpiote_input_configure+0x148>)
    3e80:	4298      	cmp	r0, r3
    3e82:	d181      	bne.n	3d88 <nrfx_gpiote_input_configure+0x20>
        handler_id = (int32_t)id;
    3e84:	f89d 2007 	ldrb.w	r2, [sp, #7]
    m_cb.handlers[handler_id].handler = handler;
    3e88:	f845 7032 	str.w	r7, [r5, r2, lsl #3]
    m_cb.handlers[handler_id].p_context = p_context;
    3e8c:	eb05 03c2 	add.w	r3, r5, r2, lsl #3
    m_cb.pin_flags[pin] |= PIN_FLAG_HANDLER(handler_id);
    3e90:	3408      	adds	r4, #8
    m_cb.handlers[handler_id].p_context = p_context;
    3e92:	605e      	str	r6, [r3, #4]
    m_cb.pin_flags[pin] |= PIN_FLAG_HANDLER(handler_id);
    3e94:	f835 3014 	ldrh.w	r3, [r5, r4, lsl #1]
    3e98:	ea43 2342 	orr.w	r3, r3, r2, lsl #9
    3e9c:	f443 7380 	orr.w	r3, r3, #256	; 0x100
    3ea0:	f825 3014 	strh.w	r3, [r5, r4, lsl #1]
    3ea4:	e79c      	b.n	3de0 <nrfx_gpiote_input_configure+0x78>
    3ea6:	bf00      	nop
    3ea8:	200000a8 	.word	0x200000a8
    3eac:	0bad0004 	.word	0x0bad0004
    3eb0:	0bad0000 	.word	0x0bad0000
    3eb4:	40006000 	.word	0x40006000
    3eb8:	200000fc 	.word	0x200000fc

00003ebc <nrfx_gpiote_output_configure>:
{
    3ebc:	b5f8      	push	{r3, r4, r5, r6, r7, lr}
    3ebe:	4604      	mov	r4, r0
    if (p_config)
    3ec0:	b371      	cbz	r1, 3f20 <nrfx_gpiote_output_configure+0x64>
    return PIN_FLAG_IS_OUTPUT(m_cb.pin_flags[pin]);
    3ec2:	4e37      	ldr	r6, [pc, #220]	; (3fa0 <nrfx_gpiote_output_configure+0xe4>)
    3ec4:	f100 0708 	add.w	r7, r0, #8
    3ec8:	f836 5017 	ldrh.w	r5, [r6, r7, lsl #1]
        if (pin_is_input(pin) && pin_in_use_by_te(pin))
    3ecc:	07ab      	lsls	r3, r5, #30
    3ece:	d404      	bmi.n	3eda <nrfx_gpiote_output_configure+0x1e>
    3ed0:	f7ff fedc 	bl	3c8c <pin_in_use_by_te>
    3ed4:	b108      	cbz	r0, 3eda <nrfx_gpiote_output_configure+0x1e>
    return NRFX_SUCCESS;
    3ed6:	4833      	ldr	r0, [pc, #204]	; (3fa4 <nrfx_gpiote_output_configure+0xe8>)
}
    3ed8:	bdf8      	pop	{r3, r4, r5, r6, r7, pc}
        if (pin_has_trigger(pin) && (p_config->input_connect == NRF_GPIO_PIN_INPUT_DISCONNECT))
    3eda:	f015 0f1c 	tst.w	r5, #28
    3ede:	784b      	ldrb	r3, [r1, #1]
    3ee0:	d001      	beq.n	3ee6 <nrfx_gpiote_output_configure+0x2a>
    3ee2:	2b01      	cmp	r3, #1
    3ee4:	d0f7      	beq.n	3ed6 <nrfx_gpiote_output_configure+0x1a>
    *p_pin = pin_number & 0x1F;
    3ee6:	f004 001f 	and.w	r0, r4, #31
    3eea:	0080      	lsls	r0, r0, #2
    3eec:	f100 40a0 	add.w	r0, r0, #1342177280	; 0x50000000
           ((uint32_t)(p_drive ? *p_drive : 0) << GPIO_PIN_CNF_DRIVE_Pos) |
    3ef0:	f891 e000 	ldrb.w	lr, [r1]
    uint32_t cnf = reg->PIN_CNF[pin_number];
    3ef4:	f8d0 c700 	ldr.w	ip, [r0, #1792]	; 0x700
           ((uint32_t)(p_pull  ? *p_pull  : 0) << GPIO_PIN_CNF_PULL_Pos)  |
    3ef8:	7889      	ldrb	r1, [r1, #2]
           ((uint32_t)(p_input ? *p_input : 0) << GPIO_PIN_CNF_INPUT_Pos) |
    3efa:	005b      	lsls	r3, r3, #1
    cnf &= ~to_update;
    3efc:	f42c 6ce1 	bic.w	ip, ip, #1800	; 0x708
    3f00:	ea43 230e 	orr.w	r3, r3, lr, lsl #8
    3f04:	f02c 0c07 	bic.w	ip, ip, #7
    3f08:	ea43 030c 	orr.w	r3, r3, ip
    3f0c:	ea43 0381 	orr.w	r3, r3, r1, lsl #2
        m_cb.pin_flags[pin] |= PIN_FLAG_IN_USE | PIN_FLAG_OUTPUT;
    3f10:	f045 0503 	orr.w	r5, r5, #3
    cnf |= ((uint32_t)(p_dir   ? *p_dir   : 0) << GPIO_PIN_CNF_DIR_Pos)   |
    3f14:	f043 0301 	orr.w	r3, r3, #1
    3f18:	f826 5017 	strh.w	r5, [r6, r7, lsl #1]
    reg->PIN_CNF[pin_number] = cnf;
    3f1c:	f8c0 3700 	str.w	r3, [r0, #1792]	; 0x700
    if (p_task_config)
    3f20:	b90a      	cbnz	r2, 3f26 <nrfx_gpiote_output_configure+0x6a>
    return NRFX_SUCCESS;
    3f22:	4821      	ldr	r0, [pc, #132]	; (3fa8 <nrfx_gpiote_output_configure+0xec>)
    3f24:	e7d8      	b.n	3ed8 <nrfx_gpiote_output_configure+0x1c>
    return PIN_FLAG_IS_OUTPUT(m_cb.pin_flags[pin]);
    3f26:	4e1e      	ldr	r6, [pc, #120]	; (3fa0 <nrfx_gpiote_output_configure+0xe4>)
    3f28:	f104 0708 	add.w	r7, r4, #8
    3f2c:	f836 0017 	ldrh.w	r0, [r6, r7, lsl #1]
        if (pin_is_input(pin))
    3f30:	0783      	lsls	r3, r0, #30
    3f32:	d5d0      	bpl.n	3ed6 <nrfx_gpiote_output_configure+0x1a>
        uint32_t ch = p_task_config->task_ch;
    3f34:	f892 c000 	ldrb.w	ip, [r2]
    p_reg->CONFIG[idx] = 0;
    3f38:	4661      	mov	r1, ip
    3f3a:	0089      	lsls	r1, r1, #2
        m_cb.pin_flags[pin] &= ~(PIN_FLAG_TE_USED | PIN_TE_ID_MASK);
    3f3c:	f020 0020 	bic.w	r0, r0, #32
    3f40:	f101 4180 	add.w	r1, r1, #1073741824	; 0x40000000
    3f44:	04c0      	lsls	r0, r0, #19
    3f46:	f501 41c0 	add.w	r1, r1, #24576	; 0x6000
    3f4a:	0cc0      	lsrs	r0, r0, #19
    3f4c:	f826 0017 	strh.w	r0, [r6, r7, lsl #1]
    3f50:	2300      	movs	r3, #0
    3f52:	f8c1 3510 	str.w	r3, [r1, #1296]	; 0x510
        if (p_task_config->polarity != NRF_GPIOTE_POLARITY_NONE)
    3f56:	7855      	ldrb	r5, [r2, #1]
    3f58:	2d00      	cmp	r5, #0
    3f5a:	d0e2      	beq.n	3f22 <nrfx_gpiote_output_configure+0x66>
  p_reg->CONFIG[idx] &= ~(GPIOTE_CONFIG_PORT_PIN_Msk |
    3f5c:	f8d1 3510 	ldr.w	r3, [r1, #1296]	; 0x510
            nrf_gpiote_task_configure(NRF_GPIOTE, ch, pin,
    3f60:	7892      	ldrb	r2, [r2, #2]
    3f62:	f423 1398 	bic.w	r3, r3, #1245184	; 0x130000
    3f66:	f423 53f8 	bic.w	r3, r3, #7936	; 0x1f00
    3f6a:	f8c1 3510 	str.w	r3, [r1, #1296]	; 0x510
  p_reg->CONFIG[idx] |= ((pin << GPIOTE_CONFIG_PSEL_Pos) & GPIOTE_CONFIG_PORT_PIN_Msk) |
    3f6e:	f8d1 e510 	ldr.w	lr, [r1, #1296]	; 0x510
    3f72:	0223      	lsls	r3, r4, #8
    3f74:	f403 53f8 	and.w	r3, r3, #7936	; 0x1f00
                        ((polarity << GPIOTE_CONFIG_POLARITY_Pos) & GPIOTE_CONFIG_POLARITY_Msk) |
    3f78:	042d      	lsls	r5, r5, #16
  p_reg->CONFIG[idx] |= ((pin << GPIOTE_CONFIG_PSEL_Pos) & GPIOTE_CONFIG_PORT_PIN_Msk) |
    3f7a:	ea43 030e 	orr.w	r3, r3, lr
                        ((polarity << GPIOTE_CONFIG_POLARITY_Pos) & GPIOTE_CONFIG_POLARITY_Msk) |
    3f7e:	f405 3540 	and.w	r5, r5, #196608	; 0x30000
                        ((init_val << GPIOTE_CONFIG_OUTINIT_Pos) & GPIOTE_CONFIG_OUTINIT_Msk);
    3f82:	0512      	lsls	r2, r2, #20
  p_reg->CONFIG[idx] |= ((pin << GPIOTE_CONFIG_PSEL_Pos) & GPIOTE_CONFIG_PORT_PIN_Msk) |
    3f84:	432b      	orrs	r3, r5
                        ((init_val << GPIOTE_CONFIG_OUTINIT_Pos) & GPIOTE_CONFIG_OUTINIT_Msk);
    3f86:	f402 1280 	and.w	r2, r2, #1048576	; 0x100000
            m_cb.pin_flags[pin] |= PIN_FLAG_TE_ID(ch);
    3f8a:	ea40 304c 	orr.w	r0, r0, ip, lsl #13
  p_reg->CONFIG[idx] |= ((pin << GPIOTE_CONFIG_PSEL_Pos) & GPIOTE_CONFIG_PORT_PIN_Msk) |
    3f8e:	4313      	orrs	r3, r2
    3f90:	f040 0020 	orr.w	r0, r0, #32
    3f94:	f826 0017 	strh.w	r0, [r6, r7, lsl #1]
    3f98:	f8c1 3510 	str.w	r3, [r1, #1296]	; 0x510
    3f9c:	e7c1      	b.n	3f22 <nrfx_gpiote_output_configure+0x66>
    3f9e:	bf00      	nop
    3fa0:	200000a8 	.word	0x200000a8
    3fa4:	0bad0004 	.word	0x0bad0004
    3fa8:	0bad0000 	.word	0x0bad0000

00003fac <nrfx_gpiote_global_callback_set>:
    m_cb.global_handler.handler = handler;
    3fac:	4b01      	ldr	r3, [pc, #4]	; (3fb4 <nrfx_gpiote_global_callback_set+0x8>)
    m_cb.global_handler.p_context = p_context;
    3fae:	e9c3 0102 	strd	r0, r1, [r3, #8]
}
    3fb2:	4770      	bx	lr
    3fb4:	200000a8 	.word	0x200000a8

00003fb8 <nrfx_gpiote_channel_get>:
{
    3fb8:	b508      	push	{r3, lr}
    3fba:	4602      	mov	r2, r0
    if (pin_in_use_by_te(pin))
    3fbc:	f7ff fe66 	bl	3c8c <pin_in_use_by_te>
    3fc0:	b138      	cbz	r0, 3fd2 <nrfx_gpiote_channel_get+0x1a>
        *p_channel = PIN_GET_TE_ID(m_cb.pin_flags[pin]);
    3fc2:	4b05      	ldr	r3, [pc, #20]	; (3fd8 <nrfx_gpiote_channel_get+0x20>)
        return NRFX_SUCCESS;
    3fc4:	4805      	ldr	r0, [pc, #20]	; (3fdc <nrfx_gpiote_channel_get+0x24>)
        *p_channel = PIN_GET_TE_ID(m_cb.pin_flags[pin]);
    3fc6:	3208      	adds	r2, #8
    3fc8:	f833 3012 	ldrh.w	r3, [r3, r2, lsl #1]
    3fcc:	0b5b      	lsrs	r3, r3, #13
    3fce:	700b      	strb	r3, [r1, #0]
}
    3fd0:	bd08      	pop	{r3, pc}
        return NRFX_ERROR_INVALID_PARAM;
    3fd2:	4803      	ldr	r0, [pc, #12]	; (3fe0 <nrfx_gpiote_channel_get+0x28>)
    3fd4:	e7fc      	b.n	3fd0 <nrfx_gpiote_channel_get+0x18>
    3fd6:	bf00      	nop
    3fd8:	200000a8 	.word	0x200000a8
    3fdc:	0bad0000 	.word	0x0bad0000
    3fe0:	0bad0004 	.word	0x0bad0004

00003fe4 <nrfx_gpiote_init>:
{
    3fe4:	b538      	push	{r3, r4, r5, lr}
    if (m_cb.state != NRFX_DRV_STATE_UNINITIALIZED)
    3fe6:	4c0f      	ldr	r4, [pc, #60]	; (4024 <nrfx_gpiote_init+0x40>)
    3fe8:	f894 5058 	ldrb.w	r5, [r4, #88]	; 0x58
    3fec:	b9bd      	cbnz	r5, 401e <nrfx_gpiote_init+0x3a>
    memset(m_cb.pin_flags, 0, sizeof(m_cb.pin_flags));
    3fee:	2240      	movs	r2, #64	; 0x40
    3ff0:	4629      	mov	r1, r5
    3ff2:	f104 0010 	add.w	r0, r4, #16
    3ff6:	f001 ff45 	bl	5e84 <memset>
    NRFX_IRQ_ENABLE(nrfx_get_irq_number(NRF_GPIOTE));
    3ffa:	2006      	movs	r0, #6
    3ffc:	f7fd ff18 	bl	1e30 <arch_irq_enable>
    *((volatile uint32_t *)nrf_gpiote_event_address_get(p_reg, event)) = 0;
    4000:	4b09      	ldr	r3, [pc, #36]	; (4028 <nrfx_gpiote_init+0x44>)
    return err_code;
    4002:	480a      	ldr	r0, [pc, #40]	; (402c <nrfx_gpiote_init+0x48>)
    4004:	f8c3 517c 	str.w	r5, [r3, #380]	; 0x17c
    4008:	f8d3 217c 	ldr.w	r2, [r3, #380]	; 0x17c
    p_reg->INTENSET = mask;
    400c:	f04f 4200 	mov.w	r2, #2147483648	; 0x80000000
    4010:	f8c3 2304 	str.w	r2, [r3, #772]	; 0x304
    m_cb.state = NRFX_DRV_STATE_INITIALIZED;
    4014:	2301      	movs	r3, #1
    4016:	f884 3058 	strb.w	r3, [r4, #88]	; 0x58
    m_cb.available_evt_handlers = NRFX_BIT_MASK(NRFX_GPIOTE_CONFIG_NUM_OF_EVT_HANDLERS);
    401a:	6563      	str	r3, [r4, #84]	; 0x54
}
    401c:	bd38      	pop	{r3, r4, r5, pc}
        return err_code;
    401e:	4804      	ldr	r0, [pc, #16]	; (4030 <nrfx_gpiote_init+0x4c>)
    4020:	e7fc      	b.n	401c <nrfx_gpiote_init+0x38>
    4022:	bf00      	nop
    4024:	200000a8 	.word	0x200000a8
    4028:	40006000 	.word	0x40006000
    402c:	0bad0000 	.word	0x0bad0000
    4030:	0bad0005 	.word	0x0bad0005

00004034 <nrfx_gpiote_is_init>:
    return (m_cb.state != NRFX_DRV_STATE_UNINITIALIZED) ? true : false;
    4034:	4b03      	ldr	r3, [pc, #12]	; (4044 <nrfx_gpiote_is_init+0x10>)
    4036:	f893 0058 	ldrb.w	r0, [r3, #88]	; 0x58
}
    403a:	3800      	subs	r0, #0
    403c:	bf18      	it	ne
    403e:	2001      	movne	r0, #1
    4040:	4770      	bx	lr
    4042:	bf00      	nop
    4044:	200000a8 	.word	0x200000a8

00004048 <nrfx_gpiote_channel_free>:
{
    4048:	4601      	mov	r1, r0
    return nrfx_flag32_free(&m_cb.available_channels_mask, channel);
    404a:	4801      	ldr	r0, [pc, #4]	; (4050 <nrfx_gpiote_channel_free+0x8>)
    404c:	f7ff bd34 	b.w	3ab8 <nrfx_flag32_free>
    4050:	200000f8 	.word	0x200000f8

00004054 <nrfx_gpiote_channel_alloc>:
{
    4054:	4601      	mov	r1, r0
    return nrfx_flag32_alloc(&m_cb.available_channels_mask, p_channel);
    4056:	4801      	ldr	r0, [pc, #4]	; (405c <nrfx_gpiote_channel_alloc+0x8>)
    4058:	f7ff bd08 	b.w	3a6c <nrfx_flag32_alloc>
    405c:	200000f8 	.word	0x200000f8

00004060 <nrfx_gpiote_trigger_enable>:
{
    4060:	b510      	push	{r4, lr}
    4062:	4602      	mov	r2, r0
    if (pin_in_use_by_te(pin) && pin_is_input(pin))
    4064:	f7ff fe12 	bl	3c8c <pin_in_use_by_te>
    return PIN_FLAG_IS_OUTPUT(m_cb.pin_flags[pin]);
    4068:	f102 0408 	add.w	r4, r2, #8
    406c:	4b1c      	ldr	r3, [pc, #112]	; (40e0 <nrfx_gpiote_trigger_enable+0x80>)
    406e:	f833 3014 	ldrh.w	r3, [r3, r4, lsl #1]
    if (pin_in_use_by_te(pin) && pin_is_input(pin))
    4072:	b1e0      	cbz	r0, 40ae <nrfx_gpiote_trigger_enable+0x4e>
    4074:	f013 0402 	ands.w	r4, r3, #2
    4078:	d119      	bne.n	40ae <nrfx_gpiote_trigger_enable+0x4e>
    return PIN_GET_TE_ID(m_cb.pin_flags[pin]);
    407a:	0b5b      	lsrs	r3, r3, #13
#endif

NRF_STATIC_INLINE nrf_gpiote_event_t nrf_gpiote_in_event_get(uint8_t index)
{
    NRFX_ASSERT(index < GPIOTE_CH_NUM);
    return (nrf_gpiote_event_t)NRFX_OFFSETOF(NRF_GPIOTE_Type, EVENTS_IN[index]);
    407c:	009a      	lsls	r2, r3, #2
    return ((uint32_t)p_reg + event);
    407e:	f102 4080 	add.w	r0, r2, #1073741824	; 0x40000000
    4082:	f500 40c2 	add.w	r0, r0, #24832	; 0x6100
    4086:	f102 4280 	add.w	r2, r2, #1073741824	; 0x40000000
    408a:	f502 42c0 	add.w	r2, r2, #24576	; 0x6000
    *((volatile uint32_t *)nrf_gpiote_event_address_get(p_reg, event)) = 0;
    408e:	6004      	str	r4, [r0, #0]
    4090:	6800      	ldr	r0, [r0, #0]
   p_reg->CONFIG[idx] |= GPIOTE_CONFIG_MODE_Event;
    4092:	f8d2 0510 	ldr.w	r0, [r2, #1296]	; 0x510
    4096:	f040 0001 	orr.w	r0, r0, #1
    409a:	f8c2 0510 	str.w	r0, [r2, #1296]	; 0x510
        if (int_enable)
    409e:	b129      	cbz	r1, 40ac <nrfx_gpiote_trigger_enable+0x4c>
            nrf_gpiote_int_enable(NRF_GPIOTE, NRFX_BIT(ch));
    40a0:	2201      	movs	r2, #1
    40a2:	fa02 f303 	lsl.w	r3, r2, r3
    p_reg->INTENSET = mask;
    40a6:	4a0f      	ldr	r2, [pc, #60]	; (40e4 <nrfx_gpiote_trigger_enable+0x84>)
    40a8:	f8c2 3304 	str.w	r3, [r2, #772]	; 0x304
}
    40ac:	bd10      	pop	{r4, pc}
    nrfx_gpiote_trigger_t trigger = PIN_FLAG_TRIG_MODE_GET(m_cb.pin_flags[pin]);
    40ae:	f3c3 0382 	ubfx	r3, r3, #2, #3
    if (trigger == NRFX_GPIOTE_TRIGGER_LOW)
    40b2:	2b04      	cmp	r3, #4
    40b4:	d010      	beq.n	40d8 <nrfx_gpiote_trigger_enable+0x78>
    else if (trigger == NRFX_GPIOTE_TRIGGER_HIGH)
    40b6:	2b05      	cmp	r3, #5
    40b8:	d010      	beq.n	40dc <nrfx_gpiote_trigger_enable+0x7c>
    return p_reg->IN;
    40ba:	f04f 43a0 	mov.w	r3, #1342177280	; 0x50000000
    40be:	f8d3 1510 	ldr.w	r1, [r3, #1296]	; 0x510
    *p_pin = pin_number & 0x1F;
    40c2:	f002 031f 	and.w	r3, r2, #31
    return ((nrf_gpio_port_in_read(reg) >> pin_number) & 1UL);
    40c6:	40d9      	lsrs	r1, r3
    40c8:	f001 0101 	and.w	r1, r1, #1
        sense = nrf_gpio_pin_read(pin) ? NRF_GPIO_PIN_SENSE_LOW : NRF_GPIO_PIN_SENSE_HIGH;
    40cc:	3102      	adds	r1, #2
}
    40ce:	e8bd 4010 	ldmia.w	sp!, {r4, lr}
        nrf_gpio_cfg_sense_set(pin, get_initial_sense(pin));
    40d2:	4610      	mov	r0, r2
    40d4:	f002 bbc7 	b.w	6866 <nrf_gpio_cfg_sense_set>
        sense = NRF_GPIO_PIN_SENSE_LOW;
    40d8:	2103      	movs	r1, #3
    40da:	e7f8      	b.n	40ce <nrfx_gpiote_trigger_enable+0x6e>
        sense = NRF_GPIO_PIN_SENSE_HIGH;
    40dc:	2102      	movs	r1, #2
    40de:	e7f6      	b.n	40ce <nrfx_gpiote_trigger_enable+0x6e>
    40e0:	200000a8 	.word	0x200000a8
    40e4:	40006000 	.word	0x40006000

000040e8 <nrfx_gpiote_trigger_disable>:
{
    40e8:	b508      	push	{r3, lr}
    40ea:	4602      	mov	r2, r0
    if (pin_in_use_by_te(pin) && pin_is_input(pin))
    40ec:	f7ff fdce 	bl	3c8c <pin_in_use_by_te>
    40f0:	b1c0      	cbz	r0, 4124 <nrfx_gpiote_trigger_disable+0x3c>
    return PIN_FLAG_IS_OUTPUT(m_cb.pin_flags[pin]);
    40f2:	f102 0108 	add.w	r1, r2, #8
    40f6:	4b0e      	ldr	r3, [pc, #56]	; (4130 <nrfx_gpiote_trigger_disable+0x48>)
    40f8:	f833 3011 	ldrh.w	r3, [r3, r1, lsl #1]
    if (pin_in_use_by_te(pin) && pin_is_input(pin))
    40fc:	0799      	lsls	r1, r3, #30
    40fe:	d411      	bmi.n	4124 <nrfx_gpiote_trigger_disable+0x3c>
    return PIN_GET_TE_ID(m_cb.pin_flags[pin]);
    4100:	0b5b      	lsrs	r3, r3, #13
        nrf_gpiote_int_disable(NRF_GPIOTE, NRFX_BIT(ch));
    4102:	2201      	movs	r2, #1
    4104:	409a      	lsls	r2, r3
    p_reg->INTENCLR = mask;
    4106:	009b      	lsls	r3, r3, #2
    4108:	490a      	ldr	r1, [pc, #40]	; (4134 <nrfx_gpiote_trigger_disable+0x4c>)
    410a:	f103 4380 	add.w	r3, r3, #1073741824	; 0x40000000
    410e:	f503 43c0 	add.w	r3, r3, #24576	; 0x6000
    4112:	f8c1 2308 	str.w	r2, [r1, #776]	; 0x308
   p_reg->CONFIG[idx] &= ~GPIOTE_CONFIG_MODE_Msk;
    4116:	f8d3 2510 	ldr.w	r2, [r3, #1296]	; 0x510
    411a:	f022 0203 	bic.w	r2, r2, #3
    411e:	f8c3 2510 	str.w	r2, [r3, #1296]	; 0x510
}
    4122:	bd08      	pop	{r3, pc}
    4124:	e8bd 4008 	ldmia.w	sp!, {r3, lr}
        nrf_gpio_cfg_sense_set(pin, NRF_GPIO_PIN_NOSENSE);
    4128:	2100      	movs	r1, #0
    412a:	4610      	mov	r0, r2
    412c:	f002 bb9b 	b.w	6866 <nrf_gpio_cfg_sense_set>
    4130:	200000a8 	.word	0x200000a8
    4134:	40006000 	.word	0x40006000

00004138 <nrfx_gpiote_pin_uninit>:
    return m_cb.pin_flags[pin] & PIN_FLAG_IN_USE;
    4138:	4b0d      	ldr	r3, [pc, #52]	; (4170 <nrfx_gpiote_pin_uninit+0x38>)
    413a:	f100 0208 	add.w	r2, r0, #8
{
    413e:	b510      	push	{r4, lr}
    return m_cb.pin_flags[pin] & PIN_FLAG_IN_USE;
    4140:	f833 3012 	ldrh.w	r3, [r3, r2, lsl #1]
    if (!pin_in_use(pin))
    4144:	07db      	lsls	r3, r3, #31
{
    4146:	4604      	mov	r4, r0
    if (!pin_in_use(pin))
    4148:	d50f      	bpl.n	416a <nrfx_gpiote_pin_uninit+0x32>
    nrfx_gpiote_trigger_disable(pin);
    414a:	f7ff ffcd 	bl	40e8 <nrfx_gpiote_trigger_disable>
    pin_handler_trigger_uninit(pin);
    414e:	4620      	mov	r0, r4
    *p_pin = pin_number & 0x1F;
    4150:	f004 041f 	and.w	r4, r4, #31
    4154:	f7ff fdec 	bl	3d30 <pin_handler_trigger_uninit>
    reg->PIN_CNF[pin_number] = cnf;
    4158:	f504 74e0 	add.w	r4, r4, #448	; 0x1c0
    415c:	f04f 43a0 	mov.w	r3, #1342177280	; 0x50000000
    4160:	2202      	movs	r2, #2
    4162:	f843 2024 	str.w	r2, [r3, r4, lsl #2]
    4166:	4803      	ldr	r0, [pc, #12]	; (4174 <nrfx_gpiote_pin_uninit+0x3c>)
}
    4168:	bd10      	pop	{r4, pc}
        return NRFX_ERROR_INVALID_PARAM;
    416a:	4803      	ldr	r0, [pc, #12]	; (4178 <nrfx_gpiote_pin_uninit+0x40>)
    416c:	e7fc      	b.n	4168 <nrfx_gpiote_pin_uninit+0x30>
    416e:	bf00      	nop
    4170:	200000a8 	.word	0x200000a8
    4174:	0bad0000 	.word	0x0bad0000
    4178:	0bad0004 	.word	0x0bad0004

0000417c <nrfx_gpiote_irq_handler>:
        call_handler(pin, gpiote_polarity_to_trigger(polarity));
    }
}

void nrfx_gpiote_irq_handler(void)
{
    417c:	e92d 4ff7 	stmdb	sp!, {r0, r1, r2, r4, r5, r6, r7, r8, r9, sl, fp, lr}
    4180:	4b4e      	ldr	r3, [pc, #312]	; (42bc <nrfx_gpiote_irq_handler+0x140>)
    return p_reg->INTENSET & mask;
    4182:	484f      	ldr	r0, [pc, #316]	; (42c0 <nrfx_gpiote_irq_handler+0x144>)
    uint32_t i;
    nrf_gpiote_event_t event = NRF_GPIOTE_EVENT_IN_0;
    uint32_t mask = (uint32_t)NRF_GPIOTE_INT_IN0_MASK;

    /* collect status of all GPIOTE pin events. Processing is done once all are collected and cleared.*/
    for (i = 0; i < GPIOTE_CH_NUM; i++)
    4184:	494f      	ldr	r1, [pc, #316]	; (42c4 <nrfx_gpiote_irq_handler+0x148>)
    uint32_t status = 0;
    4186:	2500      	movs	r5, #0
    uint32_t mask = (uint32_t)NRF_GPIOTE_INT_IN0_MASK;
    4188:	2201      	movs	r2, #1
    *((volatile uint32_t *)nrf_gpiote_event_address_get(p_reg, event)) = 0;
    418a:	462c      	mov	r4, r5
    return (bool)*(volatile uint32_t *)((uint8_t *)p_reg + (uint32_t)event);
    418c:	681e      	ldr	r6, [r3, #0]
    {
        if (nrf_gpiote_event_check(NRF_GPIOTE, event) &&
    418e:	b136      	cbz	r6, 419e <nrfx_gpiote_irq_handler+0x22>
    return p_reg->INTENSET & mask;
    4190:	f8d0 6304 	ldr.w	r6, [r0, #772]	; 0x304
    4194:	4216      	tst	r6, r2
    *((volatile uint32_t *)nrf_gpiote_event_address_get(p_reg, event)) = 0;
    4196:	bf1e      	ittt	ne
    4198:	601c      	strne	r4, [r3, #0]
    419a:	681e      	ldrne	r6, [r3, #0]
            nrf_gpiote_int_enable_check(NRF_GPIOTE, mask))
        {
            nrf_gpiote_event_clear(NRF_GPIOTE, event);
            status |= mask;
    419c:	4315      	orrne	r5, r2
    for (i = 0; i < GPIOTE_CH_NUM; i++)
    419e:	3304      	adds	r3, #4
    41a0:	428b      	cmp	r3, r1
        }
        mask <<= 1;
    41a2:	ea4f 0242 	mov.w	r2, r2, lsl #1
    for (i = 0; i < GPIOTE_CH_NUM; i++)
    41a6:	d1f1      	bne.n	418c <nrfx_gpiote_irq_handler+0x10>
    return (bool)*(volatile uint32_t *)((uint8_t *)p_reg + (uint32_t)event);
    41a8:	4b45      	ldr	r3, [pc, #276]	; (42c0 <nrfx_gpiote_irq_handler+0x144>)
    41aa:	f8d3 317c 	ldr.w	r3, [r3, #380]	; 0x17c
         * in ascending order. */
        event = (nrf_gpiote_event_t)((uint32_t)event + sizeof(uint32_t));
    }

    /* handle PORT event */
    if (nrf_gpiote_event_check(NRF_GPIOTE, NRF_GPIOTE_EVENT_PORT))
    41ae:	b1bb      	cbz	r3, 41e0 <nrfx_gpiote_irq_handler+0x64>
        *p_masks = gpio_regs[i]->LATCH;
    41b0:	f04f 46a0 	mov.w	r6, #1342177280	; 0x50000000
    41b4:	f8d6 3520 	ldr.w	r3, [r6, #1312]	; 0x520
    41b8:	9301      	str	r3, [sp, #4]
        gpio_regs[i]->LATCH = *p_masks;
    41ba:	f8c6 3520 	str.w	r3, [r6, #1312]	; 0x520
__STATIC_INLINE void nrf_bitmask_bit_clear(uint32_t bit, void * p_mask)
{
    uint8_t * p_mask8 = (uint8_t *)p_mask;
    uint32_t byte_idx = BITMASK_BYTE_GET(bit);
    bit = BITMASK_RELBIT_GET(bit);
    p_mask8[byte_idx] &= ~(1 << bit);
    41be:	af01      	add	r7, sp, #4
    41c0:	f04f 0801 	mov.w	r8, #1
            while (latch[i])
    41c4:	9c01      	ldr	r4, [sp, #4]
    41c6:	b96c      	cbnz	r4, 41e4 <nrfx_gpiote_irq_handler+0x68>
    *((volatile uint32_t *)nrf_gpiote_event_address_get(p_reg, event)) = 0;
    41c8:	4b3d      	ldr	r3, [pc, #244]	; (42c0 <nrfx_gpiote_irq_handler+0x144>)
    41ca:	f8c3 417c 	str.w	r4, [r3, #380]	; 0x17c
    41ce:	f8d3 317c 	ldr.w	r3, [r3, #380]	; 0x17c
        *p_masks = gpio_regs[i]->LATCH;
    41d2:	f8d6 3520 	ldr.w	r3, [r6, #1312]	; 0x520
    41d6:	9301      	str	r3, [sp, #4]
        gpio_regs[i]->LATCH = *p_masks;
    41d8:	f8c6 3520 	str.w	r3, [r6, #1312]	; 0x520
        if (latch[port_idx])
    41dc:	2b00      	cmp	r3, #0
    41de:	d1ee      	bne.n	41be <nrfx_gpiote_irq_handler+0x42>
        mask &= ~NRFX_BIT(ch);
    41e0:	2401      	movs	r4, #1
    41e2:	e066      	b.n	42b2 <nrfx_gpiote_irq_handler+0x136>
                uint32_t pin = NRF_CTZ(latch[i]);
    41e4:	fa94 f4a4 	rbit	r4, r4
    41e8:	fab4 f484 	clz	r4, r4
                nrfx_gpiote_trigger_t trigger = PIN_FLAG_TRIG_MODE_GET(m_cb.pin_flags[pin]);
    41ec:	4a36      	ldr	r2, [pc, #216]	; (42c8 <nrfx_gpiote_irq_handler+0x14c>)
    41ee:	f104 0308 	add.w	r3, r4, #8
    uint32_t byte_idx = BITMASK_BYTE_GET(bit);
    41f2:	08e0      	lsrs	r0, r4, #3
    41f4:	f832 1013 	ldrh.w	r1, [r2, r3, lsl #1]
    bit = BITMASK_RELBIT_GET(bit);
    41f8:	f004 0307 	and.w	r3, r4, #7
    p_mask8[byte_idx] &= ~(1 << bit);
    41fc:	fa08 f203 	lsl.w	r2, r8, r3
    4200:	5c3b      	ldrb	r3, [r7, r0]
    4202:	ea23 0302 	bic.w	r3, r3, r2
    4206:	543b      	strb	r3, [r7, r0]
    4208:	00a3      	lsls	r3, r4, #2
    420a:	f103 49a0 	add.w	r9, r3, #1342177280	; 0x50000000
    420e:	f3c1 0a82 	ubfx	sl, r1, #2, #3
    return (nrf_gpio_pin_sense_t)((reg->PIN_CNF[pin_number] &
    4212:	f8d9 2700 	ldr.w	r2, [r9, #1792]	; 0x700
    if (is_level(trigger))
    4216:	06cb      	lsls	r3, r1, #27
                nrfx_gpiote_trigger_t trigger = PIN_FLAG_TRIG_MODE_GET(m_cb.pin_flags[pin]);
    4218:	46d3      	mov	fp, sl
                                   GPIO_PIN_CNF_SENSE_Msk) >> GPIO_PIN_CNF_SENSE_Pos);
    421a:	f3c2 4201 	ubfx	r2, r2, #16, #2
    if (is_level(trigger))
    421e:	d518      	bpl.n	4252 <nrfx_gpiote_irq_handler+0xd6>
        call_handler(pin, trigger);
    4220:	4659      	mov	r1, fp
    4222:	4620      	mov	r0, r4
    return (nrf_gpio_pin_sense_t)((reg->PIN_CNF[pin_number] &
    4224:	fa5f fa82 	uxtb.w	sl, r2
    4228:	f7ff fd3a 	bl	3ca0 <call_handler>
    422c:	f8d9 3700 	ldr.w	r3, [r9, #1792]	; 0x700
        if (nrf_gpio_pin_sense_get(pin) == sense)
    4230:	f3c3 4301 	ubfx	r3, r3, #16, #2
    4234:	459a      	cmp	sl, r3
    4236:	d107      	bne.n	4248 <nrfx_gpiote_irq_handler+0xcc>
            nrf_gpio_cfg_sense_set(pin, NRF_GPIO_PIN_NOSENSE);
    4238:	2100      	movs	r1, #0
    423a:	4620      	mov	r0, r4
    423c:	f002 fb13 	bl	6866 <nrf_gpio_cfg_sense_set>
            nrf_gpio_cfg_sense_set(pin, sense);
    4240:	4651      	mov	r1, sl
    4242:	4620      	mov	r0, r4
    4244:	f002 fb0f 	bl	6866 <nrf_gpio_cfg_sense_set>
    reg->LATCH = (1 << pin_number);
    4248:	fa08 f404 	lsl.w	r4, r8, r4
    424c:	f8c6 4520 	str.w	r4, [r6, #1312]	; 0x520
}
    4250:	e7b8      	b.n	41c4 <nrfx_gpiote_irq_handler+0x48>
                NRF_GPIO_PIN_SENSE_LOW : NRF_GPIO_PIN_SENSE_HIGH;
    4252:	2a02      	cmp	r2, #2
        nrf_gpio_cfg_sense_set(pin, next_sense);
    4254:	bf0c      	ite	eq
    4256:	2103      	moveq	r1, #3
    4258:	2102      	movne	r1, #2
    425a:	4620      	mov	r0, r4
    425c:	f002 fb03 	bl	6866 <nrf_gpio_cfg_sense_set>
        if ((trigger == NRFX_GPIOTE_TRIGGER_TOGGLE) ||
    4260:	f1ba 0f03 	cmp.w	sl, #3
    4264:	d004      	beq.n	4270 <nrfx_gpiote_irq_handler+0xf4>
    4266:	2a02      	cmp	r2, #2
    4268:	d107      	bne.n	427a <nrfx_gpiote_irq_handler+0xfe>
            (sense == NRF_GPIO_PIN_SENSE_HIGH && trigger == NRFX_GPIOTE_TRIGGER_LOTOHI) ||
    426a:	f1ba 0f01 	cmp.w	sl, #1
            (sense == NRF_GPIO_PIN_SENSE_LOW && trigger == NRFX_GPIOTE_TRIGGER_HITOLO))
    426e:	d1eb      	bne.n	4248 <nrfx_gpiote_irq_handler+0xcc>
            call_handler(pin, trigger);
    4270:	4659      	mov	r1, fp
    4272:	4620      	mov	r0, r4
    4274:	f7ff fd14 	bl	3ca0 <call_handler>
    4278:	e7e6      	b.n	4248 <nrfx_gpiote_irq_handler+0xcc>
            (sense == NRF_GPIO_PIN_SENSE_HIGH && trigger == NRFX_GPIOTE_TRIGGER_LOTOHI) ||
    427a:	2a03      	cmp	r2, #3
    427c:	d1e4      	bne.n	4248 <nrfx_gpiote_irq_handler+0xcc>
            (sense == NRF_GPIO_PIN_SENSE_LOW && trigger == NRFX_GPIOTE_TRIGGER_HITOLO))
    427e:	f1ba 0f02 	cmp.w	sl, #2
    4282:	e7f4      	b.n	426e <nrfx_gpiote_irq_handler+0xf2>
        uint32_t ch = NRF_CTZ(mask);
    4284:	fa95 f3a5 	rbit	r3, r5
    4288:	fab3 f383 	clz	r3, r3
        mask &= ~NRFX_BIT(ch);
    428c:	fa04 f203 	lsl.w	r2, r4, r3
    4290:	009b      	lsls	r3, r3, #2
    4292:	f103 4380 	add.w	r3, r3, #1073741824	; 0x40000000
    4296:	f503 43c0 	add.w	r3, r3, #24576	; 0x6000
    429a:	ea25 0502 	bic.w	r5, r5, r2
    return ((p_reg->CONFIG[idx] & GPIOTE_CONFIG_PORT_PIN_Msk) >> GPIOTE_CONFIG_PSEL_Pos);
    429e:	f8d3 0510 	ldr.w	r0, [r3, #1296]	; 0x510
    return (nrf_gpiote_polarity_t)((p_reg->CONFIG[idx] & GPIOTE_CONFIG_POLARITY_Msk) >>
    42a2:	f8d3 1510 	ldr.w	r1, [r3, #1296]	; 0x510
        call_handler(pin, gpiote_polarity_to_trigger(polarity));
    42a6:	f3c0 2004 	ubfx	r0, r0, #8, #5
    42aa:	f3c1 4101 	ubfx	r1, r1, #16, #2
    42ae:	f7ff fcf7 	bl	3ca0 <call_handler>
    while (mask)
    42b2:	2d00      	cmp	r5, #0
    42b4:	d1e6      	bne.n	4284 <nrfx_gpiote_irq_handler+0x108>
        port_event_handle();
    }

    /* Process pin events. */
    gpiote_evt_handle(status);
}
    42b6:	b003      	add	sp, #12
    42b8:	e8bd 8ff0 	ldmia.w	sp!, {r4, r5, r6, r7, r8, r9, sl, fp, pc}
    42bc:	40006100 	.word	0x40006100
    42c0:	40006000 	.word	0x40006000
    42c4:	40006120 	.word	0x40006120
    42c8:	200000a8 	.word	0x200000a8

000042cc <nrfx_ppi_channel_alloc>:
    nrfx_flag32_init(&m_groups_allocated, NRFX_PPI_ALL_APP_GROUPS_MASK);
}


nrfx_err_t nrfx_ppi_channel_alloc(nrf_ppi_channel_t * p_channel)
{
    42cc:	4601      	mov	r1, r0
    return nrfx_flag32_alloc(&m_channels_allocated, (uint8_t *)p_channel);
    42ce:	4801      	ldr	r0, [pc, #4]	; (42d4 <nrfx_ppi_channel_alloc+0x8>)
    42d0:	f7ff bbcc 	b.w	3a6c <nrfx_flag32_alloc>
    42d4:	20000104 	.word	0x20000104

000042d8 <twim_irq_handler>:
{
    return nrf_twim_event_address_get(p_instance->p_twim, NRF_TWIM_EVENT_STOPPED);
}

static void twim_irq_handler(NRF_TWIM_Type * p_twim, twim_control_block_t * p_cb)
{
    42d8:	b5f0      	push	{r4, r5, r6, r7, lr}
}

NRF_STATIC_INLINE bool nrf_twim_event_check(NRF_TWIM_Type const * p_reg,
                                            nrf_twim_event_t      event)
{
    return (bool)*(volatile uint32_t *)((uint8_t *)p_reg + (uint32_t)event);
    42da:	f8d0 3124 	ldr.w	r3, [r0, #292]	; 0x124
    42de:	b087      	sub	sp, #28
    42e0:	4604      	mov	r4, r0
    42e2:	460d      	mov	r5, r1
    }
#endif

    NRFX_ASSERT(p_cb->handler);

    if (nrf_twim_event_check(p_twim, NRF_TWIM_EVENT_ERROR))
    42e4:	b1f3      	cbz	r3, 4324 <twim_irq_handler+0x4c>
    *((volatile uint32_t *)((uint8_t *)p_reg + (uint32_t)event)) = 0x0UL;
    42e6:	2300      	movs	r3, #0
    42e8:	f8c0 3124 	str.w	r3, [r0, #292]	; 0x124
    42ec:	f8d0 3124 	ldr.w	r3, [r0, #292]	; 0x124
    return (bool)*(volatile uint32_t *)((uint8_t *)p_reg + (uint32_t)event);
    42f0:	f8d0 3104 	ldr.w	r3, [r0, #260]	; 0x104
    {
        nrf_twim_event_clear(p_twim, NRF_TWIM_EVENT_ERROR);
        NRFX_LOG_DEBUG("TWIM: Event: %s.", EVT_TO_STR_TWIM(NRF_TWIM_EVENT_ERROR));
        if (!nrf_twim_event_check(p_twim, NRF_TWIM_EVENT_STOPPED))
    42f4:	b9b3      	cbnz	r3, 4324 <twim_irq_handler+0x4c>
        {
            nrf_twim_int_disable(p_twim, p_cb->int_mask);
    42f6:	688b      	ldr	r3, [r1, #8]
}

NRF_STATIC_INLINE void nrf_twim_int_disable(NRF_TWIM_Type * p_reg,
                                            uint32_t mask)
{
    p_reg->INTENCLR = mask;
    42f8:	f8c0 3308 	str.w	r3, [r0, #776]	; 0x308
            p_cb->int_mask = NRF_TWIM_INT_STOPPED_MASK;
    42fc:	2302      	movs	r3, #2
    42fe:	608b      	str	r3, [r1, #8]
            nrf_twim_int_enable(p_twim, p_cb->int_mask);
    4300:	688b      	ldr	r3, [r1, #8]
    p_reg->INTENSET = mask;
    4302:	f8c0 3304 	str.w	r3, [r0, #772]	; 0x304
    return (bool)*(volatile uint32_t *)((uint8_t *)p_reg + (uint32_t)event);
    4306:	f8d0 3160 	ldr.w	r3, [r0, #352]	; 0x160

            if (!(nrf_twim_event_check(p_twim, NRF_TWIM_EVENT_LASTTX) &&
    430a:	b11b      	cbz	r3, 4314 <twim_irq_handler+0x3c>
    p_reg->SHORTS = mask;
}

NRF_STATIC_INLINE uint32_t nrf_twim_shorts_get(NRF_TWIM_Type const * p_reg)
{
    return p_reg->SHORTS;
    430c:	f8d0 3200 	ldr.w	r3, [r0, #512]	; 0x200
    4310:	059f      	lsls	r7, r3, #22
    4312:	d402      	bmi.n	431a <twim_irq_handler+0x42>
    *((volatile uint32_t *)((uint8_t *)p_reg + (uint32_t)task)) = 0x1UL;
    4314:	2301      	movs	r3, #1
    4316:	6223      	str	r3, [r4, #32]
    4318:	6163      	str	r3, [r4, #20]
            {
                nrf_twim_task_trigger(p_twim, NRF_TWIM_TASK_RESUME);
                nrf_twim_task_trigger(p_twim, NRF_TWIM_TASK_STOP);
            }

            p_cb->error = true;
    431a:	2301      	movs	r3, #1
    431c:	f885 302e 	strb.w	r3, [r5, #46]	; 0x2e

    if (!(p_cb->flags & NRFX_TWIM_FLAG_NO_XFER_EVT_HANDLER) || p_cb->error)
    {
        p_cb->handler(&event, p_cb->p_context);
    }
}
    4320:	b007      	add	sp, #28
    4322:	bdf0      	pop	{r4, r5, r6, r7, pc}
    return (bool)*(volatile uint32_t *)((uint8_t *)p_reg + (uint32_t)event);
    4324:	f8d4 3104 	ldr.w	r3, [r4, #260]	; 0x104
    if (nrf_twim_event_check(p_twim, NRF_TWIM_EVENT_STOPPED))
    4328:	2b00      	cmp	r3, #0
    432a:	d044      	beq.n	43b6 <twim_irq_handler+0xde>
    *((volatile uint32_t *)((uint8_t *)p_reg + (uint32_t)event)) = 0x0UL;
    432c:	2300      	movs	r3, #0
    432e:	f8c4 3104 	str.w	r3, [r4, #260]	; 0x104
    4332:	f8d4 3104 	ldr.w	r3, [r4, #260]	; 0x104
        if (!(p_cb->flags & NRFX_TWIM_FLAG_NO_SPURIOUS_STOP_CHECK) && !p_cb->error)
    4336:	6a2b      	ldr	r3, [r5, #32]
    4338:	065e      	lsls	r6, r3, #25
    433a:	d40a      	bmi.n	4352 <twim_irq_handler+0x7a>
    433c:	f895 302e 	ldrb.w	r3, [r5, #46]	; 0x2e
    4340:	b93b      	cbnz	r3, 4352 <twim_irq_handler+0x7a>
            p_cb->error = !xfer_completeness_check(p_twim, p_cb);
    4342:	4629      	mov	r1, r5
    4344:	4620      	mov	r0, r4
    4346:	f002 fa9c 	bl	6882 <xfer_completeness_check>
    434a:	f080 0001 	eor.w	r0, r0, #1
    434e:	f885 002e 	strb.w	r0, [r5, #46]	; 0x2e
        if (!(p_cb->flags & NRFX_TWIM_FLAG_NO_XFER_EVT_HANDLER))
    4352:	6a2b      	ldr	r3, [r5, #32]
    4354:	f013 0c04 	ands.w	ip, r3, #4
    4358:	d13e      	bne.n	43d8 <twim_irq_handler+0x100>
            event.xfer_desc = p_cb->xfer_desc;
    435a:	f105 070c 	add.w	r7, r5, #12
    435e:	cf0f      	ldmia	r7!, {r0, r1, r2, r3}
    4360:	ae01      	add	r6, sp, #4
    4362:	c60f      	stmia	r6!, {r0, r1, r2, r3}
            if (!p_cb->repeated || p_cb->error)
    4364:	f895 e030 	ldrb.w	lr, [r5, #48]	; 0x30
            event.xfer_desc = p_cb->xfer_desc;
    4368:	683b      	ldr	r3, [r7, #0]
    436a:	f8c4 c160 	str.w	ip, [r4, #352]	; 0x160
    436e:	6033      	str	r3, [r6, #0]
    4370:	f8d4 3160 	ldr.w	r3, [r4, #352]	; 0x160
    4374:	f8c4 c15c 	str.w	ip, [r4, #348]	; 0x15c
    4378:	f8d4 315c 	ldr.w	r3, [r4, #348]	; 0x15c
            if (!p_cb->repeated || p_cb->error)
    437c:	f1be 0f00 	cmp.w	lr, #0
    4380:	d002      	beq.n	4388 <twim_irq_handler+0xb0>
    4382:	f895 302e 	ldrb.w	r3, [r5, #46]	; 0x2e
    4386:	b33b      	cbz	r3, 43d8 <twim_irq_handler+0x100>
    p_reg->SHORTS = mask;
    4388:	2300      	movs	r3, #0
    438a:	f8c4 3200 	str.w	r3, [r4, #512]	; 0x200
                p_cb->int_mask = 0;
    438e:	60ab      	str	r3, [r5, #8]
    p_reg->INTENCLR = mask;
    4390:	4b2e      	ldr	r3, [pc, #184]	; (444c <twim_irq_handler+0x174>)
    4392:	f8c4 3308 	str.w	r3, [r4, #776]	; 0x308
    return ((((uint32_t)p_object) & 0x3u) == 0u);
}

NRF_STATIC_INLINE IRQn_Type nrfx_get_irq_number(void const * p_reg)
{
    return (IRQn_Type)NRFX_IRQ_NUMBER_GET(p_reg);
    4396:	f344 3307 	sbfx	r3, r4, #12, #8
  if ((int32_t)(IRQn) >= 0)
    439a:	2b00      	cmp	r3, #0
    439c:	ea4f 3214 	mov.w	r2, r4, lsr #12
    43a0:	db1a      	blt.n	43d8 <twim_irq_handler+0x100>
    NVIC->ICPR[(((uint32_t)IRQn) >> 5UL)] = (uint32_t)(1UL << (((uint32_t)IRQn) & 0x1FUL));
    43a2:	f002 011f 	and.w	r1, r2, #31
    43a6:	095b      	lsrs	r3, r3, #5
    43a8:	2201      	movs	r2, #1
    43aa:	408a      	lsls	r2, r1
    43ac:	3360      	adds	r3, #96	; 0x60
    43ae:	4928      	ldr	r1, [pc, #160]	; (4450 <twim_irq_handler+0x178>)
    43b0:	f841 2023 	str.w	r2, [r1, r3, lsl #2]
}
    43b4:	e010      	b.n	43d8 <twim_irq_handler+0x100>
    *((volatile uint32_t *)((uint8_t *)p_reg + (uint32_t)event)) = 0x0UL;
    43b6:	f8c4 3148 	str.w	r3, [r4, #328]	; 0x148
    43ba:	f8d4 3148 	ldr.w	r3, [r4, #328]	; 0x148
        if (p_cb->xfer_desc.type == NRFX_TWIM_XFER_TX)
    43be:	7b2b      	ldrb	r3, [r5, #12]
    43c0:	bb23      	cbnz	r3, 440c <twim_irq_handler+0x134>
            event.xfer_desc = p_cb->xfer_desc;
    43c2:	f105 070c 	add.w	r7, r5, #12
    43c6:	cf0f      	ldmia	r7!, {r0, r1, r2, r3}
    43c8:	ae01      	add	r6, sp, #4
    43ca:	c60f      	stmia	r6!, {r0, r1, r2, r3}
    43cc:	683b      	ldr	r3, [r7, #0]
    43ce:	6033      	str	r3, [r6, #0]
            if (!p_cb->repeated)
    43d0:	f895 3030 	ldrb.w	r3, [r5, #48]	; 0x30
    43d4:	2b00      	cmp	r3, #0
    43d6:	d0d8      	beq.n	438a <twim_irq_handler+0xb2>
    uint32_t error_source = p_reg->ERRORSRC;
    43d8:	f8d4 34c4 	ldr.w	r3, [r4, #1220]	; 0x4c4
    p_reg->ERRORSRC = error_source;
    43dc:	f8c4 34c4 	str.w	r3, [r4, #1220]	; 0x4c4
    if (errorsrc & NRF_TWIM_ERROR_ADDRESS_NACK)
    43e0:	0798      	lsls	r0, r3, #30
    43e2:	d525      	bpl.n	4430 <twim_irq_handler+0x158>
        event.type = NRFX_TWIM_EVT_ADDRESS_NACK;
    43e4:	2301      	movs	r3, #1
        event.type = NRFX_TWIM_EVT_DONE;
    43e6:	f88d 3000 	strb.w	r3, [sp]
    if (!p_cb->repeated)
    43ea:	f895 3030 	ldrb.w	r3, [r5, #48]	; 0x30
    43ee:	b90b      	cbnz	r3, 43f4 <twim_irq_handler+0x11c>
        p_cb->busy = false;
    43f0:	f885 302f 	strb.w	r3, [r5, #47]	; 0x2f
    if (!(p_cb->flags & NRFX_TWIM_FLAG_NO_XFER_EVT_HANDLER) || p_cb->error)
    43f4:	6a2b      	ldr	r3, [r5, #32]
    43f6:	075b      	lsls	r3, r3, #29
    43f8:	d503      	bpl.n	4402 <twim_irq_handler+0x12a>
    43fa:	f895 302e 	ldrb.w	r3, [r5, #46]	; 0x2e
    43fe:	2b00      	cmp	r3, #0
    4400:	d08e      	beq.n	4320 <twim_irq_handler+0x48>
        p_cb->handler(&event, p_cb->p_context);
    4402:	e9d5 3100 	ldrd	r3, r1, [r5]
    4406:	4668      	mov	r0, sp
    4408:	4798      	blx	r3
    440a:	e789      	b.n	4320 <twim_irq_handler+0x48>
    p_reg->SHORTS = mask;
    440c:	f44f 7300 	mov.w	r3, #512	; 0x200
    4410:	f8c4 3200 	str.w	r3, [r4, #512]	; 0x200
            p_cb->int_mask = NRF_TWIM_INT_STOPPED_MASK | NRF_TWIM_INT_ERROR_MASK;
    4414:	f240 2302 	movw	r3, #514	; 0x202
    4418:	60ab      	str	r3, [r5, #8]
    p_reg->INTENCLR = mask;
    441a:	f103 73ce 	add.w	r3, r3, #27000832	; 0x19c0000
    441e:	f8c4 3308 	str.w	r3, [r4, #776]	; 0x308
            nrf_twim_int_enable(p_twim, p_cb->int_mask);
    4422:	68ab      	ldr	r3, [r5, #8]
    p_reg->INTENSET = mask;
    4424:	f8c4 3304 	str.w	r3, [r4, #772]	; 0x304
    *((volatile uint32_t *)((uint8_t *)p_reg + (uint32_t)task)) = 0x1UL;
    4428:	2301      	movs	r3, #1
    442a:	60a3      	str	r3, [r4, #8]
    442c:	6223      	str	r3, [r4, #32]
            return;
    442e:	e777      	b.n	4320 <twim_irq_handler+0x48>
    else if (errorsrc & NRF_TWIM_ERROR_DATA_NACK)
    4430:	0759      	lsls	r1, r3, #29
    4432:	d501      	bpl.n	4438 <twim_irq_handler+0x160>
        event.type = NRFX_TWIM_EVT_DATA_NACK;
    4434:	2302      	movs	r3, #2
    4436:	e7d6      	b.n	43e6 <twim_irq_handler+0x10e>
    else if (errorsrc & NRF_TWIM_ERROR_OVERRUN)
    4438:	07da      	lsls	r2, r3, #31
    443a:	d501      	bpl.n	4440 <twim_irq_handler+0x168>
        event.type = NRFX_TWIM_EVT_OVERRUN;
    443c:	2303      	movs	r3, #3
    443e:	e7d2      	b.n	43e6 <twim_irq_handler+0x10e>
    else if (p_cb->error)
    4440:	f895 302e 	ldrb.w	r3, [r5, #46]	; 0x2e
    4444:	2b00      	cmp	r3, #0
    4446:	d0ce      	beq.n	43e6 <twim_irq_handler+0x10e>
        event.type = NRFX_TWIM_EVT_BUS_ERROR;
    4448:	2304      	movs	r3, #4
    444a:	e7cc      	b.n	43e6 <twim_irq_handler+0x10e>
    444c:	019c0202 	.word	0x019c0202
    4450:	e000e100 	.word	0xe000e100

00004454 <nrfx_twim_init>:
{
    4454:	b5f8      	push	{r3, r4, r5, r6, r7, lr}
    twim_control_block_t * p_cb  = &m_cb[p_instance->drv_inst_idx];
    4456:	7906      	ldrb	r6, [r0, #4]
    if (p_cb->state != NRFX_DRV_STATE_UNINITIALIZED)
    4458:	4d23      	ldr	r5, [pc, #140]	; (44e8 <nrfx_twim_init+0x94>)
    445a:	f04f 0c34 	mov.w	ip, #52	; 0x34
    445e:	fb0c fc06 	mul.w	ip, ip, r6
    4462:	eb05 040c 	add.w	r4, r5, ip
    4466:	f894 702d 	ldrb.w	r7, [r4, #45]	; 0x2d
    446a:	2f00      	cmp	r7, #0
    446c:	d13a      	bne.n	44e4 <nrfx_twim_init+0x90>
    NRF_TWIM_Type * p_twim = p_instance->p_twim;
    446e:	6800      	ldr	r0, [r0, #0]
    p_cb->p_context       = p_context;
    4470:	6063      	str	r3, [r4, #4]
    p_cb->hold_bus_uninit = p_config->hold_bus_uninit;
    4472:	7b4b      	ldrb	r3, [r1, #13]
    4474:	f884 3032 	strb.w	r3, [r4, #50]	; 0x32
    p_cb->skip_gpio_cfg   = p_config->skip_gpio_cfg;
    4478:	7b8b      	ldrb	r3, [r1, #14]
    p_cb->int_mask        = 0;
    447a:	60a7      	str	r7, [r4, #8]
    p_cb->repeated        = false;
    447c:	f884 7030 	strb.w	r7, [r4, #48]	; 0x30
    p_cb->busy            = false;
    4480:	f884 702f 	strb.w	r7, [r4, #47]	; 0x2f
    p_cb->skip_gpio_cfg   = p_config->skip_gpio_cfg;
    4484:	f884 3033 	strb.w	r3, [r4, #51]	; 0x33
    p_cb->handler         = event_handler;
    4488:	f845 200c 	str.w	r2, [r5, ip]
    if (p_config->skip_gpio_cfg && p_config->skip_psel_cfg)
    448c:	7bcc      	ldrb	r4, [r1, #15]
    448e:	b1b3      	cbz	r3, 44be <nrfx_twim_init+0x6a>
    4490:	b92c      	cbnz	r4, 449e <nrfx_twim_init+0x4a>
        nrf_twim_pins_set(p_twim, p_config->scl, p_config->sda);
    4492:	e9d1 4300 	ldrd	r4, r3, [r1]
    p_reg->PSEL.SCL = scl_pin;
    4496:	f8c0 4508 	str.w	r4, [r0, #1288]	; 0x508
    p_reg->PSEL.SDA = sda_pin;
    449a:	f8c0 350c 	str.w	r3, [r0, #1292]	; 0x50c
    nrf_twim_frequency_set(p_twim, (nrf_twim_frequency_t)p_config->frequency);
    449e:	688b      	ldr	r3, [r1, #8]
    p_reg->FREQUENCY = frequency;
    44a0:	f8c0 3524 	str.w	r3, [r0, #1316]	; 0x524
    if (p_cb->handler)
    44a4:	b11a      	cbz	r2, 44ae <nrfx_twim_init+0x5a>
        NRFX_IRQ_ENABLE(nrfx_get_irq_number(p_instance->p_twim));
    44a6:	f340 3007 	sbfx	r0, r0, #12, #8
    44aa:	f7fd fcc1 	bl	1e30 <arch_irq_enable>
    p_cb->state = NRFX_DRV_STATE_INITIALIZED;
    44ae:	2334      	movs	r3, #52	; 0x34
    44b0:	fb03 5506 	mla	r5, r3, r6, r5
    return err_code;
    44b4:	480d      	ldr	r0, [pc, #52]	; (44ec <nrfx_twim_init+0x98>)
    p_cb->state = NRFX_DRV_STATE_INITIALIZED;
    44b6:	2301      	movs	r3, #1
    44b8:	f885 302d 	strb.w	r3, [r5, #45]	; 0x2d
}
    44bc:	bdf8      	pop	{r3, r4, r5, r6, r7, pc}
    *p_pin = pin_number & 0x1F;
    44be:	680b      	ldr	r3, [r1, #0]
    44c0:	f003 031f 	and.w	r3, r3, #31
    reg->PIN_CNF[pin_number] = cnf;
    44c4:	f04f 47a0 	mov.w	r7, #1342177280	; 0x50000000
    44c8:	f503 73e0 	add.w	r3, r3, #448	; 0x1c0
    44cc:	f240 6c0c 	movw	ip, #1548	; 0x60c
    44d0:	f847 c023 	str.w	ip, [r7, r3, lsl #2]
    *p_pin = pin_number & 0x1F;
    44d4:	684b      	ldr	r3, [r1, #4]
    44d6:	f003 031f 	and.w	r3, r3, #31
    reg->PIN_CNF[pin_number] = cnf;
    44da:	f503 73e0 	add.w	r3, r3, #448	; 0x1c0
    44de:	f847 c023 	str.w	ip, [r7, r3, lsl #2]
    if (!p_config->skip_psel_cfg)
    44e2:	e7d5      	b.n	4490 <nrfx_twim_init+0x3c>
        return err_code;
    44e4:	4802      	ldr	r0, [pc, #8]	; (44f0 <nrfx_twim_init+0x9c>)
    44e6:	e7e9      	b.n	44bc <nrfx_twim_init+0x68>
    44e8:	200004ec 	.word	0x200004ec
    44ec:	0bad0000 	.word	0x0bad0000
    44f0:	0bad0005 	.word	0x0bad0005

000044f4 <nrfx_twim_enable>:
    nrf_twim_enable(p_instance->p_twim);
    44f4:	6803      	ldr	r3, [r0, #0]
    twim_control_block_t * p_cb = &m_cb[p_instance->drv_inst_idx];
    44f6:	7902      	ldrb	r2, [r0, #4]
    p_reg->ENABLE = (TWIM_ENABLE_ENABLE_Enabled << TWIM_ENABLE_ENABLE_Pos);
    44f8:	2106      	movs	r1, #6
    44fa:	f8c3 1500 	str.w	r1, [r3, #1280]	; 0x500
    p_cb->state = NRFX_DRV_STATE_POWERED_ON;
    44fe:	4b04      	ldr	r3, [pc, #16]	; (4510 <nrfx_twim_enable+0x1c>)
    4500:	2134      	movs	r1, #52	; 0x34
    4502:	fb01 3302 	mla	r3, r1, r2, r3
    4506:	2202      	movs	r2, #2
    4508:	f883 202d 	strb.w	r2, [r3, #45]	; 0x2d
}
    450c:	4770      	bx	lr
    450e:	bf00      	nop
    4510:	200004ec 	.word	0x200004ec

00004514 <nrfx_twim_disable>:
    twim_control_block_t * p_cb = &m_cb[p_instance->drv_inst_idx];
    4514:	7901      	ldrb	r1, [r0, #4]
    p_cb->int_mask = 0;
    4516:	4b0c      	ldr	r3, [pc, #48]	; (4548 <nrfx_twim_disable+0x34>)
    NRF_TWIM_Type * p_twim = p_instance->p_twim;
    4518:	6802      	ldr	r2, [r0, #0]
    p_cb->int_mask = 0;
    451a:	2034      	movs	r0, #52	; 0x34
    451c:	fb00 3301 	mla	r3, r0, r1, r3
    4520:	2100      	movs	r1, #0
    p_reg->INTENCLR = mask;
    4522:	480a      	ldr	r0, [pc, #40]	; (454c <nrfx_twim_disable+0x38>)
    4524:	6099      	str	r1, [r3, #8]
    4526:	f8c2 0308 	str.w	r0, [r2, #776]	; 0x308
    p_reg->SHORTS &= ~(mask);
    452a:	f8d2 0200 	ldr.w	r0, [r2, #512]	; 0x200
    452e:	f420 50bc 	bic.w	r0, r0, #6016	; 0x1780
    4532:	f8c2 0200 	str.w	r0, [r2, #512]	; 0x200
    p_reg->ENABLE = (TWIM_ENABLE_ENABLE_Disabled << TWIM_ENABLE_ENABLE_Pos);
    4536:	f8c2 1500 	str.w	r1, [r2, #1280]	; 0x500
    p_cb->state = NRFX_DRV_STATE_INITIALIZED;
    453a:	2201      	movs	r2, #1
    453c:	f883 202d 	strb.w	r2, [r3, #45]	; 0x2d
    p_cb->busy = false;
    4540:	f883 102f 	strb.w	r1, [r3, #47]	; 0x2f
}
    4544:	4770      	bx	lr
    4546:	bf00      	nop
    4548:	200004ec 	.word	0x200004ec
    454c:	019c0202 	.word	0x019c0202

00004550 <nrfx_twim_xfer>:
{
    4550:	e92d 47f0 	stmdb	sp!, {r4, r5, r6, r7, r8, r9, sl, lr}
    p_cb->error = false;
    4554:	f8df c2d0 	ldr.w	ip, [pc, #720]	; 4828 <nrfx_twim_xfer+0x2d8>
    twim_control_block_t * p_cb = &m_cb[p_instance->drv_inst_idx];
    4558:	f890 e004 	ldrb.w	lr, [r0, #4]
    err_code = twim_xfer(p_cb, (NRF_TWIM_Type *)p_instance->p_twim, p_xfer_desc, flags);
    455c:	6804      	ldr	r4, [r0, #0]
    p_cb->error = false;
    455e:	2334      	movs	r3, #52	; 0x34
    4560:	fb03 c30e 	mla	r3, r3, lr, ip
{
    4564:	4617      	mov	r7, r2
    p_cb->error = false;
    4566:	2200      	movs	r2, #0
    4568:	f883 202e 	strb.w	r2, [r3, #46]	; 0x2e
    if (p_xfer_desc->primary_length != 0 && !nrfx_is_in_ram(p_xfer_desc->p_primary_buf))
    456c:	684b      	ldr	r3, [r1, #4]
{
    456e:	460d      	mov	r5, r1
    if (p_xfer_desc->primary_length != 0 && !nrfx_is_in_ram(p_xfer_desc->p_primary_buf))
    4570:	b14b      	cbz	r3, 4586 <nrfx_twim_xfer+0x36>
    return ((((uint32_t)p_object) & 0xE0000000u) == 0x20000000u);
    4572:	68cb      	ldr	r3, [r1, #12]
    4574:	f003 4360 	and.w	r3, r3, #3758096384	; 0xe0000000
    4578:	f1b3 5f00 	cmp.w	r3, #536870912	; 0x20000000
    457c:	d003      	beq.n	4586 <nrfx_twim_xfer+0x36>
        return err_code;
    457e:	4eab      	ldr	r6, [pc, #684]	; (482c <nrfx_twim_xfer+0x2dc>)
}
    4580:	4630      	mov	r0, r6
    4582:	e8bd 87f0 	ldmia.w	sp!, {r4, r5, r6, r7, r8, r9, sl, pc}
    if (p_cb->busy)
    4586:	2634      	movs	r6, #52	; 0x34
    p_reg->INTENCLR = mask;
    4588:	4ba9      	ldr	r3, [pc, #676]	; (4830 <nrfx_twim_xfer+0x2e0>)
    458a:	f8c4 3308 	str.w	r3, [r4, #776]	; 0x308
    458e:	fb06 c60e 	mla	r6, r6, lr, ip
    4592:	f896 302f 	ldrb.w	r3, [r6, #47]	; 0x2f
    4596:	f003 0aff 	and.w	sl, r3, #255	; 0xff
    459a:	b123      	cbz	r3, 45a6 <nrfx_twim_xfer+0x56>
        nrf_twim_int_enable(p_twim, p_cb->int_mask);
    459c:	68b3      	ldr	r3, [r6, #8]
    p_reg->INTENSET = mask;
    459e:	f8c4 3304 	str.w	r3, [r4, #772]	; 0x304
        return err_code;
    45a2:	4ea4      	ldr	r6, [pc, #656]	; (4834 <nrfx_twim_xfer+0x2e4>)
    45a4:	e7ec      	b.n	4580 <nrfx_twim_xfer+0x30>
                      (NRFX_TWIM_FLAG_REPEATED_XFER & flags)) ? false: true;
    45a6:	f017 0f14 	tst.w	r7, #20
    45aa:	bf0c      	ite	eq
    45ac:	2301      	moveq	r3, #1
    45ae:	2300      	movne	r3, #0
        p_cb->busy = ((NRFX_TWIM_FLAG_NO_XFER_EVT_HANDLER & flags) ||
    45b0:	f886 302f 	strb.w	r3, [r6, #47]	; 0x2f
    p_cb->xfer_desc = *p_xfer_desc;
    45b4:	46a9      	mov	r9, r5
    45b6:	e8b9 000f 	ldmia.w	r9!, {r0, r1, r2, r3}
    45ba:	f106 080c 	add.w	r8, r6, #12
    45be:	e8a8 000f 	stmia.w	r8!, {r0, r1, r2, r3}
    45c2:	f8d9 3000 	ldr.w	r3, [r9]
    45c6:	f8c8 3000 	str.w	r3, [r8]
    p_cb->repeated = (flags & NRFX_TWIM_FLAG_REPEATED_XFER) ? true : false;
    45ca:	f3c7 1300 	ubfx	r3, r7, #4, #1
    45ce:	f886 3030 	strb.w	r3, [r6, #48]	; 0x30
    p_cb->flags = flags;
    45d2:	6237      	str	r7, [r6, #32]
    p_reg->ADDRESS = address;
    45d4:	786b      	ldrb	r3, [r5, #1]
    45d6:	f8c4 3588 	str.w	r3, [r4, #1416]	; 0x588
    *((volatile uint32_t *)((uint8_t *)p_reg + (uint32_t)event)) = 0x0UL;
    45da:	f8c4 a104 	str.w	sl, [r4, #260]	; 0x104
    45de:	f8d4 3104 	ldr.w	r3, [r4, #260]	; 0x104
    45e2:	f8c4 a124 	str.w	sl, [r4, #292]	; 0x124
    45e6:	f8d4 3124 	ldr.w	r3, [r4, #292]	; 0x124
    45ea:	f8c4 a160 	str.w	sl, [r4, #352]	; 0x160
    45ee:	f8d4 3160 	ldr.w	r3, [r4, #352]	; 0x160
    45f2:	f8c4 a148 	str.w	sl, [r4, #328]	; 0x148
    45f6:	f8d4 3148 	ldr.w	r3, [r4, #328]	; 0x148
    if (NRFX_TWIM_FLAG_TX_POSTINC & flags)
    45fa:	f017 0301 	ands.w	r3, r7, #1
    return p_reg->RXD.AMOUNT;
}

NRF_STATIC_INLINE void nrf_twim_tx_list_enable(NRF_TWIM_Type * p_reg)
{
    p_reg->TXD.LIST = TWIM_TXD_LIST_LIST_ArrayList << TWIM_TXD_LIST_LIST_Pos;
    45fe:	bf18      	it	ne
    4600:	2301      	movne	r3, #1
}

NRF_STATIC_INLINE void nrf_twim_tx_list_disable(NRF_TWIM_Type * p_reg)
{
    p_reg->TXD.LIST = TWIM_TXD_LIST_LIST_Disabled << TWIM_TXD_LIST_LIST_Pos;
    4602:	f8c4 3550 	str.w	r3, [r4, #1360]	; 0x550
    if (NRFX_TWIM_FLAG_RX_POSTINC & flags)
    4606:	f017 0302 	ands.w	r3, r7, #2
}

NRF_STATIC_INLINE void nrf_twim_rx_list_enable(NRF_TWIM_Type * p_reg)
{
    p_reg->RXD.LIST = TWIM_RXD_LIST_LIST_ArrayList << TWIM_RXD_LIST_LIST_Pos;
    460a:	bf18      	it	ne
    460c:	2301      	movne	r3, #1
}

NRF_STATIC_INLINE void nrf_twim_rx_list_disable(NRF_TWIM_Type * p_reg)
{
    p_reg->RXD.LIST = TWIM_RXD_LIST_LIST_Disabled << TWIM_RXD_LIST_LIST_Pos;
    460e:	f8c4 3540 	str.w	r3, [r4, #1344]	; 0x540
    switch (p_xfer_desc->type)
    4612:	782a      	ldrb	r2, [r5, #0]
    4614:	2a03      	cmp	r2, #3
    4616:	f200 80b5 	bhi.w	4784 <nrfx_twim_xfer+0x234>
    461a:	e8df f002 	tbb	[pc, r2]
    461e:	a084      	.short	0xa084
    4620:	0269      	.short	0x0269
    4622:	692b      	ldr	r3, [r5, #16]
    4624:	f003 4160 	and.w	r1, r3, #3758096384	; 0xe0000000
        if (!nrfx_is_in_ram(p_xfer_desc->p_secondary_buf))
    4628:	f1b1 5f00 	cmp.w	r1, #536870912	; 0x20000000
    462c:	d1a7      	bne.n	457e <nrfx_twim_xfer+0x2e>
    p_reg->SHORTS = mask;
    462e:	f44f 7180 	mov.w	r1, #256	; 0x100
    4632:	f8c4 1200 	str.w	r1, [r4, #512]	; 0x200
    p_reg->TXD.PTR    = (uint32_t)p_buffer;
    4636:	68e8      	ldr	r0, [r5, #12]
        nrf_twim_tx_buffer_set(p_twim, p_xfer_desc->p_primary_buf, p_xfer_desc->primary_length);
    4638:	6869      	ldr	r1, [r5, #4]
    463a:	f8c4 0544 	str.w	r0, [r4, #1348]	; 0x544
    p_reg->TXD.MAXCNT = length;
    463e:	f8c4 1548 	str.w	r1, [r4, #1352]	; 0x548
    *((volatile uint32_t *)((uint8_t *)p_reg + (uint32_t)event)) = 0x0UL;
    4642:	2100      	movs	r1, #0
    4644:	f8c4 1150 	str.w	r1, [r4, #336]	; 0x150
    4648:	f8d4 0150 	ldr.w	r0, [r4, #336]	; 0x150
    *((volatile uint32_t *)((uint8_t *)p_reg + (uint32_t)task)) = 0x1UL;
    464c:	2001      	movs	r0, #1
    464e:	6220      	str	r0, [r4, #32]
    4650:	60a0      	str	r0, [r4, #8]
    return (bool)*(volatile uint32_t *)((uint8_t *)p_reg + (uint32_t)event);
    4652:	f8d4 0150 	ldr.w	r0, [r4, #336]	; 0x150
        while (!nrf_twim_event_check(p_twim, NRF_TWIM_EVENT_TXSTARTED))
    4656:	2800      	cmp	r0, #0
    4658:	d0fb      	beq.n	4652 <nrfx_twim_xfer+0x102>
    *((volatile uint32_t *)((uint8_t *)p_reg + (uint32_t)event)) = 0x0UL;
    465a:	f8c4 1150 	str.w	r1, [r4, #336]	; 0x150
    465e:	f8d4 1150 	ldr.w	r1, [r4, #336]	; 0x150
        nrf_twim_tx_buffer_set(p_twim, p_xfer_desc->p_secondary_buf, p_xfer_desc->secondary_length);
    4662:	68a9      	ldr	r1, [r5, #8]
    p_reg->TXD.PTR    = (uint32_t)p_buffer;
    4664:	f8c4 3544 	str.w	r3, [r4, #1348]	; 0x544
        p_cb->int_mask = NRF_TWIM_INT_SUSPENDED_MASK;
    4668:	2334      	movs	r3, #52	; 0x34
    466a:	fb03 c30e 	mla	r3, r3, lr, ip
    p_reg->TXD.MAXCNT = length;
    466e:	f8c4 1548 	str.w	r1, [r4, #1352]	; 0x548
    4672:	f44f 2180 	mov.w	r1, #262144	; 0x40000
    4676:	6099      	str	r1, [r3, #8]
    nrf_twim_task_t  start_task = NRF_TWIM_TASK_STARTTX;
    4678:	2308      	movs	r3, #8
    nrfx_err_t err_code = NRFX_SUCCESS;
    467a:	4e6f      	ldr	r6, [pc, #444]	; (4838 <nrfx_twim_xfer+0x2e8>)
    if (!(flags & NRFX_TWIM_FLAG_HOLD_XFER) && (p_xfer_desc->type != NRFX_TWIM_XFER_TXTX))
    467c:	0739      	lsls	r1, r7, #28
    467e:	d406      	bmi.n	468e <nrfx_twim_xfer+0x13e>
    4680:	2a03      	cmp	r2, #3
    4682:	d004      	beq.n	468e <nrfx_twim_xfer+0x13e>
    *((volatile uint32_t *)((uint8_t *)p_reg + (uint32_t)task)) = 0x1UL;
    4684:	2201      	movs	r2, #1
    4686:	50e2      	str	r2, [r4, r3]
        if (p_xfer_desc->primary_length == 0)
    4688:	686b      	ldr	r3, [r5, #4]
    468a:	b903      	cbnz	r3, 468e <nrfx_twim_xfer+0x13e>
    468c:	6162      	str	r2, [r4, #20]
    if (p_cb->handler)
    468e:	2334      	movs	r3, #52	; 0x34
    4690:	fb03 f30e 	mul.w	r3, r3, lr
    4694:	eb0c 0103 	add.w	r1, ip, r3
    4698:	f85c 2003 	ldr.w	r2, [ip, r3]
    469c:	2a00      	cmp	r2, #0
    469e:	d174      	bne.n	478a <nrfx_twim_xfer+0x23a>
                transmission_finished = true;
    46a0:	2101      	movs	r1, #1
    return (bool)*(volatile uint32_t *)((uint8_t *)p_reg + (uint32_t)event);
    46a2:	f8d4 3148 	ldr.w	r3, [r4, #328]	; 0x148
    46a6:	f8d4 0104 	ldr.w	r0, [r4, #260]	; 0x104
            if (nrf_twim_event_check(p_twim, NRF_TWIM_EVENT_STOPPED))
    46aa:	2800      	cmp	r0, #0
    46ac:	f040 8088 	bne.w	47c0 <nrfx_twim_xfer+0x270>
            if (nrf_twim_event_check(p_twim, NRF_TWIM_EVENT_SUSPENDED))
    46b0:	3b00      	subs	r3, #0
    46b2:	bf18      	it	ne
    46b4:	2301      	movne	r3, #1
    46b6:	f8d4 0124 	ldr.w	r0, [r4, #292]	; 0x124
            if (nrf_twim_event_check(p_twim, NRF_TWIM_EVENT_ERROR))
    46ba:	2800      	cmp	r0, #0
    46bc:	f000 8086 	beq.w	47cc <nrfx_twim_xfer+0x27c>
    *((volatile uint32_t *)((uint8_t *)p_reg + (uint32_t)event)) = 0x0UL;
    46c0:	f8c4 2124 	str.w	r2, [r4, #292]	; 0x124
    46c4:	f8d4 0124 	ldr.w	r0, [r4, #292]	; 0x124
    return (bool)*(volatile uint32_t *)((uint8_t *)p_reg + (uint32_t)event);
    46c8:	f8d4 5160 	ldr.w	r5, [r4, #352]	; 0x160
    return p_reg->SHORTS;
    46cc:	f8d4 0200 	ldr.w	r0, [r4, #512]	; 0x200
                if (!(lasttx_triggered && (shorts_mask & NRF_TWIM_SHORT_LASTTX_STOP_MASK)))
    46d0:	b115      	cbz	r5, 46d8 <nrfx_twim_xfer+0x188>
    46d2:	f410 7f00 	tst.w	r0, #512	; 0x200
    46d6:	d104      	bne.n	46e2 <nrfx_twim_xfer+0x192>
    *((volatile uint32_t *)((uint8_t *)p_reg + (uint32_t)task)) = 0x1UL;
    46d8:	6221      	str	r1, [r4, #32]
    46da:	6161      	str	r1, [r4, #20]
                if (lasttx_triggered && (shorts_mask & NRF_TWIM_SHORT_LASTTX_SUSPEND_MASK))
    46dc:	2d00      	cmp	r5, #0
    46de:	d0e0      	beq.n	46a2 <nrfx_twim_xfer+0x152>
                    transmission_finished = false;
    46e0:	2300      	movs	r3, #0
                if (lasttx_triggered && (shorts_mask & NRF_TWIM_SHORT_LASTTX_SUSPEND_MASK))
    46e2:	05c0      	lsls	r0, r0, #23
    46e4:	d572      	bpl.n	47cc <nrfx_twim_xfer+0x27c>
    *((volatile uint32_t *)((uint8_t *)p_reg + (uint32_t)event)) = 0x0UL;
    46e6:	f8c4 2148 	str.w	r2, [r4, #328]	; 0x148
    46ea:	f8d4 3148 	ldr.w	r3, [r4, #328]	; 0x148
        } while (!transmission_finished);
    46ee:	e7d8      	b.n	46a2 <nrfx_twim_xfer+0x152>
        nrf_twim_tx_buffer_set(p_twim, p_xfer_desc->p_primary_buf, p_xfer_desc->primary_length);
    46f0:	686b      	ldr	r3, [r5, #4]
    p_reg->TXD.PTR    = (uint32_t)p_buffer;
    46f2:	68e9      	ldr	r1, [r5, #12]
    46f4:	f8c4 1544 	str.w	r1, [r4, #1348]	; 0x544
    p_reg->TXD.MAXCNT = length;
    46f8:	f8c4 3548 	str.w	r3, [r4, #1352]	; 0x548
    46fc:	692b      	ldr	r3, [r5, #16]
    46fe:	f003 4160 	and.w	r1, r3, #3758096384	; 0xe0000000
        if (!nrfx_is_in_ram(p_xfer_desc->p_secondary_buf))
    4702:	f1b1 5f00 	cmp.w	r1, #536870912	; 0x20000000
    4706:	f47f af3a 	bne.w	457e <nrfx_twim_xfer+0x2e>
        nrf_twim_rx_buffer_set(p_twim, p_xfer_desc->p_secondary_buf, p_xfer_desc->secondary_length);
    470a:	68a9      	ldr	r1, [r5, #8]
    p_reg->RXD.PTR    = (uint32_t)p_buffer;
    470c:	f8c4 3534 	str.w	r3, [r4, #1332]	; 0x534
    p_reg->SHORTS = mask;
    4710:	f44f 5384 	mov.w	r3, #4224	; 0x1080
    p_reg->RXD.MAXCNT = length;
    4714:	f8c4 1538 	str.w	r1, [r4, #1336]	; 0x538
    p_reg->SHORTS = mask;
    4718:	f8c4 3200 	str.w	r3, [r4, #512]	; 0x200
        p_cb->int_mask = NRF_TWIM_INT_STOPPED_MASK;
    471c:	2334      	movs	r3, #52	; 0x34
            p_cb->int_mask = NRF_TWIM_INT_STOPPED_MASK;
    471e:	fb03 c30e 	mla	r3, r3, lr, ip
    4722:	2102      	movs	r1, #2
    4724:	e012      	b.n	474c <nrfx_twim_xfer+0x1fc>
        nrf_twim_tx_buffer_set(p_twim, p_xfer_desc->p_primary_buf, p_xfer_desc->primary_length);
    4726:	686b      	ldr	r3, [r5, #4]
    p_reg->TXD.PTR    = (uint32_t)p_buffer;
    4728:	68e9      	ldr	r1, [r5, #12]
    472a:	f8c4 1544 	str.w	r1, [r4, #1348]	; 0x544
        if (NRFX_TWIM_FLAG_TX_NO_STOP & flags)
    472e:	f017 0f20 	tst.w	r7, #32
    p_reg->TXD.MAXCNT = length;
    4732:	f8c4 3548 	str.w	r3, [r4, #1352]	; 0x548
    4736:	f04f 0334 	mov.w	r3, #52	; 0x34
    473a:	d00b      	beq.n	4754 <nrfx_twim_xfer+0x204>
    p_reg->SHORTS = mask;
    473c:	f44f 7180 	mov.w	r1, #256	; 0x100
    4740:	f8c4 1200 	str.w	r1, [r4, #512]	; 0x200
            p_cb->int_mask = NRF_TWIM_INT_SUSPENDED_MASK;
    4744:	fb03 c30e 	mla	r3, r3, lr, ip
    4748:	f44f 2180 	mov.w	r1, #262144	; 0x40000
            p_cb->int_mask = NRF_TWIM_INT_STOPPED_MASK;
    474c:	6099      	str	r1, [r3, #8]
    *((volatile uint32_t *)((uint8_t *)p_reg + (uint32_t)task)) = 0x1UL;
    474e:	2301      	movs	r3, #1
    4750:	6223      	str	r3, [r4, #32]
    4752:	e791      	b.n	4678 <nrfx_twim_xfer+0x128>
    p_reg->SHORTS = mask;
    4754:	f44f 7100 	mov.w	r1, #512	; 0x200
    4758:	f8c4 1200 	str.w	r1, [r4, #512]	; 0x200
    475c:	e7df      	b.n	471e <nrfx_twim_xfer+0x1ce>
        nrf_twim_rx_buffer_set(p_twim, p_xfer_desc->p_primary_buf, p_xfer_desc->primary_length);
    475e:	686b      	ldr	r3, [r5, #4]
    p_reg->RXD.PTR    = (uint32_t)p_buffer;
    4760:	68e9      	ldr	r1, [r5, #12]
    4762:	f8c4 1534 	str.w	r1, [r4, #1332]	; 0x534
    p_reg->RXD.MAXCNT = length;
    4766:	f8c4 3538 	str.w	r3, [r4, #1336]	; 0x538
    p_reg->SHORTS = mask;
    476a:	f44f 5380 	mov.w	r3, #4096	; 0x1000
    476e:	f8c4 3200 	str.w	r3, [r4, #512]	; 0x200
        p_cb->int_mask = NRF_TWIM_INT_STOPPED_MASK;
    4772:	2334      	movs	r3, #52	; 0x34
    4774:	fb03 c30e 	mla	r3, r3, lr, ip
    4778:	2102      	movs	r1, #2
    477a:	6099      	str	r1, [r3, #8]
    *((volatile uint32_t *)((uint8_t *)p_reg + (uint32_t)task)) = 0x1UL;
    477c:	2301      	movs	r3, #1
    477e:	6223      	str	r3, [r4, #32]
        start_task = NRF_TWIM_TASK_STARTRX;
    4780:	2300      	movs	r3, #0
    4782:	e77a      	b.n	467a <nrfx_twim_xfer+0x12a>
    switch (p_xfer_desc->type)
    4784:	4e2d      	ldr	r6, [pc, #180]	; (483c <nrfx_twim_xfer+0x2ec>)
    4786:	2308      	movs	r3, #8
    4788:	e778      	b.n	467c <nrfx_twim_xfer+0x12c>
        if (flags & NRFX_TWIM_FLAG_NO_XFER_EVT_HANDLER)
    478a:	077a      	lsls	r2, r7, #29
            p_cb->int_mask = 0;
    478c:	bf44      	itt	mi
    478e:	2300      	movmi	r3, #0
    4790:	608b      	strmi	r3, [r1, #8]
        if (!(flags & NRFX_TWIM_FLAG_NO_SPURIOUS_STOP_CHECK))
    4792:	067b      	lsls	r3, r7, #25
    4794:	d406      	bmi.n	47a4 <nrfx_twim_xfer+0x254>
            p_cb->int_mask |= NRF_TWIM_INT_STOPPED_MASK;
    4796:	2334      	movs	r3, #52	; 0x34
    4798:	fb03 c30e 	mla	r3, r3, lr, ip
    479c:	689a      	ldr	r2, [r3, #8]
    479e:	f042 0202 	orr.w	r2, r2, #2
    47a2:	609a      	str	r2, [r3, #8]
        p_cb->int_mask |= NRF_TWIM_INT_ERROR_MASK;
    47a4:	2334      	movs	r3, #52	; 0x34
    47a6:	fb03 cc0e 	mla	ip, r3, lr, ip
    47aa:	f8dc 3008 	ldr.w	r3, [ip, #8]
    47ae:	f443 7300 	orr.w	r3, r3, #512	; 0x200
    47b2:	f8cc 3008 	str.w	r3, [ip, #8]
        nrf_twim_int_enable(p_twim, p_cb->int_mask);
    47b6:	f8dc 3008 	ldr.w	r3, [ip, #8]
    p_reg->INTENSET = mask;
    47ba:	f8c4 3304 	str.w	r3, [r4, #772]	; 0x304
}
    47be:	e6df      	b.n	4580 <nrfx_twim_xfer+0x30>
    *((volatile uint32_t *)((uint8_t *)p_reg + (uint32_t)event)) = 0x0UL;
    47c0:	f8c4 2104 	str.w	r2, [r4, #260]	; 0x104
    47c4:	f8d4 3104 	ldr.w	r3, [r4, #260]	; 0x104
                transmission_finished = true;
    47c8:	2301      	movs	r3, #1
    47ca:	e774      	b.n	46b6 <nrfx_twim_xfer+0x166>
        } while (!transmission_finished);
    47cc:	2b00      	cmp	r3, #0
    47ce:	f43f af68 	beq.w	46a2 <nrfx_twim_xfer+0x152>
        p_cb->busy = false;
    47d2:	2134      	movs	r1, #52	; 0x34
    uint32_t error_source = p_reg->ERRORSRC;
    47d4:	f8d4 34c4 	ldr.w	r3, [r4, #1220]	; 0x4c4
    p_reg->ERRORSRC = error_source;
    47d8:	f8c4 34c4 	str.w	r3, [r4, #1220]	; 0x4c4
    47dc:	fb01 c20e 	mla	r2, r1, lr, ip
    47e0:	2000      	movs	r0, #0
    47e2:	f882 002f 	strb.w	r0, [r2, #47]	; 0x2f
        if (errorsrc)
    47e6:	b18b      	cbz	r3, 480c <nrfx_twim_xfer+0x2bc>
        ret = NRFX_ERROR_DRV_TWI_ERR_OVERRUN;
    47e8:	4a15      	ldr	r2, [pc, #84]	; (4840 <nrfx_twim_xfer+0x2f0>)
    47ea:	4e16      	ldr	r6, [pc, #88]	; (4844 <nrfx_twim_xfer+0x2f4>)
    47ec:	f013 0f01 	tst.w	r3, #1
    47f0:	bf18      	it	ne
    47f2:	4616      	movne	r6, r2
        ret = NRFX_ERROR_DRV_TWI_ERR_ANACK;
    47f4:	f013 0f02 	tst.w	r3, #2
    47f8:	f102 0201 	add.w	r2, r2, #1
    47fc:	bf18      	it	ne
    47fe:	4616      	movne	r6, r2
        ret = NRFX_ERROR_DRV_TWI_ERR_DNACK;
    4800:	f013 0f04 	tst.w	r3, #4
    4804:	4b10      	ldr	r3, [pc, #64]	; (4848 <nrfx_twim_xfer+0x2f8>)
    4806:	bf18      	it	ne
    4808:	461e      	movne	r6, r3
    480a:	e6b9      	b.n	4580 <nrfx_twim_xfer+0x30>
            if (!(flags & NRFX_TWIM_FLAG_NO_SPURIOUS_STOP_CHECK) &&
    480c:	067b      	lsls	r3, r7, #25
    480e:	f53f aeb7 	bmi.w	4580 <nrfx_twim_xfer+0x30>
                !xfer_completeness_check(p_twim, p_cb))
    4812:	fb0e c101 	mla	r1, lr, r1, ip
    4816:	4620      	mov	r0, r4
    4818:	f002 f833 	bl	6882 <xfer_completeness_check>
                err_code = NRFX_ERROR_INTERNAL;
    481c:	4b09      	ldr	r3, [pc, #36]	; (4844 <nrfx_twim_xfer+0x2f4>)
    481e:	2800      	cmp	r0, #0
    4820:	bf08      	it	eq
    4822:	461e      	moveq	r6, r3
    4824:	e6ac      	b.n	4580 <nrfx_twim_xfer+0x30>
    4826:	bf00      	nop
    4828:	200004ec 	.word	0x200004ec
    482c:	0bad000a 	.word	0x0bad000a
    4830:	019c0202 	.word	0x019c0202
    4834:	0bad000b 	.word	0x0bad000b
    4838:	0bad0000 	.word	0x0bad0000
    483c:	0bad0004 	.word	0x0bad0004
    4840:	0bae0000 	.word	0x0bae0000
    4844:	0bad0001 	.word	0x0bad0001
    4848:	0bae0002 	.word	0x0bae0002

0000484c <nrfx_twim_0_irq_handler>:

#if NRFX_CHECK(NRFX_TWIM0_ENABLED)
void nrfx_twim_0_irq_handler(void)
{
    twim_irq_handler(NRF_TWIM0, &m_cb[NRFX_TWIM0_INST_IDX]);
    484c:	4901      	ldr	r1, [pc, #4]	; (4854 <nrfx_twim_0_irq_handler+0x8>)
    484e:	4802      	ldr	r0, [pc, #8]	; (4858 <nrfx_twim_0_irq_handler+0xc>)
    4850:	f7ff bd42 	b.w	42d8 <twim_irq_handler>
    4854:	200004ec 	.word	0x200004ec
    4858:	40003000 	.word	0x40003000

0000485c <nrfx_twim_1_irq_handler>:
#endif

#if NRFX_CHECK(NRFX_TWIM1_ENABLED)
void nrfx_twim_1_irq_handler(void)
{
    twim_irq_handler(NRF_TWIM1, &m_cb[NRFX_TWIM1_INST_IDX]);
    485c:	4902      	ldr	r1, [pc, #8]	; (4868 <nrfx_twim_1_irq_handler+0xc>)
    485e:	f04f 2040 	mov.w	r0, #1073758208	; 0x40004000
    4862:	f7ff bd39 	b.w	42d8 <twim_irq_handler>
    4866:	bf00      	nop
    4868:	20000520 	.word	0x20000520

0000486c <nrfx_twi_twim_bus_recover>:
                                                  NRF_GPIO_PIN_PULLUP,        \
                                                  NRF_GPIO_PIN_S0D1,          \
                                                  NRF_GPIO_PIN_NOSENSE)

nrfx_err_t nrfx_twi_twim_bus_recover(uint32_t scl_pin, uint32_t sda_pin)
{
    486c:	e92d 41f0 	stmdb	sp!, {r4, r5, r6, r7, r8, lr}
    *p_pin = pin_number & 0x1F;
    4870:	f000 001f 	and.w	r0, r0, #31
    4874:	f001 061f 	and.w	r6, r1, #31
    nrf_gpio_port_out_set(reg, 1UL << pin_number);
    4878:	2401      	movs	r4, #1
    p_reg->OUTSET = set_mask;
    487a:	f04f 45a0 	mov.w	r5, #1342177280	; 0x50000000
    nrf_gpio_port_out_set(reg, 1UL << pin_number);
    487e:	fa04 f800 	lsl.w	r8, r4, r0
    reg->PIN_CNF[pin_number] = cnf;
    4882:	f506 72e0 	add.w	r2, r6, #448	; 0x1c0
    4886:	f500 70e0 	add.w	r0, r0, #448	; 0x1c0
    488a:	f240 630d 	movw	r3, #1549	; 0x60d
    nrf_gpio_port_out_set(reg, 1UL << pin_number);
    488e:	40b4      	lsls	r4, r6
    p_reg->OUTSET = set_mask;
    4890:	f8c5 8508 	str.w	r8, [r5, #1288]	; 0x508
    4894:	f8c5 4508 	str.w	r4, [r5, #1288]	; 0x508
    reg->PIN_CNF[pin_number] = cnf;
    4898:	f845 3020 	str.w	r3, [r5, r0, lsl #2]
    489c:	f845 3022 	str.w	r3, [r5, r2, lsl #2]
    nrf_gpio_pin_set(scl_pin);
    nrf_gpio_pin_set(sda_pin);

    TWI_TWIM_PIN_CONFIGURE(scl_pin);
    TWI_TWIM_PIN_CONFIGURE(sda_pin);
    NRFX_DELAY_US(4);
    48a0:	2004      	movs	r0, #4
    48a2:	f001 ffd4 	bl	684e <nrfx_busy_wait>
    48a6:	2709      	movs	r7, #9
    return p_reg->IN;
    48a8:	f8d5 3510 	ldr.w	r3, [r5, #1296]	; 0x510

    for (uint8_t i = 0; i < 9; i++)
    {
        if (nrf_gpio_pin_read(sda_pin))
    48ac:	421c      	tst	r4, r3
    48ae:	d10d      	bne.n	48cc <nrfx_twi_twim_bus_recover+0x60>
        }
        else
        {
            // Pulse CLOCK signal
            nrf_gpio_pin_clear(scl_pin);
            NRFX_DELAY_US(4);
    48b0:	2004      	movs	r0, #4
    p_reg->OUTCLR = clr_mask;
    48b2:	f8c5 850c 	str.w	r8, [r5, #1292]	; 0x50c
    48b6:	f001 ffca 	bl	684e <nrfx_busy_wait>
    for (uint8_t i = 0; i < 9; i++)
    48ba:	3f01      	subs	r7, #1
    p_reg->OUTSET = set_mask;
    48bc:	f8c5 8508 	str.w	r8, [r5, #1288]	; 0x508
            nrf_gpio_pin_set(scl_pin);
            NRFX_DELAY_US(4);
    48c0:	2004      	movs	r0, #4
    48c2:	f001 ffc4 	bl	684e <nrfx_busy_wait>
    for (uint8_t i = 0; i < 9; i++)
    48c6:	f017 07ff 	ands.w	r7, r7, #255	; 0xff
    48ca:	d1ed      	bne.n	48a8 <nrfx_twi_twim_bus_recover+0x3c>
    p_reg->OUTCLR = clr_mask;
    48cc:	f04f 45a0 	mov.w	r5, #1342177280	; 0x50000000
        }
    }

    // Generate a STOP condition on the bus
    nrf_gpio_pin_clear(sda_pin);
    NRFX_DELAY_US(4);
    48d0:	2004      	movs	r0, #4
    48d2:	f8c5 450c 	str.w	r4, [r5, #1292]	; 0x50c
    48d6:	f001 ffba 	bl	684e <nrfx_busy_wait>
    p_reg->OUTSET = set_mask;
    48da:	f8c5 4508 	str.w	r4, [r5, #1288]	; 0x508
    nrf_gpio_pin_set(sda_pin);
    NRFX_DELAY_US(4);
    48de:	2004      	movs	r0, #4
    48e0:	f001 ffb5 	bl	684e <nrfx_busy_wait>
    return p_reg->IN;
    48e4:	f8d5 1510 	ldr.w	r1, [r5, #1296]	; 0x510

    if (nrf_gpio_pin_read(sda_pin))
    48e8:	4803      	ldr	r0, [pc, #12]	; (48f8 <nrfx_twi_twim_bus_recover+0x8c>)
    return ((nrf_gpio_port_in_read(reg) >> pin_number) & 1UL);
    48ea:	fa21 f606 	lsr.w	r6, r1, r6
    48ee:	f006 0601 	and.w	r6, r6, #1
    48f2:	1b80      	subs	r0, r0, r6
    }
    else
    {
        return NRFX_ERROR_INTERNAL;
    }
}
    48f4:	e8bd 81f0 	ldmia.w	sp!, {r4, r5, r6, r7, r8, pc}
    48f8:	0bad0001 	.word	0x0bad0001

000048fc <_DoInit>:
                      _DoInit();                                                                     \
                    }                                                                                \
                  } while (0);                                                                       \
                }

static void _DoInit(void) {
    48fc:	b510      	push	{r4, lr}
  volatile SEGGER_RTT_CB* p;   // Volatile to make sure that compiler cannot change the order of accesses to the control block
  //
  // Initialize control block
  //
  p                     = (volatile SEGGER_RTT_CB*)((char*)&_SEGGER_RTT + SEGGER_RTT_UNCACHED_OFF);  // Access control block uncached so that nothing in the cache ever becomes dirty and all changes are visible in HW directly
  p->MaxNumUpBuffers    = SEGGER_RTT_MAX_NUM_UP_BUFFERS;
    48fe:	4c14      	ldr	r4, [pc, #80]	; (4950 <_DoInit+0x54>)
  p->MaxNumDownBuffers  = SEGGER_RTT_MAX_NUM_DOWN_BUFFERS;
  //
  // Initialize up buffer 0
  //
  p->aUp[0].sName         = "Terminal";
    4900:	4a14      	ldr	r2, [pc, #80]	; (4954 <_DoInit+0x58>)
  //
  // Finish initialization of the control block.
  // Copy Id string in three steps to make sure "SEGGER RTT" is not found
  // in initializer memory (usually flash) by J-Link
  //
  STRCPY((char*)&p->acID[7], "RTT");
    4902:	4915      	ldr	r1, [pc, #84]	; (4958 <_DoInit+0x5c>)
  p->MaxNumUpBuffers    = SEGGER_RTT_MAX_NUM_UP_BUFFERS;
    4904:	2303      	movs	r3, #3
    4906:	6123      	str	r3, [r4, #16]
  p->MaxNumDownBuffers  = SEGGER_RTT_MAX_NUM_DOWN_BUFFERS;
    4908:	6163      	str	r3, [r4, #20]
  p->aUp[0].pBuffer       = _acUpBuffer;
    490a:	4b14      	ldr	r3, [pc, #80]	; (495c <_DoInit+0x60>)
  p->aUp[0].sName         = "Terminal";
    490c:	61a2      	str	r2, [r4, #24]
  p->aUp[0].pBuffer       = _acUpBuffer;
    490e:	61e3      	str	r3, [r4, #28]
  p->aUp[0].SizeOfBuffer  = BUFFER_SIZE_UP;
    4910:	f44f 6380 	mov.w	r3, #1024	; 0x400
    4914:	6223      	str	r3, [r4, #32]
  p->aUp[0].RdOff         = 0u;
    4916:	2300      	movs	r3, #0
    4918:	62a3      	str	r3, [r4, #40]	; 0x28
  p->aUp[0].WrOff         = 0u;
    491a:	6263      	str	r3, [r4, #36]	; 0x24
  p->aUp[0].Flags         = SEGGER_RTT_MODE_DEFAULT;
    491c:	62e3      	str	r3, [r4, #44]	; 0x2c
  p->aDown[0].sName         = "Terminal";
    491e:	6622      	str	r2, [r4, #96]	; 0x60
  p->aDown[0].pBuffer       = _acDownBuffer;
    4920:	4a0f      	ldr	r2, [pc, #60]	; (4960 <_DoInit+0x64>)
    4922:	6662      	str	r2, [r4, #100]	; 0x64
  STRCPY((char*)&p->acID[7], "RTT");
    4924:	1de0      	adds	r0, r4, #7
  p->aDown[0].SizeOfBuffer  = BUFFER_SIZE_DOWN;
    4926:	2210      	movs	r2, #16
    4928:	66a2      	str	r2, [r4, #104]	; 0x68
  p->aDown[0].RdOff         = 0u;
    492a:	6723      	str	r3, [r4, #112]	; 0x70
  p->aDown[0].WrOff         = 0u;
    492c:	66e3      	str	r3, [r4, #108]	; 0x6c
  p->aDown[0].Flags         = SEGGER_RTT_MODE_DEFAULT;
    492e:	6763      	str	r3, [r4, #116]	; 0x74
  STRCPY((char*)&p->acID[7], "RTT");
    4930:	f001 fa77 	bl	5e22 <strcpy>
  RTT__DMB();                       // Force order of memory accessed inside core for cores that allow to change the order
    4934:	f3bf 8f5f 	dmb	sy
  STRCPY((char*)&p->acID[0], "SEGGER");
    4938:	490a      	ldr	r1, [pc, #40]	; (4964 <_DoInit+0x68>)
    493a:	4620      	mov	r0, r4
    493c:	f001 fa71 	bl	5e22 <strcpy>
  RTT__DMB();                       // Force order of memory accessed inside core for cores that allow to change the order
    4940:	f3bf 8f5f 	dmb	sy
  p->acID[6] = ' ';
    4944:	2320      	movs	r3, #32
    4946:	71a3      	strb	r3, [r4, #6]
  RTT__DMB();                       // Force order of memory accessed inside core for cores that allow to change the order
    4948:	f3bf 8f5f 	dmb	sy
}
    494c:	bd10      	pop	{r4, pc}
    494e:	bf00      	nop
    4950:	20000554 	.word	0x20000554
    4954:	0000745c 	.word	0x0000745c
    4958:	00007465 	.word	0x00007465
    495c:	20000681 	.word	0x20000681
    4960:	20000671 	.word	0x20000671
    4964:	00007469 	.word	0x00007469

00004968 <SEGGER_RTT_WriteNoLock>:
*    (1) Data is stored according to buffer flags.
*    (2) For performance reasons this function does not call Init()
*        and may only be called after RTT has been initialized.
*        Either by calling SEGGER_RTT_Init() or calling another RTT API function first.
*/
unsigned SEGGER_RTT_WriteNoLock(unsigned BufferIndex, const void* pBuffer, unsigned NumBytes) {
    4968:	b570      	push	{r4, r5, r6, lr}
  SEGGER_RTT_BUFFER_UP* pRing;
  //
  // Get "to-host" ring buffer.
  //
  pData = (const char *)pBuffer;
  pRing = (SEGGER_RTT_BUFFER_UP*)((char*)&_SEGGER_RTT.aUp[BufferIndex] + SEGGER_RTT_UNCACHED_OFF);  // Access uncached to make sure we see changes made by the J-Link side and all of our changes go into HW directly
    496a:	4b16      	ldr	r3, [pc, #88]	; (49c4 <SEGGER_RTT_WriteNoLock+0x5c>)
    496c:	2418      	movs	r4, #24
    496e:	fb00 4504 	mla	r5, r0, r4, r4
    4972:	441d      	add	r5, r3
  //
  // How we output depends upon the mode...
  //
  switch (pRing->Flags) {
    4974:	fb04 3300 	mla	r3, r4, r0, r3
unsigned SEGGER_RTT_WriteNoLock(unsigned BufferIndex, const void* pBuffer, unsigned NumBytes) {
    4978:	4616      	mov	r6, r2
  switch (pRing->Flags) {
    497a:	6adc      	ldr	r4, [r3, #44]	; 0x2c
    497c:	2c01      	cmp	r4, #1
    497e:	d00e      	beq.n	499e <SEGGER_RTT_WriteNoLock+0x36>
    4980:	2c02      	cmp	r4, #2
    4982:	d018      	beq.n	49b6 <SEGGER_RTT_WriteNoLock+0x4e>
    4984:	b9e4      	cbnz	r4, 49c0 <SEGGER_RTT_WriteNoLock+0x58>
  case SEGGER_RTT_MODE_NO_BLOCK_SKIP:
    //
    // If we are in skip mode and there is no space for the whole
    // of this output, don't bother.
    //
    Avail = _GetAvailWriteSpace(pRing);
    4986:	4628      	mov	r0, r5
    4988:	f001 ffab 	bl	68e2 <_GetAvailWriteSpace>
    if (Avail < NumBytes) {
    498c:	4286      	cmp	r6, r0
    498e:	d804      	bhi.n	499a <SEGGER_RTT_WriteNoLock+0x32>
      Status = 0u;
    } else {
      Status = NumBytes;
      _WriteNoCheck(pRing, pData, NumBytes);
    4990:	4632      	mov	r2, r6
    4992:	4628      	mov	r0, r5
    4994:	f001 ffae 	bl	68f4 <_WriteNoCheck>
    4998:	4634      	mov	r4, r6
  }
  //
  // Finish up.
  //
  return Status;
}
    499a:	4620      	mov	r0, r4
    499c:	bd70      	pop	{r4, r5, r6, pc}
    Avail = _GetAvailWriteSpace(pRing);
    499e:	4628      	mov	r0, r5
    49a0:	f001 ff9f 	bl	68e2 <_GetAvailWriteSpace>
    Status = Avail < NumBytes ? Avail : NumBytes;
    49a4:	4286      	cmp	r6, r0
    49a6:	4634      	mov	r4, r6
    49a8:	bf28      	it	cs
    49aa:	4604      	movcs	r4, r0
    _WriteNoCheck(pRing, pData, Status);
    49ac:	4622      	mov	r2, r4
    49ae:	4628      	mov	r0, r5
    49b0:	f001 ffa0 	bl	68f4 <_WriteNoCheck>
    break;
    49b4:	e7f1      	b.n	499a <SEGGER_RTT_WriteNoLock+0x32>
    Status = _WriteBlocking(pRing, pData, NumBytes);
    49b6:	4628      	mov	r0, r5
}
    49b8:	e8bd 4070 	ldmia.w	sp!, {r4, r5, r6, lr}
    Status = _WriteBlocking(pRing, pData, NumBytes);
    49bc:	f001 bfb8 	b.w	6930 <_WriteBlocking>
  switch (pRing->Flags) {
    49c0:	2400      	movs	r4, #0
  return Status;
    49c2:	e7ea      	b.n	499a <SEGGER_RTT_WriteNoLock+0x32>
    49c4:	20000554 	.word	0x20000554

000049c8 <z_sys_init_run_level>:
		/* End marker */
		__init_end,
	};
	const struct init_entry *entry;

	for (entry = levels[level]; entry < levels[level+1]; entry++) {
    49c8:	4b0e      	ldr	r3, [pc, #56]	; (4a04 <z_sys_init_run_level+0x3c>)
{
    49ca:	b570      	push	{r4, r5, r6, lr}
	for (entry = levels[level]; entry < levels[level+1]; entry++) {
    49cc:	f853 4020 	ldr.w	r4, [r3, r0, lsl #2]
    49d0:	3001      	adds	r0, #1
    49d2:	f853 6020 	ldr.w	r6, [r3, r0, lsl #2]
    49d6:	42a6      	cmp	r6, r4
    49d8:	d800      	bhi.n	49dc <z_sys_init_run_level+0x14>
				dev->state->init_res = rc;
			}
			dev->state->initialized = true;
		}
	}
}
    49da:	bd70      	pop	{r4, r5, r6, pc}
		int rc = entry->init(dev);
    49dc:	e9d4 3500 	ldrd	r3, r5, [r4]
    49e0:	4628      	mov	r0, r5
    49e2:	4798      	blx	r3
		if (dev != NULL) {
    49e4:	b165      	cbz	r5, 4a00 <z_sys_init_run_level+0x38>
				dev->state->init_res = rc;
    49e6:	68eb      	ldr	r3, [r5, #12]
			if (rc != 0) {
    49e8:	b130      	cbz	r0, 49f8 <z_sys_init_run_level+0x30>
				if (rc < 0) {
    49ea:	2800      	cmp	r0, #0
    49ec:	bfb8      	it	lt
    49ee:	4240      	neglt	r0, r0
				dev->state->init_res = rc;
    49f0:	28ff      	cmp	r0, #255	; 0xff
    49f2:	bfa8      	it	ge
    49f4:	20ff      	movge	r0, #255	; 0xff
    49f6:	7018      	strb	r0, [r3, #0]
			dev->state->initialized = true;
    49f8:	785a      	ldrb	r2, [r3, #1]
    49fa:	f042 0201 	orr.w	r2, r2, #1
    49fe:	705a      	strb	r2, [r3, #1]
	for (entry = levels[level]; entry < levels[level+1]; entry++) {
    4a00:	3408      	adds	r4, #8
    4a02:	e7e8      	b.n	49d6 <z_sys_init_run_level+0xe>
    4a04:	00007284 	.word	0x00007284

00004a08 <z_impl_device_get_binding>:

const struct device *z_impl_device_get_binding(const char *name)
{
    4a08:	b570      	push	{r4, r5, r6, lr}
	const struct device *dev;

	/* A null string identifies no device.  So does an empty
	 * string.
	 */
	if ((name == NULL) || (name[0] == '\0')) {
    4a0a:	4605      	mov	r5, r0
    4a0c:	b910      	cbnz	r0, 4a14 <z_impl_device_get_binding+0xc>
		return NULL;
    4a0e:	2400      	movs	r4, #0
			return dev;
		}
	}

	return NULL;
}
    4a10:	4620      	mov	r0, r4
    4a12:	bd70      	pop	{r4, r5, r6, pc}
	if ((name == NULL) || (name[0] == '\0')) {
    4a14:	7803      	ldrb	r3, [r0, #0]
    4a16:	2b00      	cmp	r3, #0
    4a18:	d0f9      	beq.n	4a0e <z_impl_device_get_binding+0x6>
	for (dev = __device_start; dev != __device_end; dev++) {
    4a1a:	4c0e      	ldr	r4, [pc, #56]	; (4a54 <z_impl_device_get_binding+0x4c>)
    4a1c:	4e0e      	ldr	r6, [pc, #56]	; (4a58 <z_impl_device_get_binding+0x50>)
    4a1e:	42b4      	cmp	r4, r6
    4a20:	d108      	bne.n	4a34 <z_impl_device_get_binding+0x2c>
	for (dev = __device_start; dev != __device_end; dev++) {
    4a22:	4c0c      	ldr	r4, [pc, #48]	; (4a54 <z_impl_device_get_binding+0x4c>)
    4a24:	42b4      	cmp	r4, r6
    4a26:	d0f2      	beq.n	4a0e <z_impl_device_get_binding+0x6>
		if (z_device_is_ready(dev) && (strcmp(name, dev->name) == 0)) {
    4a28:	4620      	mov	r0, r4
    4a2a:	f001 ffb5 	bl	6998 <z_device_is_ready>
    4a2e:	b950      	cbnz	r0, 4a46 <z_impl_device_get_binding+0x3e>
	for (dev = __device_start; dev != __device_end; dev++) {
    4a30:	3418      	adds	r4, #24
    4a32:	e7f7      	b.n	4a24 <z_impl_device_get_binding+0x1c>
		if (z_device_is_ready(dev) && (dev->name == name)) {
    4a34:	4620      	mov	r0, r4
    4a36:	f001 ffaf 	bl	6998 <z_device_is_ready>
    4a3a:	b110      	cbz	r0, 4a42 <z_impl_device_get_binding+0x3a>
    4a3c:	6823      	ldr	r3, [r4, #0]
    4a3e:	42ab      	cmp	r3, r5
    4a40:	d0e6      	beq.n	4a10 <z_impl_device_get_binding+0x8>
	for (dev = __device_start; dev != __device_end; dev++) {
    4a42:	3418      	adds	r4, #24
    4a44:	e7eb      	b.n	4a1e <z_impl_device_get_binding+0x16>
		if (z_device_is_ready(dev) && (strcmp(name, dev->name) == 0)) {
    4a46:	6821      	ldr	r1, [r4, #0]
    4a48:	4628      	mov	r0, r5
    4a4a:	f001 fa04 	bl	5e56 <strcmp>
    4a4e:	2800      	cmp	r0, #0
    4a50:	d1ee      	bne.n	4a30 <z_impl_device_get_binding+0x28>
    4a52:	e7dd      	b.n	4a10 <z_impl_device_get_binding+0x8>
    4a54:	00006d4c 	.word	0x00006d4c
    4a58:	00006e9c 	.word	0x00006e9c

00004a5c <init_idle_thread>:
} /* LCOV_EXCL_LINE ... because we just dumped final coverage data */

#if defined(CONFIG_MULTITHREADING)
__boot_func
static void init_idle_thread(int i)
{
    4a5c:	b530      	push	{r4, r5, lr}
	snprintk(tname, 8, "idle %02d", i);
#else
	char *tname = NULL;
#endif /* CONFIG_THREAD_NAME */

	z_setup_new_thread(thread, stack,
    4a5e:	2300      	movs	r3, #0
{
    4a60:	b087      	sub	sp, #28
	z_setup_new_thread(thread, stack,
    4a62:	2201      	movs	r2, #1
    4a64:	e9cd 2304 	strd	r2, r3, [sp, #16]
    4a68:	220f      	movs	r2, #15
    4a6a:	e9cd 3202 	strd	r3, r2, [sp, #8]
    4a6e:	9301      	str	r3, [sp, #4]
	struct k_thread *thread = &z_idle_threads[i];
    4a70:	4c0c      	ldr	r4, [pc, #48]	; (4aa4 <init_idle_thread+0x48>)
			  CONFIG_IDLE_STACK_SIZE, idle, &_kernel.cpus[i],
    4a72:	4b0d      	ldr	r3, [pc, #52]	; (4aa8 <init_idle_thread+0x4c>)
	z_setup_new_thread(thread, stack,
    4a74:	490d      	ldr	r1, [pc, #52]	; (4aac <init_idle_thread+0x50>)
			  CONFIG_IDLE_STACK_SIZE, idle, &_kernel.cpus[i],
    4a76:	2218      	movs	r2, #24
	struct k_thread *thread = &z_idle_threads[i];
    4a78:	eb04 14c0 	add.w	r4, r4, r0, lsl #7
			  CONFIG_IDLE_STACK_SIZE, idle, &_kernel.cpus[i],
    4a7c:	fb02 3300 	mla	r3, r2, r0, r3
	z_setup_new_thread(thread, stack,
    4a80:	f44f 75b0 	mov.w	r5, #352	; 0x160
    4a84:	9300      	str	r3, [sp, #0]
    4a86:	fb05 1100 	mla	r1, r5, r0, r1
    4a8a:	4b09      	ldr	r3, [pc, #36]	; (4ab0 <init_idle_thread+0x54>)
    4a8c:	f44f 72a0 	mov.w	r2, #320	; 0x140
    4a90:	4620      	mov	r0, r4
    4a92:	f000 f8a7 	bl	4be4 <z_setup_new_thread>
	SYS_PORT_TRACING_FUNC(k_thread, sched_resume, thread);
}

static inline void z_mark_thread_as_started(struct k_thread *thread)
{
	thread->base.thread_state &= ~_THREAD_PRESTART;
    4a96:	7b63      	ldrb	r3, [r4, #13]
    4a98:	f023 0304 	bic.w	r3, r3, #4
    4a9c:	7363      	strb	r3, [r4, #13]
	z_mark_thread_as_started(thread);

#ifdef CONFIG_SMP
	thread->base.is_idle = 1U;
#endif
}
    4a9e:	b007      	add	sp, #28
    4aa0:	bd30      	pop	{r4, r5, pc}
    4aa2:	bf00      	nop
    4aa4:	20000270 	.word	0x20000270
    4aa8:	200005fc 	.word	0x200005fc
    4aac:	20000ec0 	.word	0x20000ec0
    4ab0:	00004d59 	.word	0x00004d59

00004ab4 <bg_thread_main>:
{
    4ab4:	b508      	push	{r3, lr}
	z_sys_post_kernel = true;
    4ab6:	4b0a      	ldr	r3, [pc, #40]	; (4ae0 <bg_thread_main+0x2c>)
    4ab8:	2201      	movs	r2, #1
	z_sys_init_run_level(_SYS_INIT_LEVEL_POST_KERNEL);
    4aba:	2002      	movs	r0, #2
	z_sys_post_kernel = true;
    4abc:	701a      	strb	r2, [r3, #0]
	z_sys_init_run_level(_SYS_INIT_LEVEL_POST_KERNEL);
    4abe:	f7ff ff83 	bl	49c8 <z_sys_init_run_level>
	boot_banner();
    4ac2:	f000 ff61 	bl	5988 <boot_banner>
	z_sys_init_run_level(_SYS_INIT_LEVEL_APPLICATION);
    4ac6:	2003      	movs	r0, #3
    4ac8:	f7ff ff7e 	bl	49c8 <z_sys_init_run_level>
	z_init_static_threads();
    4acc:	f000 f8e8 	bl	4ca0 <z_init_static_threads>
	main();
    4ad0:	f7fc f842 	bl	b58 <main>
	z_main_thread.base.user_options &= ~K_ESSENTIAL;
    4ad4:	4a03      	ldr	r2, [pc, #12]	; (4ae4 <bg_thread_main+0x30>)
    4ad6:	7b13      	ldrb	r3, [r2, #12]
    4ad8:	f023 0301 	bic.w	r3, r3, #1
    4adc:	7313      	strb	r3, [r2, #12]
} /* LCOV_EXCL_LINE ... because we just dumped final coverage data */
    4ade:	bd08      	pop	{r3, pc}
    4ae0:	20000a81 	.word	0x20000a81
    4ae4:	200002f0 	.word	0x200002f0

00004ae8 <z_bss_zero>:
	(void)memset(__bss_start, 0, __bss_end - __bss_start);
    4ae8:	4802      	ldr	r0, [pc, #8]	; (4af4 <z_bss_zero+0xc>)
    4aea:	4a03      	ldr	r2, [pc, #12]	; (4af8 <z_bss_zero+0x10>)
    4aec:	2100      	movs	r1, #0
    4aee:	1a12      	subs	r2, r2, r0
    4af0:	f001 b9c8 	b.w	5e84 <memset>
    4af4:	20000148 	.word	0x20000148
    4af8:	20000a84 	.word	0x20000a84

00004afc <z_cstart>:
 *
 * @return Does not return
 */
__boot_func
FUNC_NORETURN void z_cstart(void)
{
    4afc:	b580      	push	{r7, lr}
 * pointer) register, and switched to automatically when taking an exception.
 *
 */
static ALWAYS_INLINE void z_arm_interrupt_stack_setup(void)
{
	uint32_t msp =
    4afe:	f8df 80c4 	ldr.w	r8, [pc, #196]	; 4bc4 <z_cstart+0xc8>
    4b02:	b0a6      	sub	sp, #152	; 0x98
  \details Assigns the given value to the Main Stack Pointer (MSP).
  \param [in]    topOfMainStack  Main Stack Pointer value to set
 */
__STATIC_FORCEINLINE void __set_MSP(uint32_t topOfMainStack)
{
  __ASM volatile ("MSR msp, %0" : : "r" (topOfMainStack) : );
    4b04:	f388 8808 	msr	MSP, r8
	 * for Cortex-M3 and Cortex-M4 (ARMv7-M) MCUs. For the rest
	 * of ARM Cortex-M processors this setting is enforced by
	 * default and it is not configurable.
	 */
#if defined(CONFIG_CPU_CORTEX_M3) || defined(CONFIG_CPU_CORTEX_M4)
	SCB->CCR |= SCB_CCR_STKALIGN_Msk;
    4b08:	4d2f      	ldr	r5, [pc, #188]	; (4bc8 <z_cstart+0xcc>)
	k_thread_system_pool_assign(dummy_thread);
#else
	dummy_thread->resource_pool = NULL;
#endif

	_current_cpu->current = dummy_thread;
    4b0a:	4e30      	ldr	r6, [pc, #192]	; (4bcc <z_cstart+0xd0>)
    4b0c:	696b      	ldr	r3, [r5, #20]
	stack_ptr = z_setup_new_thread(&z_main_thread, z_main_stack,
    4b0e:	f8df 90c0 	ldr.w	r9, [pc, #192]	; 4bd0 <z_cstart+0xd4>
    4b12:	f443 7300 	orr.w	r3, r3, #512	; 0x200
    SCB->SHP[(((uint32_t)IRQn) & 0xFUL)-4UL] = (uint8_t)((priority << (8U - __NVIC_PRIO_BITS)) & (uint32_t)0xFFUL);
    4b16:	2400      	movs	r4, #0
    4b18:	616b      	str	r3, [r5, #20]
    4b1a:	23e0      	movs	r3, #224	; 0xe0
    4b1c:	f885 3022 	strb.w	r3, [r5, #34]	; 0x22
    4b20:	77ec      	strb	r4, [r5, #31]
    4b22:	762c      	strb	r4, [r5, #24]
    4b24:	766c      	strb	r4, [r5, #25]
    4b26:	76ac      	strb	r4, [r5, #26]
    4b28:	f885 4020 	strb.w	r4, [r5, #32]
#if defined(CONFIG_ARM_SECURE_FIRMWARE)
	NVIC_SetPriority(SecureFault_IRQn, _EXC_FAULT_PRIO);
#endif /* CONFIG_ARM_SECURE_FIRMWARE */

	/* Enable Usage, Mem, & Bus Faults */
	SCB->SHCSR |= SCB_SHCSR_USGFAULTENA_Msk | SCB_SHCSR_MEMFAULTENA_Msk |
    4b2c:	6a6b      	ldr	r3, [r5, #36]	; 0x24
    4b2e:	f443 23e0 	orr.w	r3, r3, #458752	; 0x70000
    4b32:	626b      	str	r3, [r5, #36]	; 0x24
    4b34:	f885 4023 	strb.w	r4, [r5, #35]	; 0x23

static ALWAYS_INLINE void arch_kernel_init(void)
{
	z_arm_interrupt_stack_setup();
	z_arm_exc_setup();
	z_arm_fault_init();
    4b38:	f7fd fb8a 	bl	2250 <z_arm_fault_init>
	z_arm_cpu_idle_init();
    4b3c:	f7fd f95a 	bl	1df4 <z_arm_cpu_idle_init>
static ALWAYS_INLINE void z_arm_clear_faults(void)
{
#if defined(CONFIG_ARMV6_M_ARMV8_M_BASELINE)
#elif defined(CONFIG_ARMV7_M_ARMV8_M_MAINLINE)
	/* Reset all faults */
	SCB->CFSR = SCB_CFSR_USGFAULTSR_Msk |
    4b40:	f04f 33ff 	mov.w	r3, #4294967295	; 0xffffffff
    4b44:	62ab      	str	r3, [r5, #40]	; 0x28
		    SCB_CFSR_MEMFAULTSR_Msk |
		    SCB_CFSR_BUSFAULTSR_Msk;

	/* Clear all Hard Faults - HFSR is write-one-to-clear */
	SCB->HFSR = 0xffffffff;
    4b46:	62eb      	str	r3, [r5, #44]	; 0x2c
	z_arm_clear_faults();
#if defined(CONFIG_ARM_MPU)
	z_arm_mpu_init();
    4b48:	f7fd fc60 	bl	240c <z_arm_mpu_init>
	 * to set up access permissions for fixed memory sections, such
	 * as Application Memory or No-Cacheable SRAM area.
	 *
	 * This function is invoked once, upon system initialization.
	 */
	z_arm_configure_static_mpu_regions();
    4b4c:	f7fd fbc8 	bl	22e0 <z_arm_configure_static_mpu_regions>
	dummy_thread->base.user_options = K_ESSENTIAL;
    4b50:	f240 1301 	movw	r3, #257	; 0x101
    4b54:	f8ad 3024 	strh.w	r3, [sp, #36]	; 0x24
	_current_cpu->current = dummy_thread;
    4b58:	ab06      	add	r3, sp, #24
    4b5a:	60b3      	str	r3, [r6, #8]
	dummy_thread->stack_info.size = 0U;
    4b5c:	e9cd 441f 	strd	r4, r4, [sp, #124]	; 0x7c
	dummy_thread->resource_pool = NULL;
    4b60:	9422      	str	r4, [sp, #136]	; 0x88
	struct k_thread dummy_thread;

	z_dummy_thread_init(&dummy_thread);
#endif
	/* do any necessary initialization of static devices */
	z_device_state_init();
    4b62:	f001 ff18 	bl	6996 <z_device_state_init>

	/* perform basic hardware initialization */
	z_sys_init_run_level(_SYS_INIT_LEVEL_PRE_KERNEL_1);
    4b66:	4620      	mov	r0, r4
    4b68:	f7ff ff2e 	bl	49c8 <z_sys_init_run_level>
	z_sys_init_run_level(_SYS_INIT_LEVEL_PRE_KERNEL_2);
    4b6c:	2001      	movs	r0, #1
	_kernel.ready_q.cache = &z_main_thread;
    4b6e:	4d19      	ldr	r5, [pc, #100]	; (4bd4 <z_cstart+0xd8>)
	z_sys_init_run_level(_SYS_INIT_LEVEL_PRE_KERNEL_2);
    4b70:	f7ff ff2a 	bl	49c8 <z_sys_init_run_level>
	z_sched_init();
    4b74:	f000 fc9c 	bl	54b0 <z_sched_init>
	stack_ptr = z_setup_new_thread(&z_main_thread, z_main_stack,
    4b78:	4b17      	ldr	r3, [pc, #92]	; (4bd8 <z_cstart+0xdc>)
    4b7a:	9305      	str	r3, [sp, #20]
    4b7c:	2301      	movs	r3, #1
    4b7e:	4917      	ldr	r1, [pc, #92]	; (4bdc <z_cstart+0xe0>)
    4b80:	9400      	str	r4, [sp, #0]
    4b82:	e9cd 4303 	strd	r4, r3, [sp, #12]
    4b86:	f44f 6280 	mov.w	r2, #1024	; 0x400
    4b8a:	464b      	mov	r3, r9
    4b8c:	e9cd 4401 	strd	r4, r4, [sp, #4]
    4b90:	4628      	mov	r0, r5
	_kernel.ready_q.cache = &z_main_thread;
    4b92:	61f5      	str	r5, [r6, #28]
	stack_ptr = z_setup_new_thread(&z_main_thread, z_main_stack,
    4b94:	f000 f826 	bl	4be4 <z_setup_new_thread>
    4b98:	7b6a      	ldrb	r2, [r5, #13]
    4b9a:	4607      	mov	r7, r0
    4b9c:	f022 0204 	bic.w	r2, r2, #4
	z_ready_thread(&z_main_thread);
    4ba0:	4628      	mov	r0, r5
    4ba2:	736a      	strb	r2, [r5, #13]
    4ba4:	f001 ffa6 	bl	6af4 <z_ready_thread>
		init_idle_thread(i);
    4ba8:	4620      	mov	r0, r4
    4baa:	f7ff ff57 	bl	4a5c <init_idle_thread>
		_kernel.cpus[i].idle_thread = &z_idle_threads[i];
    4bae:	4b0c      	ldr	r3, [pc, #48]	; (4be0 <z_cstart+0xe4>)
    4bb0:	60f3      	str	r3, [r6, #12]
	arch_switch_to_main_thread(&z_main_thread, stack_ptr, bg_thread_main);
    4bb2:	464a      	mov	r2, r9
    4bb4:	4639      	mov	r1, r7
    4bb6:	4628      	mov	r0, r5
		_kernel.cpus[i].id = i;
    4bb8:	7534      	strb	r4, [r6, #20]
		_kernel.cpus[i].irq_stack =
    4bba:	f8c6 8004 	str.w	r8, [r6, #4]
	arch_switch_to_main_thread(&z_main_thread, stack_ptr, bg_thread_main);
    4bbe:	f7fd fa1b 	bl	1ff8 <arch_switch_to_main_thread>
	CODE_UNREACHABLE; /* LCOV_EXCL_LINE */
    4bc2:	bf00      	nop
    4bc4:	20001840 	.word	0x20001840
    4bc8:	e000ed00 	.word	0xe000ed00
    4bcc:	200005fc 	.word	0x200005fc
    4bd0:	00004ab5 	.word	0x00004ab5
    4bd4:	200002f0 	.word	0x200002f0
    4bd8:	00007470 	.word	0x00007470
    4bdc:	20000aa0 	.word	0x20000aa0
    4be0:	20000270 	.word	0x20000270

00004be4 <z_setup_new_thread>:
char *z_setup_new_thread(struct k_thread *new_thread,
			 k_thread_stack_t *stack, size_t stack_size,
			 k_thread_entry_t entry,
			 void *p1, void *p2, void *p3,
			 int prio, uint32_t options, const char *name)
{
    4be4:	e92d 41ff 	stmdb	sp!, {r0, r1, r2, r3, r4, r5, r6, r7, r8, lr}
void z_init_thread_base(struct _thread_base *thread_base, int priority,
		       uint32_t initial_state, unsigned int options)
{
	/* k_q_node is initialized upon first insertion in a list */
	thread_base->pended_on = NULL;
	thread_base->user_options = (uint8_t)options;
    4be8:	9e0e      	ldr	r6, [sp, #56]	; 0x38
    4bea:	7306      	strb	r6, [r0, #12]
	thread_base->thread_state = (uint8_t)initial_state;
    4bec:	2604      	movs	r6, #4
    4bee:	7346      	strb	r6, [r0, #13]

	thread_base->prio = priority;
    4bf0:	9e0d      	ldr	r6, [sp, #52]	; 0x34
    4bf2:	7386      	strb	r6, [r0, #14]
	SYS_DLIST_FOR_EACH_CONTAINER(&((wq)->waitq), thread_ptr, \
				     base.qnode_dlist)

static inline void z_waitq_init(_wait_q_t *w)
{
	sys_dlist_init(&w->waitq);
    4bf4:	f100 0558 	add.w	r5, r0, #88	; 0x58
{
    4bf8:	460f      	mov	r7, r1
		stack_obj_size = Z_KERNEL_STACK_SIZE_ADJUST(stack_size);
    4bfa:	1dd6      	adds	r6, r2, #7
 */

static inline void sys_dlist_init(sys_dlist_t *list)
{
	list->head = (sys_dnode_t *)list;
	list->tail = (sys_dnode_t *)list;
    4bfc:	e9c0 5516 	strd	r5, r5, [r0, #88]	; 0x58
	arch_new_thread(new_thread, stack, stack_ptr, entry, p1, p2, p3);
    4c00:	9a0c      	ldr	r2, [sp, #48]	; 0x30
	thread_base->pended_on = NULL;
    4c02:	2500      	movs	r5, #0
		stack_obj_size = Z_KERNEL_STACK_SIZE_ADJUST(stack_size);
    4c04:	f026 0607 	bic.w	r6, r6, #7

/** @} */

static inline char *Z_KERNEL_STACK_BUFFER(k_thread_stack_t *sym)
{
	return (char *)sym + K_KERNEL_STACK_RESERVED;
    4c08:	3720      	adds	r7, #32
 */

static inline void sys_dnode_init(sys_dnode_t *node)
{
	node->next = NULL;
	node->prev = NULL;
    4c0a:	e9c0 5506 	strd	r5, r5, [r0, #24]
	new_thread->stack_info.size = stack_buf_size;
    4c0e:	e9c0 7619 	strd	r7, r6, [r0, #100]	; 0x64
	thread_base->pended_on = NULL;
    4c12:	6085      	str	r5, [r0, #8]

	thread_base->sched_locked = 0U;
    4c14:	73c5      	strb	r5, [r0, #15]
	new_thread->stack_info.delta = delta;
    4c16:	66c5      	str	r5, [r0, #108]	; 0x6c
		stack_obj_size = Z_KERNEL_STACK_SIZE_ADJUST(stack_size);
    4c18:	f106 0820 	add.w	r8, r6, #32
	arch_new_thread(new_thread, stack, stack_ptr, entry, p1, p2, p3);
    4c1c:	9202      	str	r2, [sp, #8]
    4c1e:	9a0b      	ldr	r2, [sp, #44]	; 0x2c
    4c20:	9201      	str	r2, [sp, #4]
	stack_ptr = (char *)stack + stack_obj_size;
    4c22:	4488      	add	r8, r1
	arch_new_thread(new_thread, stack, stack_ptr, entry, p1, p2, p3);
    4c24:	9a0a      	ldr	r2, [sp, #40]	; 0x28
    4c26:	9200      	str	r2, [sp, #0]
    4c28:	4642      	mov	r2, r8
{
    4c2a:	4604      	mov	r4, r0
	arch_new_thread(new_thread, stack, stack_ptr, entry, p1, p2, p3);
    4c2c:	f7fd f9b2 	bl	1f94 <arch_new_thread>
	if (!_current) {
    4c30:	4b04      	ldr	r3, [pc, #16]	; (4c44 <z_setup_new_thread+0x60>)
	new_thread->init_data = NULL;
    4c32:	6565      	str	r5, [r4, #84]	; 0x54
	if (!_current) {
    4c34:	689b      	ldr	r3, [r3, #8]
    4c36:	b103      	cbz	r3, 4c3a <z_setup_new_thread+0x56>
	new_thread->resource_pool = _current->resource_pool;
    4c38:	6f1b      	ldr	r3, [r3, #112]	; 0x70
	return stack_ptr;
    4c3a:	6723      	str	r3, [r4, #112]	; 0x70
}
    4c3c:	4640      	mov	r0, r8
    4c3e:	b004      	add	sp, #16
    4c40:	e8bd 81f0 	ldmia.w	sp!, {r4, r5, r6, r7, r8, pc}
    4c44:	200005fc 	.word	0x200005fc

00004c48 <z_impl_k_thread_create>:
{
    4c48:	b5f0      	push	{r4, r5, r6, r7, lr}
    4c4a:	b087      	sub	sp, #28
	z_setup_new_thread(new_thread, stack, stack_size, entry, p1, p2, p3,
    4c4c:	2700      	movs	r7, #0
    4c4e:	9705      	str	r7, [sp, #20]
    4c50:	9f10      	ldr	r7, [sp, #64]	; 0x40
    4c52:	9704      	str	r7, [sp, #16]
    4c54:	9f0f      	ldr	r7, [sp, #60]	; 0x3c
    4c56:	9703      	str	r7, [sp, #12]
    4c58:	9f0e      	ldr	r7, [sp, #56]	; 0x38
    4c5a:	9702      	str	r7, [sp, #8]
{
    4c5c:	e9dd 6512 	ldrd	r6, r5, [sp, #72]	; 0x48
	z_setup_new_thread(new_thread, stack, stack_size, entry, p1, p2, p3,
    4c60:	9f0d      	ldr	r7, [sp, #52]	; 0x34
    4c62:	9701      	str	r7, [sp, #4]
    4c64:	9f0c      	ldr	r7, [sp, #48]	; 0x30
    4c66:	9700      	str	r7, [sp, #0]
{
    4c68:	4604      	mov	r4, r0
	z_setup_new_thread(new_thread, stack, stack_size, entry, p1, p2, p3,
    4c6a:	f7ff ffbb 	bl	4be4 <z_setup_new_thread>
	if (!K_TIMEOUT_EQ(delay, K_FOREVER)) {
    4c6e:	f1b5 3fff 	cmp.w	r5, #4294967295	; 0xffffffff
    4c72:	bf08      	it	eq
    4c74:	f1b6 3fff 	cmpeq.w	r6, #4294967295	; 0xffffffff
    4c78:	d005      	beq.n	4c86 <z_impl_k_thread_create+0x3e>
	if (K_TIMEOUT_EQ(delay, K_NO_WAIT)) {
    4c7a:	ea55 0306 	orrs.w	r3, r5, r6
    4c7e:	d105      	bne.n	4c8c <z_impl_k_thread_create+0x44>
	z_sched_start(thread);
    4c80:	4620      	mov	r0, r4
    4c82:	f000 fb57 	bl	5334 <z_sched_start>
}
    4c86:	4620      	mov	r0, r4
    4c88:	b007      	add	sp, #28
    4c8a:	bdf0      	pop	{r4, r5, r6, r7, pc}

extern void z_thread_timeout(struct _timeout *timeout);

static inline void z_add_thread_timeout(struct k_thread *thread, k_timeout_t ticks)
{
	z_add_timeout(&thread->base.timeout, z_thread_timeout, ticks);
    4c8c:	4903      	ldr	r1, [pc, #12]	; (4c9c <z_impl_k_thread_create+0x54>)
    4c8e:	4632      	mov	r2, r6
    4c90:	462b      	mov	r3, r5
    4c92:	f104 0018 	add.w	r0, r4, #24
    4c96:	f000 fd89 	bl	57ac <z_add_timeout>
    4c9a:	e7f4      	b.n	4c86 <z_impl_k_thread_create+0x3e>
    4c9c:	00006b15 	.word	0x00006b15

00004ca0 <z_init_static_threads>:
{
    4ca0:	e92d 43f0 	stmdb	sp!, {r4, r5, r6, r7, r8, r9, lr}
    4ca4:	4c29      	ldr	r4, [pc, #164]	; (4d4c <z_init_static_threads+0xac>)
	_FOREACH_STATIC_THREAD(thread_data) {
    4ca6:	4d2a      	ldr	r5, [pc, #168]	; (4d50 <z_init_static_threads+0xb0>)
{
    4ca8:	b087      	sub	sp, #28
    4caa:	4626      	mov	r6, r4
	_FOREACH_STATIC_THREAD(thread_data) {
    4cac:	42ae      	cmp	r6, r5
    4cae:	f104 0430 	add.w	r4, r4, #48	; 0x30
    4cb2:	d30f      	bcc.n	4cd4 <z_init_static_threads+0x34>
	k_sched_lock();
    4cb4:	f000 fa5a 	bl	516c <k_sched_lock>
	_FOREACH_STATIC_THREAD(thread_data) {
    4cb8:	4c24      	ldr	r4, [pc, #144]	; (4d4c <z_init_static_threads+0xac>)
    4cba:	f8df 9098 	ldr.w	r9, [pc, #152]	; 4d54 <z_init_static_threads+0xb4>
    4cbe:	f44f 4600 	mov.w	r6, #32768	; 0x8000
    4cc2:	f240 37e7 	movw	r7, #999	; 0x3e7
    4cc6:	42ac      	cmp	r4, r5
    4cc8:	d320      	bcc.n	4d0c <z_init_static_threads+0x6c>
}
    4cca:	b007      	add	sp, #28
    4ccc:	e8bd 43f0 	ldmia.w	sp!, {r4, r5, r6, r7, r8, r9, lr}
	k_sched_unlock();
    4cd0:	f000 bbd2 	b.w	5478 <k_sched_unlock>
		z_setup_new_thread(
    4cd4:	f854 3c04 	ldr.w	r3, [r4, #-4]
    4cd8:	9305      	str	r3, [sp, #20]
    4cda:	f854 3c10 	ldr.w	r3, [r4, #-16]
    4cde:	9304      	str	r3, [sp, #16]
    4ce0:	f854 3c14 	ldr.w	r3, [r4, #-20]
    4ce4:	9303      	str	r3, [sp, #12]
    4ce6:	f854 3c18 	ldr.w	r3, [r4, #-24]
    4cea:	9302      	str	r3, [sp, #8]
    4cec:	f854 3c1c 	ldr.w	r3, [r4, #-28]
    4cf0:	9301      	str	r3, [sp, #4]
    4cf2:	f854 3c20 	ldr.w	r3, [r4, #-32]
    4cf6:	9300      	str	r3, [sp, #0]
    4cf8:	e954 010c 	ldrd	r0, r1, [r4, #-48]	; 0x30
    4cfc:	e954 230a 	ldrd	r2, r3, [r4, #-40]	; 0x28
    4d00:	f7ff ff70 	bl	4be4 <z_setup_new_thread>
		thread_data->init_thread->init_data = thread_data;
    4d04:	f854 3c30 	ldr.w	r3, [r4, #-48]
    4d08:	655e      	str	r6, [r3, #84]	; 0x54
	_FOREACH_STATIC_THREAD(thread_data) {
    4d0a:	e7ce      	b.n	4caa <z_init_static_threads+0xa>
		if (thread_data->init_delay != K_TICKS_FOREVER) {
    4d0c:	6a63      	ldr	r3, [r4, #36]	; 0x24
    4d0e:	1c5a      	adds	r2, r3, #1
    4d10:	d00d      	beq.n	4d2e <z_init_static_threads+0x8e>
					    K_MSEC(thread_data->init_delay));
    4d12:	ea23 73e3 	bic.w	r3, r3, r3, asr #31
    4d16:	2100      	movs	r1, #0
    4d18:	4638      	mov	r0, r7
    4d1a:	fbc3 0106 	smlal	r0, r1, r3, r6
	if (K_TIMEOUT_EQ(delay, K_NO_WAIT)) {
    4d1e:	ea51 33c3 	orrs.w	r3, r1, r3, lsl #15
			schedule_new_thread(thread_data->init_thread,
    4d22:	f8d4 8000 	ldr.w	r8, [r4]
	if (K_TIMEOUT_EQ(delay, K_NO_WAIT)) {
    4d26:	d104      	bne.n	4d32 <z_init_static_threads+0x92>
	z_sched_start(thread);
    4d28:	4640      	mov	r0, r8
    4d2a:	f000 fb03 	bl	5334 <z_sched_start>
	_FOREACH_STATIC_THREAD(thread_data) {
    4d2e:	3430      	adds	r4, #48	; 0x30
    4d30:	e7c9      	b.n	4cc6 <z_init_static_threads+0x26>
    4d32:	f44f 727a 	mov.w	r2, #1000	; 0x3e8
    4d36:	2300      	movs	r3, #0
    4d38:	f7fb fda0 	bl	87c <__aeabi_uldivmod>
    4d3c:	4602      	mov	r2, r0
    4d3e:	460b      	mov	r3, r1
    4d40:	f108 0018 	add.w	r0, r8, #24
    4d44:	4649      	mov	r1, r9
    4d46:	f000 fd31 	bl	57ac <z_add_timeout>
    4d4a:	e7f0      	b.n	4d2e <z_init_static_threads+0x8e>
    4d4c:	20000148 	.word	0x20000148
    4d50:	20000148 	.word	0x20000148
    4d54:	00006b15 	.word	0x00006b15

00004d58 <idle>:
#endif	/* CONFIG_PM */
	sys_clock_idle_exit();
}

void idle(void *unused1, void *unused2, void *unused3)
{
    4d58:	b508      	push	{r3, lr}
		 * higher level construct.
		 */
		(void) arch_irq_lock();

#ifdef CONFIG_PM
		_kernel.idle = z_get_next_timeout_expiry();
    4d5a:	4c0b      	ldr	r4, [pc, #44]	; (4d88 <idle+0x30>)
	return !z_sys_post_kernel;
    4d5c:	4d0b      	ldr	r5, [pc, #44]	; (4d8c <idle+0x34>)
	__asm__ volatile(
    4d5e:	f04f 0220 	mov.w	r2, #32
    4d62:	f3ef 8311 	mrs	r3, BASEPRI
    4d66:	f382 8812 	msr	BASEPRI_MAX, r2
    4d6a:	f3bf 8f6f 	isb	sy
    4d6e:	f001 ff68 	bl	6c42 <z_get_next_timeout_expiry>
		 * processing in those cases i.e. skips k_cpu_idle().
		 * The kernel's idle processing re-enables interrupts
		 * which is essential for the kernel's scheduling
		 * logic.
		 */
		if (k_is_pre_kernel() || !pm_system_suspend(_kernel.idle)) {
    4d72:	782b      	ldrb	r3, [r5, #0]
		_kernel.idle = z_get_next_timeout_expiry();
    4d74:	61a0      	str	r0, [r4, #24]
		if (k_is_pre_kernel() || !pm_system_suspend(_kernel.idle)) {
    4d76:	b913      	cbnz	r3, 4d7e <idle+0x26>
	arch_cpu_idle();
    4d78:	f7fd f842 	bl	1e00 <arch_cpu_idle>
}
    4d7c:	e7ef      	b.n	4d5e <idle+0x6>
    4d7e:	f7fc ff61 	bl	1c44 <pm_system_suspend>
    4d82:	2800      	cmp	r0, #0
    4d84:	d1eb      	bne.n	4d5e <idle+0x6>
    4d86:	e7f7      	b.n	4d78 <idle+0x20>
    4d88:	200005fc 	.word	0x200005fc
    4d8c:	20000a81 	.word	0x20000a81

00004d90 <z_impl_k_sem_give>:
	ARG_UNUSED(sem);
#endif
}

void z_impl_k_sem_give(struct k_sem *sem)
{
    4d90:	b538      	push	{r3, r4, r5, lr}
    4d92:	4604      	mov	r4, r0
    4d94:	f04f 0320 	mov.w	r3, #32
    4d98:	f3ef 8511 	mrs	r5, BASEPRI
    4d9c:	f383 8812 	msr	BASEPRI_MAX, r3
    4da0:	f3bf 8f6f 	isb	sy
	k_spinlock_key_t key = k_spin_lock(&lock);
	struct k_thread *thread;

	SYS_PORT_TRACING_OBJ_FUNC_ENTER(k_sem, give, sem);

	thread = z_unpend_first_thread(&sem->wait_q);
    4da4:	f001 ff02 	bl	6bac <z_unpend_first_thread>

	if (thread != NULL) {
    4da8:	b148      	cbz	r0, 4dbe <z_impl_k_sem_give+0x2e>
}

static ALWAYS_INLINE void
arch_thread_return_value_set(struct k_thread *thread, unsigned int value)
{
	thread->arch.swap_return_value = value;
    4daa:	2200      	movs	r2, #0
    4dac:	6782      	str	r2, [r0, #120]	; 0x78
		arch_thread_return_value_set(thread, 0);
		z_ready_thread(thread);
    4dae:	f001 fea1 	bl	6af4 <z_ready_thread>
	} else {
		sem->count += (sem->count != sem->limit) ? 1U : 0U;
		handle_poll_events(sem);
	}

	z_reschedule(&lock, key);
    4db2:	4629      	mov	r1, r5
    4db4:	4805      	ldr	r0, [pc, #20]	; (4dcc <z_impl_k_sem_give+0x3c>)

	SYS_PORT_TRACING_OBJ_FUNC_EXIT(k_sem, give, sem);
}
    4db6:	e8bd 4038 	ldmia.w	sp!, {r3, r4, r5, lr}
	z_reschedule(&lock, key);
    4dba:	f000 b9c5 	b.w	5148 <z_reschedule>
		sem->count += (sem->count != sem->limit) ? 1U : 0U;
    4dbe:	e9d4 3202 	ldrd	r3, r2, [r4, #8]
    4dc2:	429a      	cmp	r2, r3
    4dc4:	bf18      	it	ne
    4dc6:	3301      	addne	r3, #1
    4dc8:	60a3      	str	r3, [r4, #8]
}
    4dca:	e7f2      	b.n	4db2 <z_impl_k_sem_give+0x22>
    4dcc:	20000a82 	.word	0x20000a82

00004dd0 <z_impl_k_sem_take>:
}
#include <syscalls/k_sem_give_mrsh.c>
#endif

int z_impl_k_sem_take(struct k_sem *sem, k_timeout_t timeout)
{
    4dd0:	b513      	push	{r0, r1, r4, lr}
    4dd2:	f04f 0420 	mov.w	r4, #32
    4dd6:	f3ef 8111 	mrs	r1, BASEPRI
    4dda:	f384 8812 	msr	BASEPRI_MAX, r4
    4dde:	f3bf 8f6f 	isb	sy

	k_spinlock_key_t key = k_spin_lock(&lock);

	SYS_PORT_TRACING_OBJ_FUNC_ENTER(k_sem, take, sem, timeout);

	if (likely(sem->count > 0U)) {
    4de2:	6884      	ldr	r4, [r0, #8]
    4de4:	b144      	cbz	r4, 4df8 <z_impl_k_sem_take+0x28>
		sem->count--;
    4de6:	3c01      	subs	r4, #1
    4de8:	6084      	str	r4, [r0, #8]
	__asm__ volatile(
    4dea:	f381 8811 	msr	BASEPRI, r1
    4dee:	f3bf 8f6f 	isb	sy
		k_spin_unlock(&lock, key);
		ret = 0;
    4df2:	2000      	movs	r0, #0

out:
	SYS_PORT_TRACING_OBJ_FUNC_EXIT(k_sem, take, sem, timeout, ret);

	return ret;
}
    4df4:	b002      	add	sp, #8
    4df6:	bd10      	pop	{r4, pc}
	if (K_TIMEOUT_EQ(timeout, K_NO_WAIT)) {
    4df8:	ea52 0403 	orrs.w	r4, r2, r3
    4dfc:	d106      	bne.n	4e0c <z_impl_k_sem_take+0x3c>
    4dfe:	f381 8811 	msr	BASEPRI, r1
    4e02:	f3bf 8f6f 	isb	sy
		ret = -EBUSY;
    4e06:	f06f 000f 	mvn.w	r0, #15
    4e0a:	e7f3      	b.n	4df4 <z_impl_k_sem_take+0x24>
	ret = z_pend_curr(&lock, key, &sem->wait_q, timeout);
    4e0c:	e9cd 2300 	strd	r2, r3, [sp]
    4e10:	4602      	mov	r2, r0
    4e12:	4802      	ldr	r0, [pc, #8]	; (4e1c <z_impl_k_sem_take+0x4c>)
    4e14:	f000 faea 	bl	53ec <z_pend_curr>
	return ret;
    4e18:	e7ec      	b.n	4df4 <z_impl_k_sem_take+0x24>
    4e1a:	bf00      	nop
    4e1c:	20000a82 	.word	0x20000a82

00004e20 <work_queue_main>:
/* Loop executed by a work queue thread.
 *
 * @param workq_ptr pointer to the work queue structure
 */
static void work_queue_main(void *workq_ptr, void *p2, void *p3)
{
    4e20:	e92d 4ff0 	stmdb	sp!, {r4, r5, r6, r7, r8, r9, sl, fp, lr}
	return list->head;
    4e24:	4e47      	ldr	r6, [pc, #284]	; (4f44 <work_queue_main+0x124>)
    4e26:	b085      	sub	sp, #20
    4e28:	4604      	mov	r4, r0
			 * stop.  Just go to sleep: when something happens the
			 * work thread will be woken and we can check again.
			 */

			(void)z_sched_wait(&lock, key, &queue->notifyq,
					   K_FOREVER, NULL);
    4e2a:	f04f 38ff 	mov.w	r8, #4294967295	; 0xffffffff
    4e2e:	f04f 39ff 	mov.w	r9, #4294967295	; 0xffffffff
	__asm__ volatile(
    4e32:	f04f 0320 	mov.w	r3, #32
    4e36:	f3ef 8711 	mrs	r7, BASEPRI
    4e3a:	f383 8812 	msr	BASEPRI_MAX, r3
    4e3e:	f3bf 8f6f 	isb	sy
    4e42:	f8d4 5080 	ldr.w	r5, [r4, #128]	; 0x80
 *
 * @return A pointer to the first node of the list (or NULL if empty)
 */
static inline sys_snode_t *sys_slist_get(sys_slist_t *list);

Z_GENLIST_GET(slist, snode)
    4e46:	b98d      	cbnz	r5, 4e6c <work_queue_main+0x4c>
		} else if (flag_test_and_clear(&queue->flags,
    4e48:	2102      	movs	r1, #2
    4e4a:	f104 0098 	add.w	r0, r4, #152	; 0x98
    4e4e:	f001 fde6 	bl	6a1e <flag_test_and_clear>
    4e52:	2800      	cmp	r0, #0
    4e54:	d135      	bne.n	4ec2 <work_queue_main+0xa2>
			(void)z_sched_wait(&lock, key, &queue->notifyq,
    4e56:	2300      	movs	r3, #0
    4e58:	e9cd 8900 	strd	r8, r9, [sp]
    4e5c:	9302      	str	r3, [sp, #8]
    4e5e:	f104 0288 	add.w	r2, r4, #136	; 0x88
    4e62:	4639      	mov	r1, r7
    4e64:	4838      	ldr	r0, [pc, #224]	; (4f48 <work_queue_main+0x128>)
    4e66:	f000 fc29 	bl	56bc <z_sched_wait>
			continue;
    4e6a:	e7e2      	b.n	4e32 <work_queue_main+0x12>
Z_GENLIST_GET_NOT_EMPTY(slist, snode)
    4e6c:	f8d4 2084 	ldr.w	r2, [r4, #132]	; 0x84
	return node->next;
    4e70:	682b      	ldr	r3, [r5, #0]
	list->head = node;
    4e72:	f8c4 3080 	str.w	r3, [r4, #128]	; 0x80
Z_GENLIST_GET_NOT_EMPTY(slist, snode)
    4e76:	4295      	cmp	r5, r2
    4e78:	d101      	bne.n	4e7e <work_queue_main+0x5e>
	list->tail = node;
    4e7a:	f8c4 3084 	str.w	r3, [r4, #132]	; 0x84
	*flagp |= BIT(bit);
    4e7e:	f8d4 3098 	ldr.w	r3, [r4, #152]	; 0x98
    4e82:	f043 0302 	orr.w	r3, r3, #2
    4e86:	f8c4 3098 	str.w	r3, [r4, #152]	; 0x98
	*flagp &= ~BIT(bit);
    4e8a:	68eb      	ldr	r3, [r5, #12]
    4e8c:	f023 0304 	bic.w	r3, r3, #4
    4e90:	f043 0301 	orr.w	r3, r3, #1
    4e94:	60eb      	str	r3, [r5, #12]
			handler = work->handler;
    4e96:	686b      	ldr	r3, [r5, #4]
	__asm__ volatile(
    4e98:	f387 8811 	msr	BASEPRI, r7
    4e9c:	f3bf 8f6f 	isb	sy
		}

		k_spin_unlock(&lock, key);

		__ASSERT_NO_MSG(handler != NULL);
		handler(work);
    4ea0:	4628      	mov	r0, r5
    4ea2:	4798      	blx	r3
	__asm__ volatile(
    4ea4:	f04f 0320 	mov.w	r3, #32
    4ea8:	f3ef 8b11 	mrs	fp, BASEPRI
    4eac:	f383 8812 	msr	BASEPRI_MAX, r3
    4eb0:	f3bf 8f6f 	isb	sy
	*flagp &= ~BIT(bit);
    4eb4:	68eb      	ldr	r3, [r5, #12]
		 * starving other threads.
		 */
		key = k_spin_lock(&lock);

		flag_clear(&work->flags, K_WORK_RUNNING_BIT);
		if (flag_test(&work->flags, K_WORK_CANCELING_BIT)) {
    4eb6:	0799      	lsls	r1, r3, #30
	*flagp &= ~BIT(bit);
    4eb8:	f023 0201 	bic.w	r2, r3, #1
		if (flag_test(&work->flags, K_WORK_CANCELING_BIT)) {
    4ebc:	d40b      	bmi.n	4ed6 <work_queue_main+0xb6>
	*flagp &= ~BIT(bit);
    4ebe:	60ea      	str	r2, [r5, #12]
    4ec0:	e00e      	b.n	4ee0 <work_queue_main+0xc0>
			(void)z_sched_wake_all(&queue->drainq, 1, NULL);
    4ec2:	f104 0590 	add.w	r5, r4, #144	; 0x90
static inline bool z_sched_wake_all(_wait_q_t *wait_q, int swap_retval,
				    void *swap_data)
{
	bool woken = false;

	while (z_sched_wake(wait_q, swap_retval, swap_data)) {
    4ec6:	2200      	movs	r2, #0
    4ec8:	2101      	movs	r1, #1
    4eca:	4628      	mov	r0, r5
    4ecc:	f001 fe86 	bl	6bdc <z_sched_wake>
    4ed0:	2800      	cmp	r0, #0
    4ed2:	d1f8      	bne.n	4ec6 <work_queue_main+0xa6>
    4ed4:	e7bf      	b.n	4e56 <work_queue_main+0x36>
	return list->head;
    4ed6:	6830      	ldr	r0, [r6, #0]
	*flagp &= ~BIT(bit);
    4ed8:	f023 0303 	bic.w	r3, r3, #3
    4edc:	60eb      	str	r3, [r5, #12]
	SYS_SLIST_FOR_EACH_CONTAINER_SAFE(&pending_cancels, wc, tmp, node) {
    4ede:	b970      	cbnz	r0, 4efe <work_queue_main+0xde>
	*flagp &= ~BIT(bit);
    4ee0:	f8d4 3098 	ldr.w	r3, [r4, #152]	; 0x98
    4ee4:	f023 0302 	bic.w	r3, r3, #2
    4ee8:	f8c4 3098 	str.w	r3, [r4, #152]	; 0x98
	__asm__ volatile(
    4eec:	f38b 8811 	msr	BASEPRI, fp
    4ef0:	f3bf 8f6f 	isb	sy
		k_spin_unlock(&lock, key);

		/* Optionally yield to prevent the work queue from
		 * starving other threads.
		 */
		if (yield) {
    4ef4:	05d8      	lsls	r0, r3, #23
    4ef6:	d49c      	bmi.n	4e32 <work_queue_main+0x12>
	z_impl_k_yield();
    4ef8:	f000 fae6 	bl	54c8 <z_impl_k_yield>
}
    4efc:	e799      	b.n	4e32 <work_queue_main+0x12>
	return node->next;
    4efe:	2700      	movs	r7, #0
    4f00:	f8d0 a000 	ldr.w	sl, [r0]
	parent->next = child;
    4f04:	463b      	mov	r3, r7
		if (wc->work == work) {
    4f06:	6842      	ldr	r2, [r0, #4]
    4f08:	4295      	cmp	r5, r2
			sys_slist_remove(&pending_cancels, prev, &wc->node);
    4f0a:	4601      	mov	r1, r0
		if (wc->work == work) {
    4f0c:	d10c      	bne.n	4f28 <work_queue_main+0x108>
	return node->next;
    4f0e:	6801      	ldr	r1, [r0, #0]
 */
static inline void sys_slist_remove(sys_slist_t *list,
				    sys_snode_t *prev_node,
				    sys_snode_t *node);

Z_GENLIST_REMOVE(slist, snode)
    4f10:	b997      	cbnz	r7, 4f38 <work_queue_main+0x118>
    4f12:	6872      	ldr	r2, [r6, #4]
	list->head = node;
    4f14:	6031      	str	r1, [r6, #0]
Z_GENLIST_REMOVE(slist, snode)
    4f16:	4282      	cmp	r2, r0
    4f18:	d100      	bne.n	4f1c <work_queue_main+0xfc>
	list->tail = node;
    4f1a:	6071      	str	r1, [r6, #4]
	parent->next = child;
    4f1c:	f840 3b08 	str.w	r3, [r0], #8
	z_impl_k_sem_give(sem);
    4f20:	f7ff ff36 	bl	4d90 <z_impl_k_sem_give>
}
    4f24:	4639      	mov	r1, r7
    4f26:	2300      	movs	r3, #0
	SYS_SLIST_FOR_EACH_CONTAINER_SAFE(&pending_cancels, wc, tmp, node) {
    4f28:	f1ba 0f00 	cmp.w	sl, #0
    4f2c:	d0d8      	beq.n	4ee0 <work_queue_main+0xc0>
	return node->next;
    4f2e:	4650      	mov	r0, sl
    4f30:	460f      	mov	r7, r1
    4f32:	f8da a000 	ldr.w	sl, [sl]
    4f36:	e7e6      	b.n	4f06 <work_queue_main+0xe6>
	return list->tail;
    4f38:	6872      	ldr	r2, [r6, #4]
	parent->next = child;
    4f3a:	6039      	str	r1, [r7, #0]
Z_GENLIST_REMOVE(slist, snode)
    4f3c:	4290      	cmp	r0, r2
	list->tail = node;
    4f3e:	bf08      	it	eq
    4f40:	6077      	streq	r7, [r6, #4]
}
    4f42:	e7eb      	b.n	4f1c <work_queue_main+0xfc>
    4f44:	20000624 	.word	0x20000624
    4f48:	20000a82 	.word	0x20000a82

00004f4c <submit_to_queue_locked>:
{
    4f4c:	b5f8      	push	{r3, r4, r5, r6, r7, lr}
	return (*flagp & BIT(bit)) != 0U;
    4f4e:	68c3      	ldr	r3, [r0, #12]
	if (flag_test(&work->flags, K_WORK_CANCELING_BIT)) {
    4f50:	079a      	lsls	r2, r3, #30
{
    4f52:	4604      	mov	r4, r0
    4f54:	460e      	mov	r6, r1
	if (flag_test(&work->flags, K_WORK_CANCELING_BIT)) {
    4f56:	f3c3 0540 	ubfx	r5, r3, #1, #1
    4f5a:	d41f      	bmi.n	4f9c <submit_to_queue_locked+0x50>
	} else if (!flag_test(&work->flags, K_WORK_QUEUED_BIT)) {
    4f5c:	075f      	lsls	r7, r3, #29
    4f5e:	d41f      	bmi.n	4fa0 <submit_to_queue_locked+0x54>
		if (*queuep == NULL) {
    4f60:	680a      	ldr	r2, [r1, #0]
    4f62:	b90a      	cbnz	r2, 4f68 <submit_to_queue_locked+0x1c>
			*queuep = work->queue;
    4f64:	6882      	ldr	r2, [r0, #8]
    4f66:	600a      	str	r2, [r1, #0]
		if (flag_test(&work->flags, K_WORK_RUNNING_BIT)) {
    4f68:	07d8      	lsls	r0, r3, #31
			*queuep = work->queue;
    4f6a:	bf44      	itt	mi
    4f6c:	68a3      	ldrmi	r3, [r4, #8]
    4f6e:	6033      	strmi	r3, [r6, #0]
		int rc = queue_submit_locked(*queuep, work);
    4f70:	6837      	ldr	r7, [r6, #0]
			ret = 2;
    4f72:	bf4c      	ite	mi
    4f74:	2502      	movmi	r5, #2
		ret = 1;
    4f76:	2501      	movpl	r5, #1
	if (queue == NULL) {
    4f78:	b37f      	cbz	r7, 4fda <submit_to_queue_locked+0x8e>
	bool chained = (_current == &queue->thread) && !k_is_in_isr();
    4f7a:	4b1b      	ldr	r3, [pc, #108]	; (4fe8 <submit_to_queue_locked+0x9c>)
    4f7c:	689b      	ldr	r3, [r3, #8]
    4f7e:	42bb      	cmp	r3, r7
    4f80:	d111      	bne.n	4fa6 <submit_to_queue_locked+0x5a>
    4f82:	f001 fd3a 	bl	69fa <k_is_in_isr>
    4f86:	f080 0001 	eor.w	r0, r0, #1
    4f8a:	b2c0      	uxtb	r0, r0
	return (*flagp & BIT(bit)) != 0U;
    4f8c:	f8d7 3098 	ldr.w	r3, [r7, #152]	; 0x98
	if (!flag_test(&queue->flags, K_WORK_QUEUE_STARTED_BIT)) {
    4f90:	07d9      	lsls	r1, r3, #31
	return (*flagp & BIT(bit)) != 0U;
    4f92:	f3c3 0280 	ubfx	r2, r3, #2, #1
	if (!flag_test(&queue->flags, K_WORK_QUEUE_STARTED_BIT)) {
    4f96:	d523      	bpl.n	4fe0 <submit_to_queue_locked+0x94>
	} else if (draining && !chained) {
    4f98:	b13a      	cbz	r2, 4faa <submit_to_queue_locked+0x5e>
    4f9a:	b940      	cbnz	r0, 4fae <submit_to_queue_locked+0x62>
		ret = -EBUSY;
    4f9c:	f06f 050f 	mvn.w	r5, #15
		*queuep = NULL;
    4fa0:	2300      	movs	r3, #0
    4fa2:	6033      	str	r3, [r6, #0]
	return ret;
    4fa4:	e013      	b.n	4fce <submit_to_queue_locked+0x82>
	bool chained = (_current == &queue->thread) && !k_is_in_isr();
    4fa6:	2000      	movs	r0, #0
    4fa8:	e7f0      	b.n	4f8c <submit_to_queue_locked+0x40>
	} else if (plugged && !draining) {
    4faa:	071b      	lsls	r3, r3, #28
    4fac:	d4f6      	bmi.n	4f9c <submit_to_queue_locked+0x50>
	parent->next = child;
    4fae:	2300      	movs	r3, #0
    4fb0:	6023      	str	r3, [r4, #0]
	return list->tail;
    4fb2:	f8d7 3084 	ldr.w	r3, [r7, #132]	; 0x84
Z_GENLIST_APPEND(slist, snode)
    4fb6:	b963      	cbnz	r3, 4fd2 <submit_to_queue_locked+0x86>
	list->head = node;
    4fb8:	e9c7 4420 	strd	r4, r4, [r7, #128]	; 0x80
		(void)notify_queue_locked(queue);
    4fbc:	4638      	mov	r0, r7
    4fbe:	f001 fd39 	bl	6a34 <notify_queue_locked.isra.0>
	*flagp |= BIT(bit);
    4fc2:	68e3      	ldr	r3, [r4, #12]
    4fc4:	f043 0304 	orr.w	r3, r3, #4
    4fc8:	60e3      	str	r3, [r4, #12]
			work->queue = *queuep;
    4fca:	6833      	ldr	r3, [r6, #0]
    4fcc:	60a3      	str	r3, [r4, #8]
}
    4fce:	4628      	mov	r0, r5
    4fd0:	bdf8      	pop	{r3, r4, r5, r6, r7, pc}
	parent->next = child;
    4fd2:	601c      	str	r4, [r3, #0]
	list->tail = node;
    4fd4:	f8c7 4084 	str.w	r4, [r7, #132]	; 0x84
}
    4fd8:	e7f0      	b.n	4fbc <submit_to_queue_locked+0x70>
		return -EINVAL;
    4fda:	f06f 0515 	mvn.w	r5, #21
    4fde:	e7df      	b.n	4fa0 <submit_to_queue_locked+0x54>
		ret = -ENODEV;
    4fe0:	f06f 0512 	mvn.w	r5, #18
    4fe4:	e7dc      	b.n	4fa0 <submit_to_queue_locked+0x54>
    4fe6:	bf00      	nop
    4fe8:	200005fc 	.word	0x200005fc

00004fec <k_work_queue_start>:
void k_work_queue_start(struct k_work_q *queue,
			k_thread_stack_t *stack,
			size_t stack_size,
			int prio,
			const struct k_work_queue_config *cfg)
{
    4fec:	b5f0      	push	{r4, r5, r6, r7, lr}
    4fee:	b089      	sub	sp, #36	; 0x24
    4ff0:	4604      	mov	r4, r0
	list->head = NULL;
    4ff2:	2000      	movs	r0, #0
	list->tail = NULL;
    4ff4:	e9c4 0020 	strd	r0, r0, [r4, #128]	; 0x80
    4ff8:	9d0e      	ldr	r5, [sp, #56]	; 0x38
    4ffa:	f104 0088 	add.w	r0, r4, #136	; 0x88
	list->tail = (sys_dnode_t *)list;
    4ffe:	e9c4 0022 	strd	r0, r0, [r4, #136]	; 0x88
    5002:	f104 0090 	add.w	r0, r4, #144	; 0x90
    5006:	e9c4 0024 	strd	r0, r0, [r4, #144]	; 0x90

	sys_slist_init(&queue->pending);
	z_waitq_init(&queue->notifyq);
	z_waitq_init(&queue->drainq);

	if ((cfg != NULL) && cfg->no_yield) {
    500a:	b31d      	cbz	r5, 5054 <k_work_queue_start+0x68>
    500c:	7928      	ldrb	r0, [r5, #4]
		flags |= K_WORK_QUEUE_NO_YIELD;
    500e:	2800      	cmp	r0, #0
    5010:	f240 1001 	movw	r0, #257	; 0x101
    5014:	bf08      	it	eq
    5016:	2001      	moveq	r0, #1
	*flagp = flags;
    5018:	f8c4 0098 	str.w	r0, [r4, #152]	; 0x98
	return z_impl_k_thread_create(new_thread, stack, stack_size, entry, p1, p2, p3, prio, options, delay);
    501c:	2000      	movs	r0, #0
    501e:	f04f 36ff 	mov.w	r6, #4294967295	; 0xffffffff
    5022:	f04f 37ff 	mov.w	r7, #4294967295	; 0xffffffff
    5026:	e9cd 3003 	strd	r3, r0, [sp, #12]
    502a:	e9cd 0001 	strd	r0, r0, [sp, #4]
    502e:	e9cd 6706 	strd	r6, r7, [sp, #24]
    5032:	4b09      	ldr	r3, [pc, #36]	; (5058 <k_work_queue_start+0x6c>)
    5034:	9400      	str	r4, [sp, #0]
    5036:	4620      	mov	r0, r4
    5038:	f7ff fe06 	bl	4c48 <z_impl_k_thread_create>

	(void)k_thread_create(&queue->thread, stack, stack_size,
			      work_queue_main, queue, NULL, NULL,
			      prio, 0, K_FOREVER);

	if ((cfg != NULL) && (cfg->name != NULL)) {
    503c:	b125      	cbz	r5, 5048 <k_work_queue_start+0x5c>
    503e:	6829      	ldr	r1, [r5, #0]
    5040:	b111      	cbz	r1, 5048 <k_work_queue_start+0x5c>
	return z_impl_k_thread_name_set(thread, str);
    5042:	4620      	mov	r0, r4
    5044:	f001 fcdf 	bl	6a06 <z_impl_k_thread_name_set>
	z_impl_k_thread_start(thread);
    5048:	4620      	mov	r0, r4
	}

	k_thread_start(&queue->thread);

	SYS_PORT_TRACING_OBJ_FUNC_EXIT(k_work_queue, start, queue);
}
    504a:	b009      	add	sp, #36	; 0x24
    504c:	e8bd 40f0 	ldmia.w	sp!, {r4, r5, r6, r7, lr}
    5050:	f001 bcdc 	b.w	6a0c <z_impl_k_thread_start>
	uint32_t flags = K_WORK_QUEUE_STARTED;
    5054:	2001      	movs	r0, #1
    5056:	e7df      	b.n	5018 <k_work_queue_start+0x2c>
    5058:	00004e21 	.word	0x00004e21

0000505c <k_work_schedule_for_queue>:
}

int k_work_schedule_for_queue(struct k_work_q *queue,
			       struct k_work_delayable *dwork,
			       k_timeout_t delay)
{
    505c:	b513      	push	{r0, r1, r4, lr}
    505e:	9001      	str	r0, [sp, #4]
    5060:	4608      	mov	r0, r1
	__asm__ volatile(
    5062:	f04f 0120 	mov.w	r1, #32
    5066:	f3ef 8411 	mrs	r4, BASEPRI
    506a:	f381 8812 	msr	BASEPRI_MAX, r1
    506e:	f3bf 8f6f 	isb	sy
	return *flagp;
    5072:	68c1      	ldr	r1, [r0, #12]
	struct k_work *work = &dwork->work;
	int ret = 0;
	k_spinlock_key_t key = k_spin_lock(&lock);

	/* Schedule the work item if it's idle or running. */
	if ((work_busy_get_locked(work) & ~K_WORK_RUNNING) == 0U) {
    5074:	f011 0f0e 	tst.w	r1, #14
    5078:	d116      	bne.n	50a8 <k_work_schedule_for_queue+0x4c>
	if (K_TIMEOUT_EQ(delay, K_NO_WAIT)) {
    507a:	ea53 0c02 	orrs.w	ip, r3, r2
    507e:	d108      	bne.n	5092 <k_work_schedule_for_queue+0x36>
		return submit_to_queue_locked(work, queuep);
    5080:	a901      	add	r1, sp, #4
    5082:	f7ff ff63 	bl	4f4c <submit_to_queue_locked>
	__asm__ volatile(
    5086:	f384 8811 	msr	BASEPRI, r4
    508a:	f3bf 8f6f 	isb	sy
	k_spin_unlock(&lock, key);

	SYS_PORT_TRACING_OBJ_FUNC_EXIT(k_work, schedule_for_queue, queue, dwork, delay, ret);

	return ret;
}
    508e:	b002      	add	sp, #8
    5090:	bd10      	pop	{r4, pc}
	*flagp |= BIT(bit);
    5092:	f041 0108 	orr.w	r1, r1, #8
    5096:	60c1      	str	r1, [r0, #12]
	dwork->queue = *queuep;
    5098:	9901      	ldr	r1, [sp, #4]
    509a:	6281      	str	r1, [r0, #40]	; 0x28
	z_add_timeout(&dwork->timeout, work_timeout, delay);
    509c:	3010      	adds	r0, #16
    509e:	4903      	ldr	r1, [pc, #12]	; (50ac <k_work_schedule_for_queue+0x50>)
    50a0:	f000 fb84 	bl	57ac <z_add_timeout>
	return ret;
    50a4:	2001      	movs	r0, #1
    50a6:	e7ee      	b.n	5086 <k_work_schedule_for_queue+0x2a>
	int ret = 0;
    50a8:	2000      	movs	r0, #0
    50aa:	e7ec      	b.n	5086 <k_work_schedule_for_queue+0x2a>
    50ac:	00006a43 	.word	0x00006a43

000050b0 <k_work_schedule>:

int k_work_schedule(struct k_work_delayable *dwork,
				   k_timeout_t delay)
{
    50b0:	4601      	mov	r1, r0
	SYS_PORT_TRACING_OBJ_FUNC_ENTER(k_work, schedule, dwork, delay);

	int ret = k_work_schedule_for_queue(&k_sys_work_q, dwork, delay);
    50b2:	4801      	ldr	r0, [pc, #4]	; (50b8 <k_work_schedule+0x8>)
    50b4:	f7ff bfd2 	b.w	505c <k_work_schedule_for_queue>
    50b8:	20000378 	.word	0x20000378

000050bc <z_reset_time_slice>:
 */
static struct k_thread *pending_current;
#endif

void z_reset_time_slice(void)
{
    50bc:	b510      	push	{r4, lr}
	/* Add the elapsed time since the last announced tick to the
	 * slice count, as we'll see those "expired" ticks arrive in a
	 * FUTURE z_time_slice() call.
	 */
	if (slice_time != 0) {
    50be:	4c08      	ldr	r4, [pc, #32]	; (50e0 <z_reset_time_slice+0x24>)
    50c0:	6823      	ldr	r3, [r4, #0]
    50c2:	b15b      	cbz	r3, 50dc <z_reset_time_slice+0x20>
		_current_cpu->slice_ticks = slice_time + sys_clock_elapsed();
    50c4:	f7fe fb68 	bl	3798 <sys_clock_elapsed>
    50c8:	4603      	mov	r3, r0
    50ca:	6820      	ldr	r0, [r4, #0]
    50cc:	4a05      	ldr	r2, [pc, #20]	; (50e4 <z_reset_time_slice+0x28>)
    50ce:	4403      	add	r3, r0
		z_set_timeout_expiry(slice_time, false);
	}
}
    50d0:	e8bd 4010 	ldmia.w	sp!, {r4, lr}
		_current_cpu->slice_ticks = slice_time + sys_clock_elapsed();
    50d4:	6113      	str	r3, [r2, #16]
		z_set_timeout_expiry(slice_time, false);
    50d6:	2100      	movs	r1, #0
    50d8:	f001 bdc3 	b.w	6c62 <z_set_timeout_expiry>
}
    50dc:	bd10      	pop	{r4, pc}
    50de:	bf00      	nop
    50e0:	20000634 	.word	0x20000634
    50e4:	200005fc 	.word	0x200005fc

000050e8 <k_sched_time_slice_set>:

void k_sched_time_slice_set(int32_t slice, int prio)
{
    50e8:	b5f8      	push	{r3, r4, r5, r6, r7, lr}
    50ea:	4604      	mov	r4, r0
    50ec:	460d      	mov	r5, r1
	__asm__ volatile(
    50ee:	f04f 0320 	mov.w	r3, #32
    50f2:	f3ef 8611 	mrs	r6, BASEPRI
    50f6:	f383 8812 	msr	BASEPRI_MAX, r3
    50fa:	f3bf 8f6f 	isb	sy
	LOCKED(&sched_spinlock) {
		_current_cpu->slice_ticks = 0;
    50fe:	4b0f      	ldr	r3, [pc, #60]	; (513c <k_sched_time_slice_set+0x54>)
    5100:	2100      	movs	r1, #0
			return (uint32_t)((t * to_hz + off) / from_hz);
    5102:	f44f 4700 	mov.w	r7, #32768	; 0x8000
    5106:	f240 30e7 	movw	r0, #999	; 0x3e7
    510a:	6119      	str	r1, [r3, #16]
    510c:	f44f 727a 	mov.w	r2, #1000	; 0x3e8
    5110:	2300      	movs	r3, #0
    5112:	fbe4 0107 	umlal	r0, r1, r4, r7
    5116:	f7fb fbb1 	bl	87c <__aeabi_uldivmod>
		slice_time = k_ms_to_ticks_ceil32(slice);
		if (IS_ENABLED(CONFIG_TICKLESS_KERNEL) && slice > 0) {
    511a:	2c00      	cmp	r4, #0
    511c:	4b08      	ldr	r3, [pc, #32]	; (5140 <k_sched_time_slice_set+0x58>)
    511e:	dc09      	bgt.n	5134 <k_sched_time_slice_set+0x4c>
			/* It's not possible to reliably set a 1-tick
			 * timeout if ticks aren't regular.
			 */
			slice_time = MAX(2, slice_time);
    5120:	6018      	str	r0, [r3, #0]
		}
		slice_max_prio = prio;
    5122:	4b08      	ldr	r3, [pc, #32]	; (5144 <k_sched_time_slice_set+0x5c>)
    5124:	601d      	str	r5, [r3, #0]
		z_reset_time_slice();
    5126:	f7ff ffc9 	bl	50bc <z_reset_time_slice>
	__asm__ volatile(
    512a:	f386 8811 	msr	BASEPRI, r6
    512e:	f3bf 8f6f 	isb	sy
	}
}
    5132:	bdf8      	pop	{r3, r4, r5, r6, r7, pc}
			slice_time = MAX(2, slice_time);
    5134:	2802      	cmp	r0, #2
    5136:	bfb8      	it	lt
    5138:	2002      	movlt	r0, #2
    513a:	e7f1      	b.n	5120 <k_sched_time_slice_set+0x38>
    513c:	200005fc 	.word	0x200005fc
    5140:	20000634 	.word	0x20000634
    5144:	20000630 	.word	0x20000630

00005148 <z_reschedule>:
{
#ifdef CONFIG_SMP
	_current_cpu->swap_ok = 0;
#endif

	return arch_irq_unlocked(key) && !arch_is_in_isr();
    5148:	b949      	cbnz	r1, 515e <z_reschedule+0x16>
  __ASM volatile ("MRS %0, ipsr" : "=r" (result) );
    514a:	f3ef 8005 	mrs	r0, IPSR
#endif
}

void z_reschedule(struct k_spinlock *lock, k_spinlock_key_t key)
{
	if (resched(key.key) && need_swap()) {
    514e:	b930      	cbnz	r0, 515e <z_reschedule+0x16>
	new_thread = _kernel.ready_q.cache;
    5150:	4b05      	ldr	r3, [pc, #20]	; (5168 <z_reschedule+0x20>)
	if (resched(key.key) && need_swap()) {
    5152:	69da      	ldr	r2, [r3, #28]
    5154:	689b      	ldr	r3, [r3, #8]
    5156:	429a      	cmp	r2, r3
    5158:	d001      	beq.n	515e <z_reschedule+0x16>
	ret = arch_swap(key);
    515a:	f7fc bec7 	b.w	1eec <arch_swap>
    515e:	f381 8811 	msr	BASEPRI, r1
    5162:	f3bf 8f6f 	isb	sy
		z_swap(lock, key);
	} else {
		k_spin_unlock(lock, key);
	}
}
    5166:	4770      	bx	lr
    5168:	200005fc 	.word	0x200005fc

0000516c <k_sched_lock>:
	__asm__ volatile(
    516c:	f04f 0320 	mov.w	r3, #32
    5170:	f3ef 8111 	mrs	r1, BASEPRI
    5174:	f383 8812 	msr	BASEPRI_MAX, r3
    5178:	f3bf 8f6f 	isb	sy
	--_current->base.sched_locked;
    517c:	4b04      	ldr	r3, [pc, #16]	; (5190 <k_sched_lock+0x24>)
    517e:	689a      	ldr	r2, [r3, #8]
    5180:	7bd3      	ldrb	r3, [r2, #15]
    5182:	3b01      	subs	r3, #1
    5184:	73d3      	strb	r3, [r2, #15]
	__asm__ volatile(
    5186:	f381 8811 	msr	BASEPRI, r1
    518a:	f3bf 8f6f 	isb	sy
	LOCKED(&sched_spinlock) {
		SYS_PORT_TRACING_FUNC(k_thread, sched_lock);

		z_sched_lock();
	}
}
    518e:	4770      	bx	lr
    5190:	200005fc 	.word	0x200005fc

00005194 <update_cache>:
{
    5194:	b538      	push	{r3, r4, r5, lr}
    5196:	4602      	mov	r2, r0
	return _priq_run_best(curr_cpu_runq());
    5198:	480c      	ldr	r0, [pc, #48]	; (51cc <update_cache+0x38>)
    519a:	4d0d      	ldr	r5, [pc, #52]	; (51d0 <update_cache+0x3c>)
    519c:	f001 fca4 	bl	6ae8 <z_priq_dumb_best>
	return (thread != NULL) ? thread : _current_cpu->idle_thread;
    51a0:	4604      	mov	r4, r0
    51a2:	b900      	cbnz	r0, 51a6 <update_cache+0x12>
    51a4:	68ec      	ldr	r4, [r5, #12]
	if (z_is_thread_prevented_from_running(_current)) {
    51a6:	68ab      	ldr	r3, [r5, #8]
	if (preempt_ok != 0) {
    51a8:	b94a      	cbnz	r2, 51be <update_cache+0x2a>
	if (z_is_thread_prevented_from_running(_current)) {
    51aa:	7b5a      	ldrb	r2, [r3, #13]
    51ac:	06d2      	lsls	r2, r2, #27
    51ae:	d106      	bne.n	51be <update_cache+0x2a>
	if (IS_ENABLED(CONFIG_SWAP_NONATOMIC)
    51b0:	69a2      	ldr	r2, [r4, #24]
    51b2:	b922      	cbnz	r2, 51be <update_cache+0x2a>
	if (is_preempt(_current) || is_metairq(thread)) {
    51b4:	89da      	ldrh	r2, [r3, #14]
    51b6:	2a7f      	cmp	r2, #127	; 0x7f
    51b8:	d901      	bls.n	51be <update_cache+0x2a>
		_kernel.ready_q.cache = _current;
    51ba:	61eb      	str	r3, [r5, #28]
}
    51bc:	bd38      	pop	{r3, r4, r5, pc}
		if (thread != _current) {
    51be:	429c      	cmp	r4, r3
    51c0:	d001      	beq.n	51c6 <update_cache+0x32>
			z_reset_time_slice();
    51c2:	f7ff ff7b 	bl	50bc <z_reset_time_slice>
		_kernel.ready_q.cache = thread;
    51c6:	61ec      	str	r4, [r5, #28]
}
    51c8:	e7f8      	b.n	51bc <update_cache+0x28>
    51ca:	bf00      	nop
    51cc:	2000061c 	.word	0x2000061c
    51d0:	200005fc 	.word	0x200005fc

000051d4 <move_thread_to_end_of_prio_q>:
{
    51d4:	b570      	push	{r4, r5, r6, lr}
	if (z_is_thread_queued(thread)) {
    51d6:	f990 200d 	ldrsb.w	r2, [r0, #13]
	return (thread->base.thread_state & state) != 0U;
    51da:	7b43      	ldrb	r3, [r0, #13]
    51dc:	2a00      	cmp	r2, #0
{
    51de:	4601      	mov	r1, r0
	if (z_is_thread_queued(thread)) {
    51e0:	da04      	bge.n	51ec <move_thread_to_end_of_prio_q+0x18>
	thread->base.thread_state &= ~_THREAD_QUEUED;
    51e2:	f003 037f 	and.w	r3, r3, #127	; 0x7f
    51e6:	7343      	strb	r3, [r0, #13]

void z_priq_dumb_remove(sys_dlist_t *pq, struct k_thread *thread)
{
	__ASSERT_NO_MSG(!z_is_idle_thread_object(thread));

	sys_dlist_remove(&thread->base.qnode_dlist);
    51e8:	f001 fc56 	bl	6a98 <sys_dlist_remove>
	thread->base.thread_state |= _THREAD_QUEUED;
    51ec:	7b4b      	ldrb	r3, [r1, #13]
 * @return true if empty, false otherwise
 */

static inline bool sys_dlist_is_empty(sys_dlist_t *list)
{
	return list->head == list;
    51ee:	4a15      	ldr	r2, [pc, #84]	; (5244 <move_thread_to_end_of_prio_q+0x70>)
    51f0:	f063 037f 	orn	r3, r3, #127	; 0x7f
    51f4:	734b      	strb	r3, [r1, #13]
 */

static inline sys_dnode_t *sys_dlist_peek_next_no_check(sys_dlist_t *list,
							sys_dnode_t *node)
{
	return (node == list->tail) ? NULL : node->next;
    51f6:	e9d2 3408 	ldrd	r3, r4, [r2, #32]
	return sys_dlist_is_empty(list) ? NULL : list->head;
    51fa:	f102 0520 	add.w	r5, r2, #32
    51fe:	42ab      	cmp	r3, r5
    5200:	d01b      	beq.n	523a <move_thread_to_end_of_prio_q+0x66>
	SYS_DLIST_FOR_EACH_CONTAINER(pq, t, base.qnode_dlist) {
    5202:	b1d3      	cbz	r3, 523a <move_thread_to_end_of_prio_q+0x66>
	int32_t b1 = thread_1->base.prio;
    5204:	f991 600e 	ldrsb.w	r6, [r1, #14]
	int32_t b2 = thread_2->base.prio;
    5208:	f993 000e 	ldrsb.w	r0, [r3, #14]
	if (b1 != b2) {
    520c:	4286      	cmp	r6, r0
    520e:	d00f      	beq.n	5230 <move_thread_to_end_of_prio_q+0x5c>
		return b2 - b1;
    5210:	1b80      	subs	r0, r0, r6
		if (z_sched_prio_cmp(thread, t) > 0) {
    5212:	2800      	cmp	r0, #0
    5214:	dd0c      	ble.n	5230 <move_thread_to_end_of_prio_q+0x5c>
 * @param successor the position before which "node" will be inserted
 * @param node the element to insert
 */
static inline void sys_dlist_insert(sys_dnode_t *successor, sys_dnode_t *node)
{
	sys_dnode_t *const prev = successor->prev;
    5216:	6858      	ldr	r0, [r3, #4]

	node->prev = prev;
	node->next = successor;
    5218:	e9c1 3000 	strd	r3, r0, [r1]
	prev->next = node;
    521c:	6001      	str	r1, [r0, #0]
	successor->prev = node;
    521e:	6059      	str	r1, [r3, #4]
	update_cache(thread == _current);
    5220:	6890      	ldr	r0, [r2, #8]
    5222:	1a43      	subs	r3, r0, r1
    5224:	4258      	negs	r0, r3
}
    5226:	e8bd 4070 	ldmia.w	sp!, {r4, r5, r6, lr}
	update_cache(thread == _current);
    522a:	4158      	adcs	r0, r3
    522c:	f7ff bfb2 	b.w	5194 <update_cache>
	return (node == list->tail) ? NULL : node->next;
    5230:	42a3      	cmp	r3, r4
    5232:	d002      	beq.n	523a <move_thread_to_end_of_prio_q+0x66>
    5234:	681b      	ldr	r3, [r3, #0]
	SYS_DLIST_FOR_EACH_CONTAINER(pq, t, base.qnode_dlist) {
    5236:	2b00      	cmp	r3, #0
    5238:	d1e6      	bne.n	5208 <move_thread_to_end_of_prio_q+0x34>
	node->prev = tail;
    523a:	e9c1 5400 	strd	r5, r4, [r1]
	tail->next = node;
    523e:	6021      	str	r1, [r4, #0]
	list->tail = node;
    5240:	6251      	str	r1, [r2, #36]	; 0x24
}
    5242:	e7ed      	b.n	5220 <move_thread_to_end_of_prio_q+0x4c>
    5244:	200005fc 	.word	0x200005fc

00005248 <z_time_slice>:
{
    5248:	b538      	push	{r3, r4, r5, lr}
    524a:	4601      	mov	r1, r0
	__asm__ volatile(
    524c:	f04f 0320 	mov.w	r3, #32
    5250:	f3ef 8411 	mrs	r4, BASEPRI
    5254:	f383 8812 	msr	BASEPRI_MAX, r3
    5258:	f3bf 8f6f 	isb	sy
	if (pending_current == _current) {
    525c:	4b15      	ldr	r3, [pc, #84]	; (52b4 <z_time_slice+0x6c>)
    525e:	4a16      	ldr	r2, [pc, #88]	; (52b8 <z_time_slice+0x70>)
    5260:	6898      	ldr	r0, [r3, #8]
    5262:	6815      	ldr	r5, [r2, #0]
    5264:	42a8      	cmp	r0, r5
    5266:	d106      	bne.n	5276 <z_time_slice+0x2e>
			z_reset_time_slice();
    5268:	f7ff ff28 	bl	50bc <z_reset_time_slice>
	__asm__ volatile(
    526c:	f384 8811 	msr	BASEPRI, r4
    5270:	f3bf 8f6f 	isb	sy
}
    5274:	bd38      	pop	{r3, r4, r5, pc}
	pending_current = NULL;
    5276:	2500      	movs	r5, #0
    5278:	6015      	str	r5, [r2, #0]
	if (slice_time && sliceable(_current)) {
    527a:	4a10      	ldr	r2, [pc, #64]	; (52bc <z_time_slice+0x74>)
    527c:	6812      	ldr	r2, [r2, #0]
    527e:	b1ba      	cbz	r2, 52b0 <z_time_slice+0x68>
		&& !z_is_idle_thread_object(thread);
    5280:	89c2      	ldrh	r2, [r0, #14]
    5282:	2a7f      	cmp	r2, #127	; 0x7f
    5284:	d814      	bhi.n	52b0 <z_time_slice+0x68>
		&& !z_is_thread_prevented_from_running(thread)
    5286:	7b42      	ldrb	r2, [r0, #13]
    5288:	06d2      	lsls	r2, r2, #27
    528a:	d111      	bne.n	52b0 <z_time_slice+0x68>
		&& !z_is_prio_higher(thread->base.prio, slice_max_prio)
    528c:	4a0c      	ldr	r2, [pc, #48]	; (52c0 <z_time_slice+0x78>)
    528e:	f990 500e 	ldrsb.w	r5, [r0, #14]
    5292:	6812      	ldr	r2, [r2, #0]
    5294:	4295      	cmp	r5, r2
    5296:	db0b      	blt.n	52b0 <z_time_slice+0x68>
		&& !z_is_idle_thread_object(thread);
    5298:	4a0a      	ldr	r2, [pc, #40]	; (52c4 <z_time_slice+0x7c>)
    529a:	4290      	cmp	r0, r2
    529c:	d008      	beq.n	52b0 <z_time_slice+0x68>
		if (ticks >= _current_cpu->slice_ticks) {
    529e:	691a      	ldr	r2, [r3, #16]
    52a0:	428a      	cmp	r2, r1
    52a2:	dc02      	bgt.n	52aa <z_time_slice+0x62>
			move_thread_to_end_of_prio_q(_current);
    52a4:	f7ff ff96 	bl	51d4 <move_thread_to_end_of_prio_q>
    52a8:	e7de      	b.n	5268 <z_time_slice+0x20>
			_current_cpu->slice_ticks -= ticks;
    52aa:	1a52      	subs	r2, r2, r1
		_current_cpu->slice_ticks = 0;
    52ac:	611a      	str	r2, [r3, #16]
    52ae:	e7dd      	b.n	526c <z_time_slice+0x24>
    52b0:	2200      	movs	r2, #0
    52b2:	e7fb      	b.n	52ac <z_time_slice+0x64>
    52b4:	200005fc 	.word	0x200005fc
    52b8:	2000062c 	.word	0x2000062c
    52bc:	20000634 	.word	0x20000634
    52c0:	20000630 	.word	0x20000630
    52c4:	20000270 	.word	0x20000270

000052c8 <ready_thread>:
{
    52c8:	b470      	push	{r4, r5, r6}
	if (!z_is_thread_queued(thread) && z_is_thread_ready(thread)) {
    52ca:	f990 200d 	ldrsb.w	r2, [r0, #13]
    52ce:	7b43      	ldrb	r3, [r0, #13]
    52d0:	2a00      	cmp	r2, #0
    52d2:	db2a      	blt.n	532a <ready_thread+0x62>
	return !((z_is_thread_prevented_from_running(thread)) != 0U ||
    52d4:	06da      	lsls	r2, r3, #27
    52d6:	d128      	bne.n	532a <ready_thread+0x62>
    52d8:	6982      	ldr	r2, [r0, #24]
    52da:	bb32      	cbnz	r2, 532a <ready_thread+0x62>
	return list->head == list;
    52dc:	4a14      	ldr	r2, [pc, #80]	; (5330 <ready_thread+0x68>)
	thread->base.thread_state |= _THREAD_QUEUED;
    52de:	f063 037f 	orn	r3, r3, #127	; 0x7f
    52e2:	7343      	strb	r3, [r0, #13]
	return (node == list->tail) ? NULL : node->next;
    52e4:	e9d2 3408 	ldrd	r3, r4, [r2, #32]
	return sys_dlist_is_empty(list) ? NULL : list->head;
    52e8:	f102 0520 	add.w	r5, r2, #32
    52ec:	42ab      	cmp	r3, r5
    52ee:	d017      	beq.n	5320 <ready_thread+0x58>
	SYS_DLIST_FOR_EACH_CONTAINER(pq, t, base.qnode_dlist) {
    52f0:	b1b3      	cbz	r3, 5320 <ready_thread+0x58>
	int32_t b1 = thread_1->base.prio;
    52f2:	f990 600e 	ldrsb.w	r6, [r0, #14]
	int32_t b2 = thread_2->base.prio;
    52f6:	f993 100e 	ldrsb.w	r1, [r3, #14]
	if (b1 != b2) {
    52fa:	428e      	cmp	r6, r1
    52fc:	d00b      	beq.n	5316 <ready_thread+0x4e>
		return b2 - b1;
    52fe:	1b89      	subs	r1, r1, r6
		if (z_sched_prio_cmp(thread, t) > 0) {
    5300:	2900      	cmp	r1, #0
    5302:	dd08      	ble.n	5316 <ready_thread+0x4e>
	sys_dnode_t *const prev = successor->prev;
    5304:	685a      	ldr	r2, [r3, #4]
	node->next = successor;
    5306:	e9c0 3200 	strd	r3, r2, [r0]
	prev->next = node;
    530a:	6010      	str	r0, [r2, #0]
	successor->prev = node;
    530c:	6058      	str	r0, [r3, #4]
}
    530e:	bc70      	pop	{r4, r5, r6}
		update_cache(0);
    5310:	2000      	movs	r0, #0
    5312:	f7ff bf3f 	b.w	5194 <update_cache>
	return (node == list->tail) ? NULL : node->next;
    5316:	42a3      	cmp	r3, r4
    5318:	d002      	beq.n	5320 <ready_thread+0x58>
    531a:	681b      	ldr	r3, [r3, #0]
	SYS_DLIST_FOR_EACH_CONTAINER(pq, t, base.qnode_dlist) {
    531c:	2b00      	cmp	r3, #0
    531e:	d1ea      	bne.n	52f6 <ready_thread+0x2e>
	node->prev = tail;
    5320:	e9c0 5400 	strd	r5, r4, [r0]
	tail->next = node;
    5324:	6020      	str	r0, [r4, #0]
	list->tail = node;
    5326:	6250      	str	r0, [r2, #36]	; 0x24
}
    5328:	e7f1      	b.n	530e <ready_thread+0x46>
}
    532a:	bc70      	pop	{r4, r5, r6}
    532c:	4770      	bx	lr
    532e:	bf00      	nop
    5330:	200005fc 	.word	0x200005fc

00005334 <z_sched_start>:
{
    5334:	b510      	push	{r4, lr}
	__asm__ volatile(
    5336:	f04f 0220 	mov.w	r2, #32
    533a:	f3ef 8411 	mrs	r4, BASEPRI
    533e:	f382 8812 	msr	BASEPRI_MAX, r2
    5342:	f3bf 8f6f 	isb	sy
	return (thread->base.thread_state & _THREAD_PRESTART) == 0U;
    5346:	7b42      	ldrb	r2, [r0, #13]
	if (z_has_thread_started(thread)) {
    5348:	0751      	lsls	r1, r2, #29
    534a:	d404      	bmi.n	5356 <z_sched_start+0x22>
	__asm__ volatile(
    534c:	f384 8811 	msr	BASEPRI, r4
    5350:	f3bf 8f6f 	isb	sy
}
    5354:	bd10      	pop	{r4, pc}
	thread->base.thread_state &= ~_THREAD_PRESTART;
    5356:	f022 0204 	bic.w	r2, r2, #4
    535a:	7342      	strb	r2, [r0, #13]
	ready_thread(thread);
    535c:	f7ff ffb4 	bl	52c8 <ready_thread>
	z_reschedule(&sched_spinlock, key);
    5360:	4621      	mov	r1, r4
    5362:	4802      	ldr	r0, [pc, #8]	; (536c <z_sched_start+0x38>)
}
    5364:	e8bd 4010 	ldmia.w	sp!, {r4, lr}
	z_reschedule(&sched_spinlock, key);
    5368:	f7ff beee 	b.w	5148 <z_reschedule>
    536c:	20000a82 	.word	0x20000a82

00005370 <unready_thread>:
{
    5370:	b508      	push	{r3, lr}
	if (z_is_thread_queued(thread)) {
    5372:	f990 200d 	ldrsb.w	r2, [r0, #13]
	return (thread->base.thread_state & state) != 0U;
    5376:	7b43      	ldrb	r3, [r0, #13]
    5378:	2a00      	cmp	r2, #0
{
    537a:	4601      	mov	r1, r0
	if (z_is_thread_queued(thread)) {
    537c:	da04      	bge.n	5388 <unready_thread+0x18>
	thread->base.thread_state &= ~_THREAD_QUEUED;
    537e:	f003 037f 	and.w	r3, r3, #127	; 0x7f
    5382:	7343      	strb	r3, [r0, #13]
	sys_dlist_remove(&thread->base.qnode_dlist);
    5384:	f001 fb88 	bl	6a98 <sys_dlist_remove>
	update_cache(thread == _current);
    5388:	4b04      	ldr	r3, [pc, #16]	; (539c <unready_thread+0x2c>)
    538a:	6898      	ldr	r0, [r3, #8]
    538c:	1a43      	subs	r3, r0, r1
    538e:	4258      	negs	r0, r3
    5390:	4158      	adcs	r0, r3
}
    5392:	e8bd 4008 	ldmia.w	sp!, {r3, lr}
	update_cache(thread == _current);
    5396:	f7ff befd 	b.w	5194 <update_cache>
    539a:	bf00      	nop
    539c:	200005fc 	.word	0x200005fc

000053a0 <pend>:
{
    53a0:	e92d 41f0 	stmdb	sp!, {r4, r5, r6, r7, r8, lr}
    53a4:	4606      	mov	r6, r0
    53a6:	4615      	mov	r5, r2
    53a8:	461c      	mov	r4, r3
	__asm__ volatile(
    53aa:	f04f 0320 	mov.w	r3, #32
    53ae:	f3ef 8711 	mrs	r7, BASEPRI
    53b2:	f383 8812 	msr	BASEPRI_MAX, r3
    53b6:	f3bf 8f6f 	isb	sy
		add_to_waitq_locked(thread, wait_q);
    53ba:	f001 fbcd 	bl	6b58 <add_to_waitq_locked>
	__asm__ volatile(
    53be:	f387 8811 	msr	BASEPRI, r7
    53c2:	f3bf 8f6f 	isb	sy
	if (!K_TIMEOUT_EQ(timeout, K_FOREVER)) {
    53c6:	f1b4 3fff 	cmp.w	r4, #4294967295	; 0xffffffff
    53ca:	bf08      	it	eq
    53cc:	f1b5 3fff 	cmpeq.w	r5, #4294967295	; 0xffffffff
    53d0:	d008      	beq.n	53e4 <pend+0x44>
    53d2:	462a      	mov	r2, r5
    53d4:	4623      	mov	r3, r4
    53d6:	f106 0018 	add.w	r0, r6, #24
    53da:	4903      	ldr	r1, [pc, #12]	; (53e8 <pend+0x48>)
}
    53dc:	e8bd 41f0 	ldmia.w	sp!, {r4, r5, r6, r7, r8, lr}
    53e0:	f000 b9e4 	b.w	57ac <z_add_timeout>
    53e4:	e8bd 81f0 	ldmia.w	sp!, {r4, r5, r6, r7, r8, pc}
    53e8:	00006b15 	.word	0x00006b15

000053ec <z_pend_curr>:
{
    53ec:	b510      	push	{r4, lr}
	pending_current = _current;
    53ee:	4b07      	ldr	r3, [pc, #28]	; (540c <z_pend_curr+0x20>)
    53f0:	6898      	ldr	r0, [r3, #8]
    53f2:	4b07      	ldr	r3, [pc, #28]	; (5410 <z_pend_curr+0x24>)
{
    53f4:	460c      	mov	r4, r1
	pending_current = _current;
    53f6:	6018      	str	r0, [r3, #0]
{
    53f8:	4611      	mov	r1, r2
	pend(_current, wait_q, timeout);
    53fa:	e9dd 2302 	ldrd	r2, r3, [sp, #8]
    53fe:	f7ff ffcf 	bl	53a0 <pend>
    5402:	4620      	mov	r0, r4
}
    5404:	e8bd 4010 	ldmia.w	sp!, {r4, lr}
    5408:	f7fc bd70 	b.w	1eec <arch_swap>
    540c:	200005fc 	.word	0x200005fc
    5410:	2000062c 	.word	0x2000062c

00005414 <z_impl_k_thread_suspend>:
{
    5414:	b570      	push	{r4, r5, r6, lr}
    5416:	4604      	mov	r4, r0
}

static inline int z_abort_thread_timeout(struct k_thread *thread)
{
	return z_abort_timeout(&thread->base.timeout);
    5418:	3018      	adds	r0, #24
    541a:	f001 fbfc 	bl	6c16 <z_abort_timeout>
	__asm__ volatile(
    541e:	f04f 0320 	mov.w	r3, #32
    5422:	f3ef 8611 	mrs	r6, BASEPRI
    5426:	f383 8812 	msr	BASEPRI_MAX, r3
    542a:	f3bf 8f6f 	isb	sy
		if (z_is_thread_queued(thread)) {
    542e:	f994 200d 	ldrsb.w	r2, [r4, #13]
    5432:	7b63      	ldrb	r3, [r4, #13]
    5434:	2a00      	cmp	r2, #0
    5436:	da05      	bge.n	5444 <z_impl_k_thread_suspend+0x30>
	thread->base.thread_state &= ~_THREAD_QUEUED;
    5438:	f003 037f 	and.w	r3, r3, #127	; 0x7f
    543c:	7363      	strb	r3, [r4, #13]
	sys_dlist_remove(&thread->base.qnode_dlist);
    543e:	4620      	mov	r0, r4
    5440:	f001 fb2a 	bl	6a98 <sys_dlist_remove>
		update_cache(thread == _current);
    5444:	4d0b      	ldr	r5, [pc, #44]	; (5474 <z_impl_k_thread_suspend+0x60>)
	thread->base.thread_state |= _THREAD_SUSPENDED;
    5446:	7b63      	ldrb	r3, [r4, #13]
    5448:	68a8      	ldr	r0, [r5, #8]
    544a:	f043 0310 	orr.w	r3, r3, #16
    544e:	7363      	strb	r3, [r4, #13]
    5450:	1b03      	subs	r3, r0, r4
    5452:	4258      	negs	r0, r3
    5454:	4158      	adcs	r0, r3
    5456:	f7ff fe9d 	bl	5194 <update_cache>
	__asm__ volatile(
    545a:	f386 8811 	msr	BASEPRI, r6
    545e:	f3bf 8f6f 	isb	sy
	if (thread == _current) {
    5462:	68ab      	ldr	r3, [r5, #8]
    5464:	42a3      	cmp	r3, r4
    5466:	d103      	bne.n	5470 <z_impl_k_thread_suspend+0x5c>
}
    5468:	e8bd 4070 	ldmia.w	sp!, {r4, r5, r6, lr}
		z_reschedule_unlocked();
    546c:	f001 bb32 	b.w	6ad4 <z_reschedule_unlocked>
}
    5470:	bd70      	pop	{r4, r5, r6, pc}
    5472:	bf00      	nop
    5474:	200005fc 	.word	0x200005fc

00005478 <k_sched_unlock>:
{
    5478:	b510      	push	{r4, lr}
	__asm__ volatile(
    547a:	f04f 0320 	mov.w	r3, #32
    547e:	f3ef 8411 	mrs	r4, BASEPRI
    5482:	f383 8812 	msr	BASEPRI_MAX, r3
    5486:	f3bf 8f6f 	isb	sy
		++_current->base.sched_locked;
    548a:	4b08      	ldr	r3, [pc, #32]	; (54ac <k_sched_unlock+0x34>)
    548c:	689a      	ldr	r2, [r3, #8]
    548e:	7bd3      	ldrb	r3, [r2, #15]
    5490:	3301      	adds	r3, #1
    5492:	73d3      	strb	r3, [r2, #15]
		update_cache(0);
    5494:	2000      	movs	r0, #0
    5496:	f7ff fe7d 	bl	5194 <update_cache>
	__asm__ volatile(
    549a:	f384 8811 	msr	BASEPRI, r4
    549e:	f3bf 8f6f 	isb	sy
}
    54a2:	e8bd 4010 	ldmia.w	sp!, {r4, lr}
	z_reschedule_unlocked();
    54a6:	f001 bb15 	b.w	6ad4 <z_reschedule_unlocked>
    54aa:	bf00      	nop
    54ac:	200005fc 	.word	0x200005fc

000054b0 <z_sched_init>:
	list->head = (sys_dnode_t *)list;
    54b0:	4b04      	ldr	r3, [pc, #16]	; (54c4 <z_sched_init+0x14>)
#else
	init_ready_q(&_kernel.ready_q);
#endif

#ifdef CONFIG_TIMESLICING
	k_sched_time_slice_set(CONFIG_TIMESLICE_SIZE,
    54b2:	2100      	movs	r1, #0
    54b4:	f103 0220 	add.w	r2, r3, #32
	list->tail = (sys_dnode_t *)list;
    54b8:	e9c3 2208 	strd	r2, r2, [r3, #32]
    54bc:	4608      	mov	r0, r1
    54be:	f7ff be13 	b.w	50e8 <k_sched_time_slice_set>
    54c2:	bf00      	nop
    54c4:	200005fc 	.word	0x200005fc

000054c8 <z_impl_k_yield>:
#include <syscalls/k_thread_deadline_set_mrsh.c>
#endif
#endif

void z_impl_k_yield(void)
{
    54c8:	b5f8      	push	{r3, r4, r5, r6, r7, lr}
	__asm__ volatile(
    54ca:	f04f 0320 	mov.w	r3, #32
    54ce:	f3ef 8511 	mrs	r5, BASEPRI
    54d2:	f383 8812 	msr	BASEPRI_MAX, r3
    54d6:	f3bf 8f6f 	isb	sy

	k_spinlock_key_t key = k_spin_lock(&sched_spinlock);

	if (!IS_ENABLED(CONFIG_SMP) ||
	    z_is_thread_queued(_current)) {
		dequeue_thread(_current);
    54da:	491a      	ldr	r1, [pc, #104]	; (5544 <z_impl_k_yield+0x7c>)
    54dc:	6888      	ldr	r0, [r1, #8]
	thread->base.thread_state &= ~_THREAD_QUEUED;
    54de:	7b43      	ldrb	r3, [r0, #13]
    54e0:	f003 037f 	and.w	r3, r3, #127	; 0x7f
    54e4:	7343      	strb	r3, [r0, #13]
	sys_dlist_remove(&thread->base.qnode_dlist);
    54e6:	f001 fad7 	bl	6a98 <sys_dlist_remove>
	}
	queue_thread(_current);
    54ea:	688b      	ldr	r3, [r1, #8]
	thread->base.thread_state |= _THREAD_QUEUED;
    54ec:	7b5a      	ldrb	r2, [r3, #13]
	return list->head == list;
    54ee:	4608      	mov	r0, r1
    54f0:	f062 027f 	orn	r2, r2, #127	; 0x7f
    54f4:	735a      	strb	r2, [r3, #13]
    54f6:	f850 2f20 	ldr.w	r2, [r0, #32]!
	return sys_dlist_is_empty(list) ? NULL : list->head;
    54fa:	4282      	cmp	r2, r0
    54fc:	d01c      	beq.n	5538 <z_impl_k_yield+0x70>
	SYS_DLIST_FOR_EACH_CONTAINER(pq, t, base.qnode_dlist) {
    54fe:	b1da      	cbz	r2, 5538 <z_impl_k_yield+0x70>
	return (node == list->tail) ? NULL : node->next;
    5500:	6a4f      	ldr	r7, [r1, #36]	; 0x24
	int32_t b1 = thread_1->base.prio;
    5502:	f993 600e 	ldrsb.w	r6, [r3, #14]
	int32_t b2 = thread_2->base.prio;
    5506:	f992 400e 	ldrsb.w	r4, [r2, #14]
	if (b1 != b2) {
    550a:	42a6      	cmp	r6, r4
    550c:	d00f      	beq.n	552e <z_impl_k_yield+0x66>
		return b2 - b1;
    550e:	1ba4      	subs	r4, r4, r6
		if (z_sched_prio_cmp(thread, t) > 0) {
    5510:	2c00      	cmp	r4, #0
    5512:	dd0c      	ble.n	552e <z_impl_k_yield+0x66>
	sys_dnode_t *const prev = successor->prev;
    5514:	6851      	ldr	r1, [r2, #4]
	node->next = successor;
    5516:	e9c3 2100 	strd	r2, r1, [r3]
	prev->next = node;
    551a:	600b      	str	r3, [r1, #0]
	successor->prev = node;
    551c:	6053      	str	r3, [r2, #4]
	update_cache(1);
    551e:	2001      	movs	r0, #1
    5520:	f7ff fe38 	bl	5194 <update_cache>
    5524:	4628      	mov	r0, r5
	z_swap(&sched_spinlock, key);
}
    5526:	e8bd 40f8 	ldmia.w	sp!, {r3, r4, r5, r6, r7, lr}
    552a:	f7fc bcdf 	b.w	1eec <arch_swap>
	return (node == list->tail) ? NULL : node->next;
    552e:	42ba      	cmp	r2, r7
    5530:	d002      	beq.n	5538 <z_impl_k_yield+0x70>
    5532:	6812      	ldr	r2, [r2, #0]
	SYS_DLIST_FOR_EACH_CONTAINER(pq, t, base.qnode_dlist) {
    5534:	2a00      	cmp	r2, #0
    5536:	d1e6      	bne.n	5506 <z_impl_k_yield+0x3e>
	sys_dnode_t *const tail = list->tail;
    5538:	6a4a      	ldr	r2, [r1, #36]	; 0x24
	node->prev = tail;
    553a:	e9c3 0200 	strd	r0, r2, [r3]
	tail->next = node;
    553e:	6013      	str	r3, [r2, #0]
	list->tail = node;
    5540:	624b      	str	r3, [r1, #36]	; 0x24
}
    5542:	e7ec      	b.n	551e <z_impl_k_yield+0x56>
    5544:	200005fc 	.word	0x200005fc

00005548 <z_tick_sleep>:
	 */
	LOG_DBG("thread %p for %u ticks", _current, ticks);
#endif

	/* wait of 0 ms is treated as a 'yield' */
	if (ticks == 0) {
    5548:	ea50 0301 	orrs.w	r3, r0, r1
{
    554c:	e92d 41f0 	stmdb	sp!, {r4, r5, r6, r7, r8, lr}
    5550:	4605      	mov	r5, r0
    5552:	460e      	mov	r6, r1
	if (ticks == 0) {
    5554:	d103      	bne.n	555e <z_tick_sleep+0x16>
	z_impl_k_yield();
    5556:	f7ff ffb7 	bl	54c8 <z_impl_k_yield>
	if (ticks > 0) {
		return ticks;
	}
#endif

	return 0;
    555a:	2000      	movs	r0, #0
    555c:	e033      	b.n	55c6 <z_tick_sleep+0x7e>
	if (Z_TICK_ABS(ticks) <= 0) {
    555e:	f06f 0401 	mvn.w	r4, #1
    5562:	1a24      	subs	r4, r4, r0
    5564:	f04f 33ff 	mov.w	r3, #4294967295	; 0xffffffff
    5568:	eb63 0301 	sbc.w	r3, r3, r1
    556c:	2c01      	cmp	r4, #1
    556e:	f173 0300 	sbcs.w	r3, r3, #0
    5572:	da02      	bge.n	557a <z_tick_sleep+0x32>
		expected_wakeup_ticks = ticks + sys_clock_tick_get_32();
    5574:	f001 fb8f 	bl	6c96 <sys_clock_tick_get_32>
    5578:	1944      	adds	r4, r0, r5
    557a:	f04f 0320 	mov.w	r3, #32
    557e:	f3ef 8811 	mrs	r8, BASEPRI
    5582:	f383 8812 	msr	BASEPRI_MAX, r3
    5586:	f3bf 8f6f 	isb	sy
	pending_current = _current;
    558a:	4f10      	ldr	r7, [pc, #64]	; (55cc <z_tick_sleep+0x84>)
    558c:	4b10      	ldr	r3, [pc, #64]	; (55d0 <z_tick_sleep+0x88>)
    558e:	68b8      	ldr	r0, [r7, #8]
    5590:	6018      	str	r0, [r3, #0]
	unready_thread(_current);
    5592:	f7ff feed 	bl	5370 <unready_thread>
	z_add_thread_timeout(_current, timeout);
    5596:	68b8      	ldr	r0, [r7, #8]
	z_add_timeout(&thread->base.timeout, z_thread_timeout, ticks);
    5598:	490e      	ldr	r1, [pc, #56]	; (55d4 <z_tick_sleep+0x8c>)
    559a:	462a      	mov	r2, r5
    559c:	4633      	mov	r3, r6
    559e:	3018      	adds	r0, #24
    55a0:	f000 f904 	bl	57ac <z_add_timeout>
	z_mark_thread_as_suspended(_current);
    55a4:	68ba      	ldr	r2, [r7, #8]
    55a6:	7b53      	ldrb	r3, [r2, #13]
    55a8:	f043 0310 	orr.w	r3, r3, #16
    55ac:	7353      	strb	r3, [r2, #13]
    55ae:	4640      	mov	r0, r8
    55b0:	f7fc fc9c 	bl	1eec <arch_swap>
	ticks = (k_ticks_t)expected_wakeup_ticks - sys_clock_tick_get_32();
    55b4:	f001 fb6f 	bl	6c96 <sys_clock_tick_get_32>
    55b8:	1a20      	subs	r0, r4, r0
    55ba:	eb63 0303 	sbc.w	r3, r3, r3
	if (ticks > 0) {
    55be:	2801      	cmp	r0, #1
    55c0:	f173 0300 	sbcs.w	r3, r3, #0
    55c4:	dbc9      	blt.n	555a <z_tick_sleep+0x12>
}
    55c6:	e8bd 81f0 	ldmia.w	sp!, {r4, r5, r6, r7, r8, pc}
    55ca:	bf00      	nop
    55cc:	200005fc 	.word	0x200005fc
    55d0:	2000062c 	.word	0x2000062c
    55d4:	00006b15 	.word	0x00006b15

000055d8 <z_impl_k_sleep>:
	__ASSERT(!arch_is_in_isr(), "");

	SYS_PORT_TRACING_FUNC_ENTER(k_thread, sleep, timeout);

	/* in case of K_FOREVER, we suspend */
	if (K_TIMEOUT_EQ(timeout, K_FOREVER)) {
    55d8:	f1b1 3fff 	cmp.w	r1, #4294967295	; 0xffffffff
    55dc:	bf08      	it	eq
    55de:	f1b0 3fff 	cmpeq.w	r0, #4294967295	; 0xffffffff
{
    55e2:	b508      	push	{r3, lr}
	if (K_TIMEOUT_EQ(timeout, K_FOREVER)) {
    55e4:	d106      	bne.n	55f4 <z_impl_k_sleep+0x1c>
		k_thread_suspend(_current);
    55e6:	4b08      	ldr	r3, [pc, #32]	; (5608 <z_impl_k_sleep+0x30>)
    55e8:	6898      	ldr	r0, [r3, #8]
	z_impl_k_thread_suspend(thread);
    55ea:	f7ff ff13 	bl	5414 <z_impl_k_thread_suspend>

		SYS_PORT_TRACING_FUNC_EXIT(k_thread, sleep, timeout, (int32_t) K_TICKS_FOREVER);

		return (int32_t) K_TICKS_FOREVER;
    55ee:	f04f 30ff 	mov.w	r0, #4294967295	; 0xffffffff
	int32_t ret = k_ticks_to_ms_floor64(ticks);

	SYS_PORT_TRACING_FUNC_EXIT(k_thread, sleep, timeout, ret);

	return ret;
}
    55f2:	bd08      	pop	{r3, pc}
	ticks = z_tick_sleep(ticks);
    55f4:	f7ff ffa8 	bl	5548 <z_tick_sleep>
			return ((t * to_hz + off) / from_hz);
    55f8:	f44f 737a 	mov.w	r3, #1000	; 0x3e8
    55fc:	fb80 0303 	smull	r0, r3, r0, r3
    5600:	0bc0      	lsrs	r0, r0, #15
    5602:	ea40 4043 	orr.w	r0, r0, r3, lsl #17
	return ret;
    5606:	e7f4      	b.n	55f2 <z_impl_k_sleep+0x1a>
    5608:	200005fc 	.word	0x200005fc

0000560c <z_impl_z_current_get>:

#ifdef CONFIG_SMP
	arch_irq_unlock(k);
#endif
	return ret;
}
    560c:	4b01      	ldr	r3, [pc, #4]	; (5614 <z_impl_z_current_get+0x8>)
    560e:	6898      	ldr	r0, [r3, #8]
    5610:	4770      	bx	lr
    5612:	bf00      	nop
    5614:	200005fc 	.word	0x200005fc

00005618 <z_thread_abort>:
#endif
	}
}

void z_thread_abort(struct k_thread *thread)
{
    5618:	e92d 41f0 	stmdb	sp!, {r4, r5, r6, r7, r8, lr}
    561c:	4604      	mov	r4, r0
    561e:	f04f 0320 	mov.w	r3, #32
    5622:	f3ef 8611 	mrs	r6, BASEPRI
    5626:	f383 8812 	msr	BASEPRI_MAX, r3
    562a:	f3bf 8f6f 	isb	sy
	k_spinlock_key_t key = k_spin_lock(&sched_spinlock);

	if ((thread->base.thread_state & _THREAD_DEAD) != 0U) {
    562e:	7b43      	ldrb	r3, [r0, #13]
    5630:	071a      	lsls	r2, r3, #28
    5632:	d505      	bpl.n	5640 <z_thread_abort+0x28>
	__asm__ volatile(
    5634:	f386 8811 	msr	BASEPRI, r6
    5638:	f3bf 8f6f 	isb	sy
	if (thread == _current && !arch_is_in_isr()) {
		z_swap(&sched_spinlock, key);
		__ASSERT(false, "aborted _current back from dead");
	}
	k_spin_unlock(&sched_spinlock, key);
}
    563c:	e8bd 81f0 	ldmia.w	sp!, {r4, r5, r6, r7, r8, pc}
		thread->base.thread_state &= ~_THREAD_ABORTING;
    5640:	f023 0220 	bic.w	r2, r3, #32
    5644:	f042 0108 	orr.w	r1, r2, #8
		if (z_is_thread_queued(thread)) {
    5648:	09d2      	lsrs	r2, r2, #7
    564a:	d120      	bne.n	568e <z_thread_abort+0x76>
		thread->base.thread_state &= ~_THREAD_ABORTING;
    564c:	7341      	strb	r1, [r0, #13]
		if (thread->base.pended_on != NULL) {
    564e:	68a3      	ldr	r3, [r4, #8]
    5650:	b113      	cbz	r3, 5658 <z_thread_abort+0x40>
			unpend_thread_no_timeout(thread);
    5652:	4620      	mov	r0, r4
    5654:	f001 fa28 	bl	6aa8 <unpend_thread_no_timeout>
	return z_abort_timeout(&thread->base.timeout);
    5658:	f104 0018 	add.w	r0, r4, #24
    565c:	f001 fadb 	bl	6c16 <z_abort_timeout>
}

static inline struct k_thread *z_waitq_head(_wait_q_t *w)
{
	return (struct k_thread *)sys_dlist_peek_head(&w->waitq);
    5660:	f104 0758 	add.w	r7, r4, #88	; 0x58
    5664:	f04f 0800 	mov.w	r8, #0
	return list->head == list;
    5668:	6da5      	ldr	r5, [r4, #88]	; 0x58
	return sys_dlist_is_empty(list) ? NULL : list->head;
    566a:	42bd      	cmp	r5, r7
    566c:	d000      	beq.n	5670 <z_thread_abort+0x58>
	while ((thread = z_waitq_head(wait_q)) != NULL) {
    566e:	b9b5      	cbnz	r5, 569e <z_thread_abort+0x86>
		update_cache(1);
    5670:	2001      	movs	r0, #1
    5672:	f7ff fd8f 	bl	5194 <update_cache>
	if (thread == _current && !arch_is_in_isr()) {
    5676:	4b10      	ldr	r3, [pc, #64]	; (56b8 <z_thread_abort+0xa0>)
    5678:	689b      	ldr	r3, [r3, #8]
    567a:	42a3      	cmp	r3, r4
    567c:	d1da      	bne.n	5634 <z_thread_abort+0x1c>
    567e:	f3ef 8305 	mrs	r3, IPSR
    5682:	2b00      	cmp	r3, #0
    5684:	d1d6      	bne.n	5634 <z_thread_abort+0x1c>
    5686:	4630      	mov	r0, r6
    5688:	f7fc fc30 	bl	1eec <arch_swap>
	return ret;
    568c:	e7d2      	b.n	5634 <z_thread_abort+0x1c>
	thread->base.thread_state &= ~_THREAD_QUEUED;
    568e:	f003 035f 	and.w	r3, r3, #95	; 0x5f
    5692:	f043 0308 	orr.w	r3, r3, #8
    5696:	7343      	strb	r3, [r0, #13]
	sys_dlist_remove(&thread->base.qnode_dlist);
    5698:	f001 f9fe 	bl	6a98 <sys_dlist_remove>
}
    569c:	e7d7      	b.n	564e <z_thread_abort+0x36>
		unpend_thread_no_timeout(thread);
    569e:	4628      	mov	r0, r5
    56a0:	f001 fa02 	bl	6aa8 <unpend_thread_no_timeout>
    56a4:	f105 0018 	add.w	r0, r5, #24
    56a8:	f001 fab5 	bl	6c16 <z_abort_timeout>
    56ac:	f8c5 8078 	str.w	r8, [r5, #120]	; 0x78
		ready_thread(thread);
    56b0:	4628      	mov	r0, r5
    56b2:	f7ff fe09 	bl	52c8 <ready_thread>
    56b6:	e7d7      	b.n	5668 <z_thread_abort+0x50>
    56b8:	200005fc 	.word	0x200005fc

000056bc <z_sched_wait>:
	return ret;
}

int z_sched_wait(struct k_spinlock *lock, k_spinlock_key_t key,
		 _wait_q_t *wait_q, k_timeout_t timeout, void **data)
{
    56bc:	b5d3      	push	{r0, r1, r4, r6, r7, lr}
	int ret = z_pend_curr(lock, key, wait_q, timeout);
    56be:	e9dd 6706 	ldrd	r6, r7, [sp, #24]
{
    56c2:	9c08      	ldr	r4, [sp, #32]
	int ret = z_pend_curr(lock, key, wait_q, timeout);
    56c4:	e9cd 6700 	strd	r6, r7, [sp]
    56c8:	f7ff fe90 	bl	53ec <z_pend_curr>

	if (data != NULL) {
    56cc:	b11c      	cbz	r4, 56d6 <z_sched_wait+0x1a>
		*data = _current->base.swap_data;
    56ce:	4b03      	ldr	r3, [pc, #12]	; (56dc <z_sched_wait+0x20>)
    56d0:	689b      	ldr	r3, [r3, #8]
    56d2:	695b      	ldr	r3, [r3, #20]
    56d4:	6023      	str	r3, [r4, #0]
	}
	return ret;
}
    56d6:	b002      	add	sp, #8
    56d8:	bdd0      	pop	{r4, r6, r7, pc}
    56da:	bf00      	nop
    56dc:	200005fc 	.word	0x200005fc

000056e0 <z_data_copy>:
 * @brief Copy the data section from ROM to RAM
 *
 * This routine copies the data section from ROM to RAM.
 */
void z_data_copy(void)
{
    56e0:	b508      	push	{r3, lr}
	(void)memcpy(&__data_region_start, &__data_region_load_start,
		 __data_region_end - __data_region_start);
    56e2:	4806      	ldr	r0, [pc, #24]	; (56fc <z_data_copy+0x1c>)
	(void)memcpy(&__data_region_start, &__data_region_load_start,
    56e4:	4a06      	ldr	r2, [pc, #24]	; (5700 <z_data_copy+0x20>)
    56e6:	4907      	ldr	r1, [pc, #28]	; (5704 <z_data_copy+0x24>)
    56e8:	1a12      	subs	r2, r2, r0
    56ea:	f000 fbc0 	bl	5e6e <memcpy>
#else
	(void)memcpy(&_app_smem_start, &_app_smem_rom_start,
		 _app_smem_end - _app_smem_start);
#endif /* CONFIG_STACK_CANARIES */
#endif /* CONFIG_USERSPACE */
}
    56ee:	e8bd 4008 	ldmia.w	sp!, {r3, lr}
	(void)memcpy(&__ramfunc_start, &__ramfunc_load_start,
    56f2:	4a05      	ldr	r2, [pc, #20]	; (5708 <z_data_copy+0x28>)
    56f4:	4905      	ldr	r1, [pc, #20]	; (570c <z_data_copy+0x2c>)
    56f6:	4806      	ldr	r0, [pc, #24]	; (5710 <z_data_copy+0x30>)
    56f8:	f000 bbb9 	b.w	5e6e <memcpy>
    56fc:	20000000 	.word	0x20000000
    5700:	20000148 	.word	0x20000148
    5704:	000074c4 	.word	0x000074c4
    5708:	00000000 	.word	0x00000000
    570c:	000074c4 	.word	0x000074c4
    5710:	20000000 	.word	0x20000000

00005714 <elapsed>:
	sys_dlist_remove(&t->node);
}

static int32_t elapsed(void)
{
	return announce_remaining == 0 ? sys_clock_elapsed() : 0U;
    5714:	4b03      	ldr	r3, [pc, #12]	; (5724 <elapsed+0x10>)
    5716:	681b      	ldr	r3, [r3, #0]
    5718:	b90b      	cbnz	r3, 571e <elapsed+0xa>
    571a:	f7fe b83d 	b.w	3798 <sys_clock_elapsed>
}
    571e:	2000      	movs	r0, #0
    5720:	4770      	bx	lr
    5722:	bf00      	nop
    5724:	20000638 	.word	0x20000638

00005728 <next_timeout>:
	return list->head == list;
    5728:	4b11      	ldr	r3, [pc, #68]	; (5770 <next_timeout+0x48>)

static int32_t next_timeout(void)
{
    572a:	b510      	push	{r4, lr}
    572c:	681c      	ldr	r4, [r3, #0]
	return sys_dlist_is_empty(list) ? NULL : list->head;
    572e:	429c      	cmp	r4, r3
    5730:	bf08      	it	eq
    5732:	2400      	moveq	r4, #0
	struct _timeout *to = first();
	int32_t ticks_elapsed = elapsed();
    5734:	f7ff ffee 	bl	5714 <elapsed>
    5738:	4603      	mov	r3, r0
	int32_t ret = to == NULL ? MAX_WAIT
    573a:	b16c      	cbz	r4, 5758 <next_timeout+0x30>
		: CLAMP(to->dticks - ticks_elapsed, 0, MAX_WAIT);
    573c:	e9d4 0204 	ldrd	r0, r2, [r4, #16]
    5740:	1ac0      	subs	r0, r0, r3
    5742:	eb62 73e3 	sbc.w	r3, r2, r3, asr #31
	int32_t ret = to == NULL ? MAX_WAIT
    5746:	2801      	cmp	r0, #1
    5748:	f173 0200 	sbcs.w	r2, r3, #0
    574c:	db0d      	blt.n	576a <next_timeout+0x42>
		: CLAMP(to->dticks - ticks_elapsed, 0, MAX_WAIT);
    574e:	f1b0 4f00 	cmp.w	r0, #2147483648	; 0x80000000
    5752:	f173 0300 	sbcs.w	r3, r3, #0
    5756:	db01      	blt.n	575c <next_timeout+0x34>
	int32_t ret = to == NULL ? MAX_WAIT
    5758:	f06f 4000 	mvn.w	r0, #2147483648	; 0x80000000

#ifdef CONFIG_TIMESLICING
	if (_current_cpu->slice_ticks && _current_cpu->slice_ticks < ret) {
    575c:	4b05      	ldr	r3, [pc, #20]	; (5774 <next_timeout+0x4c>)
    575e:	691b      	ldr	r3, [r3, #16]
    5760:	b113      	cbz	r3, 5768 <next_timeout+0x40>
    5762:	4298      	cmp	r0, r3
    5764:	bfa8      	it	ge
    5766:	4618      	movge	r0, r3
		ret = _current_cpu->slice_ticks;
	}
#endif
	return ret;
}
    5768:	bd10      	pop	{r4, pc}
	int32_t ret = to == NULL ? MAX_WAIT
    576a:	2000      	movs	r0, #0
    576c:	e7f6      	b.n	575c <next_timeout+0x34>
    576e:	bf00      	nop
    5770:	20000108 	.word	0x20000108
    5774:	200005fc 	.word	0x200005fc

00005778 <remove_timeout>:
{
    5778:	b530      	push	{r4, r5, lr}
	return (node == list->tail) ? NULL : node->next;
    577a:	6803      	ldr	r3, [r0, #0]
	return (node != NULL) ? sys_dlist_peek_next_no_check(list, node) : NULL;
    577c:	b168      	cbz	r0, 579a <remove_timeout+0x22>
	return (node == list->tail) ? NULL : node->next;
    577e:	4a0a      	ldr	r2, [pc, #40]	; (57a8 <remove_timeout+0x30>)
    5780:	6852      	ldr	r2, [r2, #4]
    5782:	4290      	cmp	r0, r2
    5784:	d009      	beq.n	579a <remove_timeout+0x22>
	if (next(t) != NULL) {
    5786:	b143      	cbz	r3, 579a <remove_timeout+0x22>
		next(t)->dticks += t->dticks;
    5788:	e9d3 2104 	ldrd	r2, r1, [r3, #16]
    578c:	e9d0 4504 	ldrd	r4, r5, [r0, #16]
    5790:	1912      	adds	r2, r2, r4
    5792:	eb41 0105 	adc.w	r1, r1, r5
    5796:	e9c3 2104 	strd	r2, r1, [r3, #16]
 * @param node the node to remove
 */

static inline void sys_dlist_remove(sys_dnode_t *node)
{
	sys_dnode_t *const prev = node->prev;
    579a:	6842      	ldr	r2, [r0, #4]
	sys_dnode_t *const next = node->next;

	prev->next = next;
    579c:	6013      	str	r3, [r2, #0]
	next->prev = prev;
    579e:	605a      	str	r2, [r3, #4]
	node->next = NULL;
    57a0:	2300      	movs	r3, #0
	node->prev = NULL;
    57a2:	e9c0 3300 	strd	r3, r3, [r0]
}
    57a6:	bd30      	pop	{r4, r5, pc}
    57a8:	20000108 	.word	0x20000108

000057ac <z_add_timeout>:

void z_add_timeout(struct _timeout *to, _timeout_func_t fn,
		   k_timeout_t timeout)
{
	if (K_TIMEOUT_EQ(timeout, K_FOREVER)) {
    57ac:	f1b3 3fff 	cmp.w	r3, #4294967295	; 0xffffffff
    57b0:	bf08      	it	eq
    57b2:	f1b2 3fff 	cmpeq.w	r2, #4294967295	; 0xffffffff
{
    57b6:	b5f8      	push	{r3, r4, r5, r6, r7, lr}
    57b8:	4604      	mov	r4, r0
    57ba:	461f      	mov	r7, r3
    57bc:	4615      	mov	r5, r2
	if (K_TIMEOUT_EQ(timeout, K_FOREVER)) {
    57be:	d067      	beq.n	5890 <z_add_timeout+0xe4>
#ifdef CONFIG_KERNEL_COHERENCE
	__ASSERT_NO_MSG(arch_mem_coherent(to));
#endif

	__ASSERT(!sys_dnode_is_linked(&to->node), "");
	to->fn = fn;
    57c0:	6081      	str	r1, [r0, #8]
	__asm__ volatile(
    57c2:	f04f 0320 	mov.w	r3, #32
    57c6:	f3ef 8611 	mrs	r6, BASEPRI
    57ca:	f383 8812 	msr	BASEPRI_MAX, r3
    57ce:	f3bf 8f6f 	isb	sy

	LOCKED(&timeout_lock) {
		struct _timeout *t;

		if (IS_ENABLED(CONFIG_TIMEOUT_64BIT) &&
		    Z_TICK_ABS(timeout.ticks) >= 0) {
    57d2:	f06f 0201 	mvn.w	r2, #1
    57d6:	1b53      	subs	r3, r2, r5
    57d8:	f04f 3cff 	mov.w	ip, #4294967295	; 0xffffffff
    57dc:	eb6c 0307 	sbc.w	r3, ip, r7
		if (IS_ENABLED(CONFIG_TIMEOUT_64BIT) &&
    57e0:	2b00      	cmp	r3, #0
    57e2:	db1b      	blt.n	581c <z_add_timeout+0x70>
			k_ticks_t ticks = Z_TICK_ABS(timeout.ticks) - curr_tick;
    57e4:	4b2b      	ldr	r3, [pc, #172]	; (5894 <z_add_timeout+0xe8>)
    57e6:	e9d3 1300 	ldrd	r1, r3, [r3]
    57ea:	1a52      	subs	r2, r2, r1
    57ec:	eb6c 0303 	sbc.w	r3, ip, r3
    57f0:	1b55      	subs	r5, r2, r5

			to->dticks = MAX(1, ticks);
    57f2:	eb63 0307 	sbc.w	r3, r3, r7
    57f6:	2d01      	cmp	r5, #1
    57f8:	f173 0200 	sbcs.w	r2, r3, #0
    57fc:	bfbc      	itt	lt
    57fe:	2501      	movlt	r5, #1
    5800:	2300      	movlt	r3, #0
    5802:	e9c0 5304 	strd	r5, r3, [r0, #16]
	return list->head == list;
    5806:	4824      	ldr	r0, [pc, #144]	; (5898 <z_add_timeout+0xec>)
	sys_dnode_t *const tail = list->tail;
    5808:	e9d0 3c00 	ldrd	r3, ip, [r0]
	return sys_dlist_is_empty(list) ? NULL : list->head;
    580c:	4283      	cmp	r3, r0
    580e:	d118      	bne.n	5842 <z_add_timeout+0x96>
	node->prev = tail;
    5810:	e9c4 0c00 	strd	r0, ip, [r4]
	tail->next = node;
    5814:	f8cc 4000 	str.w	r4, [ip]
	list->tail = node;
    5818:	6044      	str	r4, [r0, #4]
}
    581a:	e026      	b.n	586a <z_add_timeout+0xbe>
		} else {
			to->dticks = timeout.ticks + 1 + elapsed();
    581c:	f7ff ff7a 	bl	5714 <elapsed>
    5820:	3501      	adds	r5, #1
    5822:	f147 0700 	adc.w	r7, r7, #0
    5826:	182d      	adds	r5, r5, r0
    5828:	eb47 77e0 	adc.w	r7, r7, r0, asr #31
    582c:	e9c4 5704 	strd	r5, r7, [r4, #16]
    5830:	e7e9      	b.n	5806 <z_add_timeout+0x5a>
			if (t->dticks > to->dticks) {
				t->dticks -= to->dticks;
				sys_dlist_insert(&t->node, &to->node);
				break;
			}
			to->dticks -= t->dticks;
    5832:	1a52      	subs	r2, r2, r1
    5834:	eb65 0507 	sbc.w	r5, r5, r7
	return (node == list->tail) ? NULL : node->next;
    5838:	459c      	cmp	ip, r3
    583a:	e9c4 2504 	strd	r2, r5, [r4, #16]
    583e:	d0e7      	beq.n	5810 <z_add_timeout+0x64>
    5840:	681b      	ldr	r3, [r3, #0]
		for (t = first(); t != NULL; t = next(t)) {
    5842:	2b00      	cmp	r3, #0
    5844:	d0e4      	beq.n	5810 <z_add_timeout+0x64>
			if (t->dticks > to->dticks) {
    5846:	e9d3 1704 	ldrd	r1, r7, [r3, #16]
    584a:	e9d4 2504 	ldrd	r2, r5, [r4, #16]
    584e:	428a      	cmp	r2, r1
    5850:	eb75 0e07 	sbcs.w	lr, r5, r7
    5854:	daed      	bge.n	5832 <z_add_timeout+0x86>
				t->dticks -= to->dticks;
    5856:	1a8a      	subs	r2, r1, r2
    5858:	eb67 0505 	sbc.w	r5, r7, r5
    585c:	e9c3 2504 	strd	r2, r5, [r3, #16]
	sys_dnode_t *const prev = successor->prev;
    5860:	685a      	ldr	r2, [r3, #4]
	node->next = successor;
    5862:	e9c4 3200 	strd	r3, r2, [r4]
	prev->next = node;
    5866:	6014      	str	r4, [r2, #0]
	successor->prev = node;
    5868:	605c      	str	r4, [r3, #4]
	return list->head == list;
    586a:	6803      	ldr	r3, [r0, #0]
	return sys_dlist_is_empty(list) ? NULL : list->head;
    586c:	4283      	cmp	r3, r0
    586e:	d00b      	beq.n	5888 <z_add_timeout+0xdc>

		if (t == NULL) {
			sys_dlist_append(&timeout_list, &to->node);
		}

		if (to == first()) {
    5870:	429c      	cmp	r4, r3
    5872:	d109      	bne.n	5888 <z_add_timeout+0xdc>
			 * last announcement, and slice_ticks is based
			 * on that. It means that the time remaining for
			 * the next announcement can be less than
			 * slice_ticks.
			 */
			int32_t next_time = next_timeout();
    5874:	f7ff ff58 	bl	5728 <next_timeout>

			if (next_time == 0 ||
    5878:	b118      	cbz	r0, 5882 <z_add_timeout+0xd6>
			    _current_cpu->slice_ticks != next_time) {
    587a:	4b08      	ldr	r3, [pc, #32]	; (589c <z_add_timeout+0xf0>)
			if (next_time == 0 ||
    587c:	691b      	ldr	r3, [r3, #16]
    587e:	4283      	cmp	r3, r0
    5880:	d002      	beq.n	5888 <z_add_timeout+0xdc>
				sys_clock_set_timeout(next_time, false);
    5882:	2100      	movs	r1, #0
    5884:	f7fd ff56 	bl	3734 <sys_clock_set_timeout>
	__asm__ volatile(
    5888:	f386 8811 	msr	BASEPRI, r6
    588c:	f3bf 8f6f 	isb	sy
#else
			sys_clock_set_timeout(next_timeout(), false);
#endif	/* CONFIG_TIMESLICING */
		}
	}
}
    5890:	bdf8      	pop	{r3, r4, r5, r6, r7, pc}
    5892:	bf00      	nop
    5894:	20000370 	.word	0x20000370
    5898:	20000108 	.word	0x20000108
    589c:	200005fc 	.word	0x200005fc

000058a0 <sys_clock_announce>:
		}
	}
}

void sys_clock_announce(int32_t ticks)
{
    58a0:	e92d 43f8 	stmdb	sp!, {r3, r4, r5, r6, r7, r8, r9, lr}
    58a4:	4605      	mov	r5, r0
#ifdef CONFIG_TIMESLICING
	z_time_slice(ticks);
    58a6:	f7ff fccf 	bl	5248 <z_time_slice>
	__asm__ volatile(
    58aa:	f04f 0320 	mov.w	r3, #32
    58ae:	f3ef 8411 	mrs	r4, BASEPRI
    58b2:	f383 8812 	msr	BASEPRI_MAX, r3
    58b6:	f3bf 8f6f 	isb	sy
#endif

	k_spinlock_key_t key = k_spin_lock(&timeout_lock);

	announce_remaining = ticks;
    58ba:	4e24      	ldr	r6, [pc, #144]	; (594c <sys_clock_announce+0xac>)
	return list->head == list;
    58bc:	f8df 8090 	ldr.w	r8, [pc, #144]	; 5950 <sys_clock_announce+0xb0>
    58c0:	6035      	str	r5, [r6, #0]

	while (first() != NULL && first()->dticks <= announce_remaining) {
		struct _timeout *t = first();
		int dt = t->dticks;

		curr_tick += dt;
    58c2:	4d24      	ldr	r5, [pc, #144]	; (5954 <sys_clock_announce+0xb4>)
    58c4:	f8d8 0000 	ldr.w	r0, [r8]
	while (first() != NULL && first()->dticks <= announce_remaining) {
    58c8:	6832      	ldr	r2, [r6, #0]
	return sys_dlist_is_empty(list) ? NULL : list->head;
    58ca:	4540      	cmp	r0, r8
		curr_tick += dt;
    58cc:	e9d5 1e00 	ldrd	r1, lr, [r5]
    58d0:	ea4f 77e2 	mov.w	r7, r2, asr #31
    58d4:	d00b      	beq.n	58ee <sys_clock_announce+0x4e>
	while (first() != NULL && first()->dticks <= announce_remaining) {
    58d6:	b150      	cbz	r0, 58ee <sys_clock_announce+0x4e>
    58d8:	e9d0 3c04 	ldrd	r3, ip, [r0, #16]
    58dc:	429a      	cmp	r2, r3
    58de:	eb77 090c 	sbcs.w	r9, r7, ip
    58e2:	da16      	bge.n	5912 <sys_clock_announce+0x72>
		t->fn(t);
		key = k_spin_lock(&timeout_lock);
	}

	if (first() != NULL) {
		first()->dticks -= announce_remaining;
    58e4:	1a9b      	subs	r3, r3, r2
    58e6:	eb6c 0c07 	sbc.w	ip, ip, r7
    58ea:	e9c0 3c04 	strd	r3, ip, [r0, #16]
	}

	curr_tick += announce_remaining;
    58ee:	1852      	adds	r2, r2, r1
    58f0:	eb4e 0707 	adc.w	r7, lr, r7
    58f4:	e9c5 2700 	strd	r2, r7, [r5]
	announce_remaining = 0;
    58f8:	2500      	movs	r5, #0
    58fa:	6035      	str	r5, [r6, #0]

	sys_clock_set_timeout(next_timeout(), false);
    58fc:	f7ff ff14 	bl	5728 <next_timeout>
    5900:	4629      	mov	r1, r5
    5902:	f7fd ff17 	bl	3734 <sys_clock_set_timeout>
	__asm__ volatile(
    5906:	f384 8811 	msr	BASEPRI, r4
    590a:	f3bf 8f6f 	isb	sy

	k_spin_unlock(&timeout_lock, key);
}
    590e:	e8bd 83f8 	ldmia.w	sp!, {r3, r4, r5, r6, r7, r8, r9, pc}
		curr_tick += dt;
    5912:	1859      	adds	r1, r3, r1
    5914:	eb4e 77e3 	adc.w	r7, lr, r3, asr #31
		announce_remaining -= dt;
    5918:	1ad3      	subs	r3, r2, r3
    591a:	6033      	str	r3, [r6, #0]
		t->dticks = 0;
    591c:	2200      	movs	r2, #0
    591e:	2300      	movs	r3, #0
    5920:	e9c0 2304 	strd	r2, r3, [r0, #16]
		curr_tick += dt;
    5924:	e9c5 1700 	strd	r1, r7, [r5]
		remove_timeout(t);
    5928:	f7ff ff26 	bl	5778 <remove_timeout>
    592c:	f384 8811 	msr	BASEPRI, r4
    5930:	f3bf 8f6f 	isb	sy
		t->fn(t);
    5934:	6883      	ldr	r3, [r0, #8]
    5936:	4798      	blx	r3
	__asm__ volatile(
    5938:	f04f 0320 	mov.w	r3, #32
    593c:	f3ef 8411 	mrs	r4, BASEPRI
    5940:	f383 8812 	msr	BASEPRI_MAX, r3
    5944:	f3bf 8f6f 	isb	sy
#endif

#ifdef CONFIG_SPIN_VALIDATE
	z_spin_lock_set_owner(l);
#endif
	return k;
    5948:	e7bc      	b.n	58c4 <sys_clock_announce+0x24>
    594a:	bf00      	nop
    594c:	20000638 	.word	0x20000638
    5950:	20000108 	.word	0x20000108
    5954:	20000370 	.word	0x20000370

00005958 <sys_clock_tick_get>:

int64_t sys_clock_tick_get(void)
{
    5958:	b510      	push	{r4, lr}
    595a:	f04f 0320 	mov.w	r3, #32
    595e:	f3ef 8411 	mrs	r4, BASEPRI
    5962:	f383 8812 	msr	BASEPRI_MAX, r3
    5966:	f3bf 8f6f 	isb	sy
	uint64_t t = 0U;

	LOCKED(&timeout_lock) {
		t = curr_tick + sys_clock_elapsed();
    596a:	f7fd ff15 	bl	3798 <sys_clock_elapsed>
    596e:	4a05      	ldr	r2, [pc, #20]	; (5984 <sys_clock_tick_get+0x2c>)
    5970:	e9d2 3100 	ldrd	r3, r1, [r2]
    5974:	18c0      	adds	r0, r0, r3
    5976:	f141 0100 	adc.w	r1, r1, #0
	__asm__ volatile(
    597a:	f384 8811 	msr	BASEPRI, r4
    597e:	f3bf 8f6f 	isb	sy
	}
	return t;
}
    5982:	bd10      	pop	{r4, pc}
    5984:	20000370 	.word	0x20000370

00005988 <boot_banner>:
		k_busy_wait(CONFIG_BOOT_DELAY * USEC_PER_MSEC);
	}

#if defined(CONFIG_BOOT_BANNER)
#ifdef BUILD_VERSION
	printk("*** Booting Zephyr OS build %s %s ***\n",
    5988:	4a02      	ldr	r2, [pc, #8]	; (5994 <boot_banner+0xc>)
    598a:	4903      	ldr	r1, [pc, #12]	; (5998 <boot_banner+0x10>)
    598c:	4803      	ldr	r0, [pc, #12]	; (599c <boot_banner+0x14>)
    598e:	f000 b842 	b.w	5a16 <printk>
    5992:	bf00      	nop
    5994:	000073a6 	.word	0x000073a6
    5998:	00007475 	.word	0x00007475
    599c:	00007491 	.word	0x00007491

000059a0 <k_sys_work_q_init>:
			     CONFIG_SYSTEM_WORKQUEUE_STACK_SIZE);

struct k_work_q k_sys_work_q;

static int k_sys_work_q_init(const struct device *dev)
{
    59a0:	b51f      	push	{r0, r1, r2, r3, r4, lr}
	ARG_UNUSED(dev);
	struct k_work_queue_config cfg = {
    59a2:	4b09      	ldr	r3, [pc, #36]	; (59c8 <k_sys_work_q_init+0x28>)
    59a4:	9302      	str	r3, [sp, #8]
		.name = "sysworkq",
		.no_yield = IS_ENABLED(CONFIG_SYSTEM_WORKQUEUE_NO_YIELD),
	};

	k_work_queue_start(&k_sys_work_q,
    59a6:	ab02      	add	r3, sp, #8
	struct k_work_queue_config cfg = {
    59a8:	2400      	movs	r4, #0
	k_work_queue_start(&k_sys_work_q,
    59aa:	9300      	str	r3, [sp, #0]
    59ac:	4907      	ldr	r1, [pc, #28]	; (59cc <k_sys_work_q_init+0x2c>)
    59ae:	4808      	ldr	r0, [pc, #32]	; (59d0 <k_sys_work_q_init+0x30>)
	struct k_work_queue_config cfg = {
    59b0:	f88d 400c 	strb.w	r4, [sp, #12]
	k_work_queue_start(&k_sys_work_q,
    59b4:	f04f 33ff 	mov.w	r3, #4294967295	; 0xffffffff
    59b8:	f44f 6280 	mov.w	r2, #1024	; 0x400
    59bc:	f7ff fb16 	bl	4fec <k_work_queue_start>
			    sys_work_q_stack,
			    K_KERNEL_STACK_SIZEOF(sys_work_q_stack),
			    CONFIG_SYSTEM_WORKQUEUE_PRIORITY, &cfg);
	return 0;
}
    59c0:	4620      	mov	r0, r4
    59c2:	b004      	add	sp, #16
    59c4:	bd10      	pop	{r4, pc}
    59c6:	bf00      	nop
    59c8:	000074b8 	.word	0x000074b8
    59cc:	20001840 	.word	0x20001840
    59d0:	20000378 	.word	0x20000378

000059d4 <_OffsetAbsSyms>:

#include <gen_offset.h>

#include "offsets_aarch32.c"

GEN_ABS_SYM_END
    59d4:	4770      	bx	lr

000059d6 <sys_notify_validate>:

int sys_notify_validate(struct sys_notify *notify)
{
	int rv = 0;

	if (notify == NULL) {
    59d6:	4603      	mov	r3, r0
    59d8:	b158      	cbz	r0, 59f2 <sys_notify_validate+0x1c>
	uint32_t method = notify->flags >> SYS_NOTIFY_METHOD_POS;
    59da:	6842      	ldr	r2, [r0, #4]
	return method & SYS_NOTIFY_METHOD_MASK;
    59dc:	f002 0203 	and.w	r2, r2, #3
		return -EINVAL;
	}

	/* Validate configuration based on mode */
	switch (sys_notify_get_method(notify)) {
    59e0:	2a01      	cmp	r2, #1
    59e2:	d003      	beq.n	59ec <sys_notify_validate+0x16>
    59e4:	2a03      	cmp	r2, #3
    59e6:	d104      	bne.n	59f2 <sys_notify_validate+0x1c>
	case SYS_NOTIFY_METHOD_SPINWAIT:
		break;
	case SYS_NOTIFY_METHOD_CALLBACK:
		if (notify->method.callback == NULL) {
    59e8:	6802      	ldr	r2, [r0, #0]
    59ea:	b112      	cbz	r2, 59f2 <sys_notify_validate+0x1c>
		break;
	}

	/* Clear the result here instead of in all callers. */
	if (rv == 0) {
		notify->result = 0;
    59ec:	2000      	movs	r0, #0
    59ee:	6098      	str	r0, [r3, #8]
    59f0:	4770      	bx	lr
		return -EINVAL;
    59f2:	f06f 0015 	mvn.w	r0, #21
	}

	return rv;
}
    59f6:	4770      	bx	lr

000059f8 <sys_notify_finalize>:
	uint32_t method = notify->flags >> SYS_NOTIFY_METHOD_POS;
    59f8:	6842      	ldr	r2, [r0, #4]
	uint32_t method = sys_notify_get_method(notify);

	/* Store the result and capture secondary notification
	 * information.
	 */
	notify->result = res;
    59fa:	6081      	str	r1, [r0, #8]
	return method & SYS_NOTIFY_METHOD_MASK;
    59fc:	f002 0203 	and.w	r2, r2, #3
	switch (method) {
    5a00:	2a03      	cmp	r2, #3
    5a02:	f04f 0200 	mov.w	r2, #0
{
    5a06:	4603      	mov	r3, r0
	case SYS_NOTIFY_METHOD_SPINWAIT:
		break;
	case SYS_NOTIFY_METHOD_CALLBACK:
		rv = notify->method.callback;
    5a08:	bf0c      	ite	eq
    5a0a:	6800      	ldreq	r0, [r0, #0]
	sys_notify_generic_callback rv = NULL;
    5a0c:	4610      	movne	r0, r2
	/* Mark completion by clearing the flags field to the
	 * completed state, releasing any spin-waiters, then complete
	 * secondary notification.
	 */
	compiler_barrier();
	notify->flags = SYS_NOTIFY_METHOD_COMPLETED;
    5a0e:	605a      	str	r2, [r3, #4]
	if (IS_ENABLED(CONFIG_POLL) && (sig != NULL)) {
		k_poll_signal_raise(sig, res);
	}

	return rv;
}
    5a10:	4770      	bx	lr

00005a12 <arch_printk_char_out>:
}
    5a12:	2000      	movs	r0, #0
    5a14:	4770      	bx	lr

00005a16 <printk>:
 *
 * @param fmt formatted string to output
 */

void printk(const char *fmt, ...)
{
    5a16:	b40f      	push	{r0, r1, r2, r3}
    5a18:	b507      	push	{r0, r1, r2, lr}
    5a1a:	a904      	add	r1, sp, #16
    5a1c:	f851 0b04 	ldr.w	r0, [r1], #4
	va_list ap;

	va_start(ap, fmt);
    5a20:	9101      	str	r1, [sp, #4]

	vprintk(fmt, ap);
    5a22:	f7fb f90f 	bl	c44 <vprintk>

	va_end(ap);
}
    5a26:	b003      	add	sp, #12
    5a28:	f85d eb04 	ldr.w	lr, [sp], #4
    5a2c:	b004      	add	sp, #16
    5a2e:	4770      	bx	lr

00005a30 <process_recheck>:
	uint32_t state = mgr->flags & ONOFF_STATE_MASK;
    5a30:	8b03      	ldrh	r3, [r0, #24]
	if ((state == ONOFF_STATE_OFF)
    5a32:	f013 0307 	ands.w	r3, r3, #7
    5a36:	d105      	bne.n	5a44 <process_recheck+0x14>
	    && !sys_slist_is_empty(&mgr->clients)) {
    5a38:	6803      	ldr	r3, [r0, #0]
		evt = EVT_START;
    5a3a:	2b00      	cmp	r3, #0
    5a3c:	bf0c      	ite	eq
    5a3e:	2000      	moveq	r0, #0
    5a40:	2003      	movne	r0, #3
    5a42:	4770      	bx	lr
	} else if ((state == ONOFF_STATE_ON)
    5a44:	2b02      	cmp	r3, #2
    5a46:	d105      	bne.n	5a54 <process_recheck+0x24>
		   && (mgr->refs == 0U)) {
    5a48:	8b43      	ldrh	r3, [r0, #26]
		evt = EVT_STOP;
    5a4a:	2b00      	cmp	r3, #0
    5a4c:	bf14      	ite	ne
    5a4e:	2000      	movne	r0, #0
    5a50:	2004      	moveq	r0, #4
    5a52:	4770      	bx	lr
	} else if ((state == ONOFF_STATE_ERROR)
    5a54:	2b01      	cmp	r3, #1
    5a56:	d105      	bne.n	5a64 <process_recheck+0x34>
		   && !sys_slist_is_empty(&mgr->clients)) {
    5a58:	6803      	ldr	r3, [r0, #0]
		evt = EVT_RESET;
    5a5a:	2b00      	cmp	r3, #0
    5a5c:	bf0c      	ite	eq
    5a5e:	2000      	moveq	r0, #0
    5a60:	2005      	movne	r0, #5
    5a62:	4770      	bx	lr
	int evt = EVT_NOP;
    5a64:	2000      	movs	r0, #0
}
    5a66:	4770      	bx	lr

00005a68 <notify_one>:
{
    5a68:	e92d 41f0 	stmdb	sp!, {r4, r5, r6, r7, r8, lr}
    5a6c:	460d      	mov	r5, r1
    5a6e:	4607      	mov	r7, r0
		(onoff_client_callback)sys_notify_finalize(&cli->notify, res);
    5a70:	4619      	mov	r1, r3
    5a72:	1d28      	adds	r0, r5, #4
{
    5a74:	4690      	mov	r8, r2
    5a76:	461e      	mov	r6, r3
		(onoff_client_callback)sys_notify_finalize(&cli->notify, res);
    5a78:	f7ff ffbe 	bl	59f8 <sys_notify_finalize>
	if (cb) {
    5a7c:	4604      	mov	r4, r0
    5a7e:	b138      	cbz	r0, 5a90 <notify_one+0x28>
		cb(mgr, cli, state, res);
    5a80:	4633      	mov	r3, r6
    5a82:	4642      	mov	r2, r8
    5a84:	4629      	mov	r1, r5
    5a86:	4638      	mov	r0, r7
    5a88:	46a4      	mov	ip, r4
}
    5a8a:	e8bd 41f0 	ldmia.w	sp!, {r4, r5, r6, r7, r8, lr}
		cb(mgr, cli, state, res);
    5a8e:	4760      	bx	ip
}
    5a90:	e8bd 81f0 	ldmia.w	sp!, {r4, r5, r6, r7, r8, pc}

00005a94 <transition_complete>:
{
    5a94:	b410      	push	{r4}
	__asm__ volatile(
    5a96:	f04f 0420 	mov.w	r4, #32
    5a9a:	f3ef 8211 	mrs	r2, BASEPRI
    5a9e:	f384 8812 	msr	BASEPRI_MAX, r4
    5aa2:	f3bf 8f6f 	isb	sy
	mgr->last_res = res;
    5aa6:	6141      	str	r1, [r0, #20]
}
    5aa8:	bc10      	pop	{r4}
	process_event(mgr, EVT_COMPLETE, key);
    5aaa:	2101      	movs	r1, #1
    5aac:	f7fb b8d8 	b.w	c60 <process_event>

00005ab0 <validate_args>:
{
    5ab0:	b510      	push	{r4, lr}
    5ab2:	460c      	mov	r4, r1
	if ((mgr == NULL) || (cli == NULL)) {
    5ab4:	b140      	cbz	r0, 5ac8 <validate_args+0x18>
    5ab6:	b139      	cbz	r1, 5ac8 <validate_args+0x18>
	int rv = sys_notify_validate(&cli->notify);
    5ab8:	1d08      	adds	r0, r1, #4
    5aba:	f7ff ff8c 	bl	59d6 <sys_notify_validate>
	if ((rv == 0)
    5abe:	b928      	cbnz	r0, 5acc <validate_args+0x1c>
	    && ((cli->notify.flags
    5ac0:	68a3      	ldr	r3, [r4, #8]
    5ac2:	f033 0303 	bics.w	r3, r3, #3
    5ac6:	d001      	beq.n	5acc <validate_args+0x1c>
		rv = -EINVAL;
    5ac8:	f06f 0015 	mvn.w	r0, #21
}
    5acc:	bd10      	pop	{r4, pc}

00005ace <onoff_manager_init>:
{
    5ace:	b538      	push	{r3, r4, r5, lr}
    5ad0:	460c      	mov	r4, r1
	if ((mgr == NULL)
    5ad2:	4605      	mov	r5, r0
    5ad4:	b158      	cbz	r0, 5aee <onoff_manager_init+0x20>
	    || (transitions == NULL)
    5ad6:	b151      	cbz	r1, 5aee <onoff_manager_init+0x20>
	    || (transitions->start == NULL)
    5ad8:	680b      	ldr	r3, [r1, #0]
    5ada:	b143      	cbz	r3, 5aee <onoff_manager_init+0x20>
	    || (transitions->stop == NULL)) {
    5adc:	684b      	ldr	r3, [r1, #4]
    5ade:	b133      	cbz	r3, 5aee <onoff_manager_init+0x20>
	*mgr = (struct onoff_manager)ONOFF_MANAGER_INITIALIZER(transitions);
    5ae0:	221c      	movs	r2, #28
    5ae2:	2100      	movs	r1, #0
    5ae4:	f000 f9ce 	bl	5e84 <memset>
    5ae8:	612c      	str	r4, [r5, #16]
	return 0;
    5aea:	2000      	movs	r0, #0
}
    5aec:	bd38      	pop	{r3, r4, r5, pc}
		return -EINVAL;
    5aee:	f06f 0015 	mvn.w	r0, #21
    5af2:	e7fb      	b.n	5aec <onoff_manager_init+0x1e>

00005af4 <onoff_request>:

int onoff_request(struct onoff_manager *mgr,
		  struct onoff_client *cli)
{
    5af4:	b570      	push	{r4, r5, r6, lr}
    5af6:	4604      	mov	r4, r0
    5af8:	460e      	mov	r6, r1
	bool add_client = false;        /* add client to pending list */
	bool start = false;             /* trigger a start transition */
	bool notify = false;            /* do client notification */
	int rv = validate_args(mgr, cli);
    5afa:	f7ff ffd9 	bl	5ab0 <validate_args>

	if (rv < 0) {
    5afe:	1e05      	subs	r5, r0, #0
    5b00:	db31      	blt.n	5b66 <onoff_request+0x72>
    5b02:	f04f 0320 	mov.w	r3, #32
    5b06:	f3ef 8111 	mrs	r1, BASEPRI
    5b0a:	f383 8812 	msr	BASEPRI_MAX, r3
    5b0e:	f3bf 8f6f 	isb	sy

	k_spinlock_key_t key = k_spin_lock(&mgr->lock);
	uint32_t state = mgr->flags & ONOFF_STATE_MASK;

	/* Reject if this would overflow the reference count. */
	if (mgr->refs == SERVICE_REFS_MAX) {
    5b12:	8b63      	ldrh	r3, [r4, #26]
	uint32_t state = mgr->flags & ONOFF_STATE_MASK;
    5b14:	8b20      	ldrh	r0, [r4, #24]
	if (mgr->refs == SERVICE_REFS_MAX) {
    5b16:	f64f 75ff 	movw	r5, #65535	; 0xffff
    5b1a:	42ab      	cmp	r3, r5
    5b1c:	f000 0207 	and.w	r2, r0, #7
    5b20:	d02e      	beq.n	5b80 <onoff_request+0x8c>
		rv = -EAGAIN;
		goto out;
	}

	rv = state;
	if (state == ONOFF_STATE_ON) {
    5b22:	2a02      	cmp	r2, #2
    5b24:	d10e      	bne.n	5b44 <onoff_request+0x50>
		/* Increment reference count, notify in exit */
		notify = true;
		mgr->refs += 1U;
    5b26:	3301      	adds	r3, #1
    5b28:	8363      	strh	r3, [r4, #26]
	rv = state;
    5b2a:	4615      	mov	r5, r2
		notify = true;
    5b2c:	2301      	movs	r3, #1
	__asm__ volatile(
    5b2e:	f381 8811 	msr	BASEPRI, r1
    5b32:	f3bf 8f6f 	isb	sy
	if (start) {
		process_event(mgr, EVT_RECHECK, key);
	} else {
		k_spin_unlock(&mgr->lock, key);

		if (notify) {
    5b36:	b1b3      	cbz	r3, 5b66 <onoff_request+0x72>
			notify_one(mgr, cli, state, 0);
    5b38:	2300      	movs	r3, #0
    5b3a:	4631      	mov	r1, r6
    5b3c:	4620      	mov	r0, r4
    5b3e:	f7ff ff93 	bl	5a68 <notify_one>
    5b42:	e010      	b.n	5b66 <onoff_request+0x72>
	} else if ((state == ONOFF_STATE_OFF)
    5b44:	0783      	lsls	r3, r0, #30
    5b46:	d001      	beq.n	5b4c <onoff_request+0x58>
		   || (state == ONOFF_STATE_TO_ON)) {
    5b48:	2a06      	cmp	r2, #6
    5b4a:	d10e      	bne.n	5b6a <onoff_request+0x76>
	parent->next = child;
    5b4c:	2300      	movs	r3, #0
    5b4e:	6033      	str	r3, [r6, #0]
	return list->tail;
    5b50:	6863      	ldr	r3, [r4, #4]
Z_GENLIST_APPEND(slist, snode)
    5b52:	b993      	cbnz	r3, 5b7a <onoff_request+0x86>
	list->head = node;
    5b54:	e9c4 6600 	strd	r6, r6, [r4]
	if (start) {
    5b58:	4615      	mov	r5, r2
    5b5a:	b962      	cbnz	r2, 5b76 <onoff_request+0x82>
		process_event(mgr, EVT_RECHECK, key);
    5b5c:	460a      	mov	r2, r1
    5b5e:	4620      	mov	r0, r4
    5b60:	2102      	movs	r1, #2
    5b62:	f7fb f87d 	bl	c60 <process_event>
		}
	}

	return rv;
}
    5b66:	4628      	mov	r0, r5
    5b68:	bd70      	pop	{r4, r5, r6, pc}
		rv = -EIO;
    5b6a:	2a05      	cmp	r2, #5
    5b6c:	bf0c      	ite	eq
    5b6e:	f06f 0585 	mvneq.w	r5, #133	; 0x85
    5b72:	f06f 0504 	mvnne.w	r5, #4
    5b76:	2300      	movs	r3, #0
    5b78:	e7d9      	b.n	5b2e <onoff_request+0x3a>
	parent->next = child;
    5b7a:	601e      	str	r6, [r3, #0]
	list->tail = node;
    5b7c:	6066      	str	r6, [r4, #4]
}
    5b7e:	e7eb      	b.n	5b58 <onoff_request+0x64>
		rv = -EAGAIN;
    5b80:	f06f 050a 	mvn.w	r5, #10
    5b84:	e7f7      	b.n	5b76 <onoff_request+0x82>

00005b86 <onoff_release>:

int onoff_release(struct onoff_manager *mgr)
{
    5b86:	b510      	push	{r4, lr}
	__asm__ volatile(
    5b88:	f04f 0320 	mov.w	r3, #32
    5b8c:	f3ef 8211 	mrs	r2, BASEPRI
    5b90:	f383 8812 	msr	BASEPRI_MAX, r3
    5b94:	f3bf 8f6f 	isb	sy
	bool stop = false;      /* trigger a stop transition */

	k_spinlock_key_t key = k_spin_lock(&mgr->lock);
	uint32_t state = mgr->flags & ONOFF_STATE_MASK;
    5b98:	8b04      	ldrh	r4, [r0, #24]
    5b9a:	f004 0407 	and.w	r4, r4, #7
	int rv = state;

	if (state != ONOFF_STATE_ON) {
    5b9e:	2c02      	cmp	r4, #2
    5ba0:	d00a      	beq.n	5bb8 <onoff_release+0x32>
		if (state == ONOFF_STATE_ERROR) {
			rv = -EIO;
		} else {
			rv = -ENOTSUP;
    5ba2:	2c01      	cmp	r4, #1
    5ba4:	bf0c      	ite	eq
    5ba6:	f06f 0004 	mvneq.w	r0, #4
    5baa:	f06f 0085 	mvnne.w	r0, #133	; 0x85
	__asm__ volatile(
    5bae:	f382 8811 	msr	BASEPRI, r2
    5bb2:	f3bf 8f6f 	isb	sy
		process_event(mgr, EVT_RECHECK, key);
	} else {
		k_spin_unlock(&mgr->lock, key);
	}

	return rv;
    5bb6:	e008      	b.n	5bca <onoff_release+0x44>
	mgr->refs -= 1U;
    5bb8:	8b43      	ldrh	r3, [r0, #26]
    5bba:	3b01      	subs	r3, #1
    5bbc:	b29b      	uxth	r3, r3
    5bbe:	8343      	strh	r3, [r0, #26]
	if (stop) {
    5bc0:	b923      	cbnz	r3, 5bcc <onoff_release+0x46>
		process_event(mgr, EVT_RECHECK, key);
    5bc2:	4621      	mov	r1, r4
    5bc4:	f7fb f84c 	bl	c60 <process_event>
	int rv = state;
    5bc8:	4620      	mov	r0, r4
}
    5bca:	bd10      	pop	{r4, pc}
	int rv = state;
    5bcc:	4620      	mov	r0, r4
    5bce:	e7ee      	b.n	5bae <onoff_release+0x28>

00005bd0 <onoff_sync_lock>:
	__asm__ volatile(
    5bd0:	f04f 0220 	mov.w	r2, #32
    5bd4:	f3ef 8311 	mrs	r3, BASEPRI
    5bd8:	f382 8812 	msr	BASEPRI_MAX, r2
    5bdc:	f3bf 8f6f 	isb	sy
int onoff_sync_lock(struct onoff_sync_service *srv,
		    k_spinlock_key_t *keyp)
{
	*keyp = k_spin_lock(&srv->lock);
	return srv->count;
}
    5be0:	6800      	ldr	r0, [r0, #0]
	*keyp = k_spin_lock(&srv->lock);
    5be2:	600b      	str	r3, [r1, #0]
}
    5be4:	4770      	bx	lr

00005be6 <onoff_sync_finalize>:
int onoff_sync_finalize(struct onoff_sync_service *srv,
			k_spinlock_key_t key,
			struct onoff_client *cli,
			int res,
			bool on)
{
    5be6:	b538      	push	{r3, r4, r5, lr}

	/* Clear errors visible when locked.  If they are to be
	 * preserved the caller must finalize with the previous
	 * error code.
	 */
	if (srv->count < 0) {
    5be8:	6804      	ldr	r4, [r0, #0]
    5bea:	2c00      	cmp	r4, #0
		srv->count = 0;
    5bec:	bfbc      	itt	lt
    5bee:	2400      	movlt	r4, #0
    5bf0:	6004      	strlt	r4, [r0, #0]
	}
	if (res < 0) {
    5bf2:	2b00      	cmp	r3, #0
{
    5bf4:	460d      	mov	r5, r1
    5bf6:	4611      	mov	r1, r2
    5bf8:	f89d 2010 	ldrb.w	r2, [sp, #16]
	if (res < 0) {
    5bfc:	da0c      	bge.n	5c18 <onoff_sync_finalize+0x32>
		srv->count = res;
    5bfe:	6003      	str	r3, [r0, #0]
		state = ONOFF_STATE_ERROR;
    5c00:	2201      	movs	r2, #1
		 * callbacks are used only when turning on don't
		 * bother changing it.
		 */
	}

	int rv = srv->count;
    5c02:	6804      	ldr	r4, [r0, #0]
	__asm__ volatile(
    5c04:	f385 8811 	msr	BASEPRI, r5
    5c08:	f3bf 8f6f 	isb	sy

	k_spin_unlock(&srv->lock, key);

	if (cli) {
    5c0c:	b111      	cbz	r1, 5c14 <onoff_sync_finalize+0x2e>
		/* Detect service mis-use: onoff does not callback on transition
		 * to off, so no client should have been passed.
		 */
		__ASSERT_NO_MSG(on);
		notify_one(NULL, cli, state, res);
    5c0e:	2000      	movs	r0, #0
    5c10:	f7ff ff2a 	bl	5a68 <notify_one>
	}

	return rv;
}
    5c14:	4620      	mov	r0, r4
    5c16:	bd38      	pop	{r3, r4, r5, pc}
		srv->count += 1;
    5c18:	6804      	ldr	r4, [r0, #0]
	} else if (on) {
    5c1a:	b11a      	cbz	r2, 5c24 <onoff_sync_finalize+0x3e>
		srv->count += 1;
    5c1c:	3401      	adds	r4, #1
		srv->count -= 1;
    5c1e:	6004      	str	r4, [r0, #0]
	uint32_t state = ONOFF_STATE_ON;
    5c20:	2202      	movs	r2, #2
    5c22:	e7ee      	b.n	5c02 <onoff_sync_finalize+0x1c>
		srv->count -= 1;
    5c24:	3c01      	subs	r4, #1
    5c26:	e7fa      	b.n	5c1e <onoff_sync_finalize+0x38>

00005c28 <z_thread_entry>:
 * This routine does not return, and is marked as such so the compiler won't
 * generate preamble code that is only used by functions that actually return.
 */
FUNC_NORETURN void z_thread_entry(k_thread_entry_t entry,
				 void *p1, void *p2, void *p3)
{
    5c28:	4604      	mov	r4, r0
    5c2a:	b508      	push	{r3, lr}
    5c2c:	4608      	mov	r0, r1
    5c2e:	4611      	mov	r1, r2
#ifdef CONFIG_THREAD_LOCAL_STORAGE
	z_tls_current = z_current_get();
#endif
	entry(p1, p2, p3);
    5c30:	461a      	mov	r2, r3
    5c32:	47a0      	blx	r4
	return z_impl_z_current_get();
    5c34:	f7ff fcea 	bl	560c <z_impl_z_current_get>
	z_impl_k_thread_abort(thread);
    5c38:	f7fc fb40 	bl	22bc <z_impl_k_thread_abort>

00005c3c <_ldiv5>:
	uint32_t v_lo = *v;
    5c3c:	e9d0 2100 	ldrd	r2, r1, [r0]
{
    5c40:	b530      	push	{r4, r5, lr}
	__asm__ ("" : "+r" (m));
    5c42:	f04f 3333 	mov.w	r3, #858993459	; 0x33333333
	result += (uint64_t)v_lo * m;
    5c46:	fba2 2403 	umull	r2, r4, r2, r3
    5c4a:	18d5      	adds	r5, r2, r3
    5c4c:	eb43 0504 	adc.w	r5, r3, r4
	result += (uint64_t)v_hi * m;
    5c50:	fba1 1303 	umull	r1, r3, r1, r3
    5c54:	1852      	adds	r2, r2, r1
    5c56:	eb44 0403 	adc.w	r4, r4, r3
    5c5a:	1952      	adds	r2, r2, r5
    5c5c:	f144 0200 	adc.w	r2, r4, #0
	result += (uint64_t)v_hi * m;
    5c60:	1889      	adds	r1, r1, r2
    5c62:	f143 0300 	adc.w	r3, r3, #0
	*v = result;
    5c66:	e9c0 1300 	strd	r1, r3, [r0]
}
    5c6a:	bd30      	pop	{r4, r5, pc}

00005c6c <_get_digit>:
	if (*digit_count > 0) {
    5c6c:	680a      	ldr	r2, [r1, #0]
    5c6e:	2a00      	cmp	r2, #0
{
    5c70:	b510      	push	{r4, lr}
    5c72:	4603      	mov	r3, r0
	if (*digit_count > 0) {
    5c74:	dd0f      	ble.n	5c96 <_get_digit+0x2a>
		--*digit_count;
    5c76:	3a01      	subs	r2, #1
    5c78:	600a      	str	r2, [r1, #0]
		*fr *= 10U;
    5c7a:	681a      	ldr	r2, [r3, #0]
    5c7c:	6844      	ldr	r4, [r0, #4]
    5c7e:	200a      	movs	r0, #10
    5c80:	fba2 1200 	umull	r1, r2, r2, r0
    5c84:	fb00 2204 	mla	r2, r0, r4, r2
		rval = ((*fr >> 60) & 0xF) + '0';
    5c88:	0f10      	lsrs	r0, r2, #28
		*fr &= (BIT64(60) - 1U);
    5c8a:	f022 4270 	bic.w	r2, r2, #4026531840	; 0xf0000000
    5c8e:	e9c3 1200 	strd	r1, r2, [r3]
		rval = ((*fr >> 60) & 0xF) + '0';
    5c92:	3030      	adds	r0, #48	; 0x30
}
    5c94:	bd10      	pop	{r4, pc}
		rval = '0';
    5c96:	2030      	movs	r0, #48	; 0x30
    5c98:	e7fc      	b.n	5c94 <_get_digit+0x28>

00005c9a <encode_uint>:
{
    5c9a:	e92d 4ff8 	stmdb	sp!, {r3, r4, r5, r6, r7, r8, r9, sl, fp, lr}
    5c9e:	469a      	mov	sl, r3
	bool upcase = isupper((int)conv->specifier);
    5ca0:	78d3      	ldrb	r3, [r2, #3]
	switch (specifier) {
    5ca2:	2b6f      	cmp	r3, #111	; 0x6f
{
    5ca4:	4680      	mov	r8, r0
    5ca6:	460f      	mov	r7, r1
    5ca8:	4615      	mov	r5, r2
	return (int)(((unsigned)(a)-(unsigned)'A') < 26U);
    5caa:	f1a3 0b41 	sub.w	fp, r3, #65	; 0x41
	switch (specifier) {
    5cae:	d029      	beq.n	5d04 <encode_uint+0x6a>
    5cb0:	d824      	bhi.n	5cfc <encode_uint+0x62>
		return 16;
    5cb2:	2b58      	cmp	r3, #88	; 0x58
    5cb4:	bf14      	ite	ne
    5cb6:	260a      	movne	r6, #10
    5cb8:	2610      	moveq	r6, #16
	char *bp = bps + (bpe - bps);
    5cba:	f8dd 9028 	ldr.w	r9, [sp, #40]	; 0x28
		unsigned int lsv = (unsigned int)(value % radix);
    5cbe:	4632      	mov	r2, r6
    5cc0:	2300      	movs	r3, #0
    5cc2:	4640      	mov	r0, r8
    5cc4:	4639      	mov	r1, r7
    5cc6:	f7fa fdd9 	bl	87c <__aeabi_uldivmod>
		*--bp = (lsv <= 9) ? ('0' + lsv)
    5cca:	2a09      	cmp	r2, #9
    5ccc:	b2d4      	uxtb	r4, r2
    5cce:	d81e      	bhi.n	5d0e <encode_uint+0x74>
    5cd0:	3430      	adds	r4, #48	; 0x30
	} while ((value != 0) && (bps < bp));
    5cd2:	45b0      	cmp	r8, r6
		*--bp = (lsv <= 9) ? ('0' + lsv)
    5cd4:	b2e4      	uxtb	r4, r4
	} while ((value != 0) && (bps < bp));
    5cd6:	f177 0300 	sbcs.w	r3, r7, #0
		*--bp = (lsv <= 9) ? ('0' + lsv)
    5cda:	f809 4d01 	strb.w	r4, [r9, #-1]!
	} while ((value != 0) && (bps < bp));
    5cde:	d301      	bcc.n	5ce4 <encode_uint+0x4a>
    5ce0:	45d1      	cmp	r9, sl
    5ce2:	d811      	bhi.n	5d08 <encode_uint+0x6e>
	if (conv->flag_hash) {
    5ce4:	782b      	ldrb	r3, [r5, #0]
    5ce6:	069b      	lsls	r3, r3, #26
    5ce8:	d505      	bpl.n	5cf6 <encode_uint+0x5c>
		if (radix == 8) {
    5cea:	2e08      	cmp	r6, #8
    5cec:	d115      	bne.n	5d1a <encode_uint+0x80>
			conv->altform_0 = true;
    5cee:	78ab      	ldrb	r3, [r5, #2]
    5cf0:	f043 0308 	orr.w	r3, r3, #8
			conv->altform_0c = true;
    5cf4:	70ab      	strb	r3, [r5, #2]
}
    5cf6:	4648      	mov	r0, r9
    5cf8:	e8bd 8ff8 	ldmia.w	sp!, {r3, r4, r5, r6, r7, r8, r9, sl, fp, pc}
	switch (specifier) {
    5cfc:	f003 03f7 	and.w	r3, r3, #247	; 0xf7
		return 16;
    5d00:	2b70      	cmp	r3, #112	; 0x70
    5d02:	e7d7      	b.n	5cb4 <encode_uint+0x1a>
	switch (specifier) {
    5d04:	2608      	movs	r6, #8
    5d06:	e7d8      	b.n	5cba <encode_uint+0x20>
		value /= radix;
    5d08:	4680      	mov	r8, r0
    5d0a:	460f      	mov	r7, r1
    5d0c:	e7d7      	b.n	5cbe <encode_uint+0x24>
		*--bp = (lsv <= 9) ? ('0' + lsv)
    5d0e:	f1bb 0f19 	cmp.w	fp, #25
    5d12:	bf94      	ite	ls
    5d14:	3437      	addls	r4, #55	; 0x37
    5d16:	3457      	addhi	r4, #87	; 0x57
    5d18:	e7db      	b.n	5cd2 <encode_uint+0x38>
		} else if (radix == 16) {
    5d1a:	2e10      	cmp	r6, #16
    5d1c:	d1eb      	bne.n	5cf6 <encode_uint+0x5c>
			conv->altform_0c = true;
    5d1e:	78ab      	ldrb	r3, [r5, #2]
    5d20:	f043 0310 	orr.w	r3, r3, #16
    5d24:	e7e6      	b.n	5cf4 <encode_uint+0x5a>

00005d26 <outs>:
{
    5d26:	e92d 41f0 	stmdb	sp!, {r4, r5, r6, r7, r8, lr}
    5d2a:	4607      	mov	r7, r0
    5d2c:	4688      	mov	r8, r1
    5d2e:	4615      	mov	r5, r2
    5d30:	461e      	mov	r6, r3
	while ((sp < ep) || ((ep == NULL) && *sp)) {
    5d32:	4614      	mov	r4, r2
    5d34:	42b4      	cmp	r4, r6
    5d36:	eba4 0005 	sub.w	r0, r4, r5
    5d3a:	d302      	bcc.n	5d42 <outs+0x1c>
    5d3c:	b93e      	cbnz	r6, 5d4e <outs+0x28>
    5d3e:	7823      	ldrb	r3, [r4, #0]
    5d40:	b12b      	cbz	r3, 5d4e <outs+0x28>
		int rc = out((int)*sp++, ctx);
    5d42:	f814 0b01 	ldrb.w	r0, [r4], #1
    5d46:	4641      	mov	r1, r8
    5d48:	47b8      	blx	r7
		if (rc < 0) {
    5d4a:	2800      	cmp	r0, #0
    5d4c:	daf2      	bge.n	5d34 <outs+0xe>
}
    5d4e:	e8bd 81f0 	ldmia.w	sp!, {r4, r5, r6, r7, r8, pc}

00005d52 <_ConfigAbsSyms>:
GEN_ABSOLUTE_SYM_KCONFIG(CONFIG_OUTPUT_DISASSEMBLY, 1);
GEN_ABSOLUTE_SYM_KCONFIG(CONFIG_OUTPUT_PRINT_MEMORY_USAGE, 1);
GEN_ABSOLUTE_SYM_KCONFIG(CONFIG_BUILD_OUTPUT_BIN, 1);
GEN_ABSOLUTE_SYM_KCONFIG(CONFIG_COMPAT_INCLUDES, 1);

GEN_ABS_SYM_END
    5d52:	4770      	bx	lr

00005d54 <hts221_read_reg>:
  * @retval       interface status (MANDATORY: return 0 -> no Error)
  *
  */
int32_t hts221_read_reg(stmdev_ctx_t *ctx, uint8_t reg, uint8_t *data,
                        uint16_t len)
{
    5d54:	b410      	push	{r4}
  int32_t ret;

  ret = ctx->read_reg(ctx->handle, reg, data, len);
    5d56:	e9d0 4001 	ldrd	r4, r0, [r0, #4]
    5d5a:	46a4      	mov	ip, r4

  return ret;
}
    5d5c:	bc10      	pop	{r4}
  ret = ctx->read_reg(ctx->handle, reg, data, len);
    5d5e:	4760      	bx	ip

00005d60 <hts221_write_reg>:
  *
  */
int32_t hts221_write_reg(stmdev_ctx_t *ctx, uint8_t reg,
                         uint8_t *data,
                         uint16_t len)
{
    5d60:	b410      	push	{r4}
  int32_t ret;

  ret = ctx->write_reg(ctx->handle, reg, data, len);
    5d62:	6804      	ldr	r4, [r0, #0]
    5d64:	6880      	ldr	r0, [r0, #8]
    5d66:	46a4      	mov	ip, r4

  return ret;
}
    5d68:	bc10      	pop	{r4}
  ret = ctx->write_reg(ctx->handle, reg, data, len);
    5d6a:	4760      	bx	ip

00005d6c <hts221_data_rate_set>:
  * @param  val     change the values of odr in reg CTRL_REG1
  * @retval         interface status (MANDATORY: return 0 -> no Error)
  *
  */
int32_t hts221_data_rate_set(stmdev_ctx_t *ctx, hts221_odr_t val)
{
    5d6c:	b537      	push	{r0, r1, r2, r4, r5, lr}
  hts221_ctrl_reg1_t reg;
  int32_t ret;

  ret = hts221_read_reg(ctx, HTS221_CTRL_REG1, (uint8_t *) &reg, 1);
    5d6e:	2301      	movs	r3, #1
{
    5d70:	460d      	mov	r5, r1
  ret = hts221_read_reg(ctx, HTS221_CTRL_REG1, (uint8_t *) &reg, 1);
    5d72:	aa01      	add	r2, sp, #4
    5d74:	2120      	movs	r1, #32
{
    5d76:	4604      	mov	r4, r0
  ret = hts221_read_reg(ctx, HTS221_CTRL_REG1, (uint8_t *) &reg, 1);
    5d78:	f7ff ffec 	bl	5d54 <hts221_read_reg>

  if (ret == 0)
    5d7c:	b958      	cbnz	r0, 5d96 <hts221_data_rate_set+0x2a>
  {
    reg.odr = (uint8_t)val;
    5d7e:	f89d 3004 	ldrb.w	r3, [sp, #4]
    5d82:	f365 0301 	bfi	r3, r5, #0, #2
    5d86:	f88d 3004 	strb.w	r3, [sp, #4]
    ret = hts221_write_reg(ctx, HTS221_CTRL_REG1, (uint8_t *) &reg, 1);
    5d8a:	aa01      	add	r2, sp, #4
    5d8c:	2301      	movs	r3, #1
    5d8e:	2120      	movs	r1, #32
    5d90:	4620      	mov	r0, r4
    5d92:	f7ff ffe5 	bl	5d60 <hts221_write_reg>
  }

  return ret;
}
    5d96:	b003      	add	sp, #12
    5d98:	bd30      	pop	{r4, r5, pc}

00005d9a <hts221_block_data_update_set>:
  * @param  val     change the values of bdu in reg CTRL_REG1
  * @retval         interface status (MANDATORY: return 0 -> no Error)
  *
  */
int32_t hts221_block_data_update_set(stmdev_ctx_t *ctx, uint8_t val)
{
    5d9a:	b537      	push	{r0, r1, r2, r4, r5, lr}
  hts221_ctrl_reg1_t reg;
  int32_t ret;

  ret = hts221_read_reg(ctx, HTS221_CTRL_REG1, (uint8_t *) &reg, 1);
    5d9c:	2301      	movs	r3, #1
{
    5d9e:	460d      	mov	r5, r1
  ret = hts221_read_reg(ctx, HTS221_CTRL_REG1, (uint8_t *) &reg, 1);
    5da0:	aa01      	add	r2, sp, #4
    5da2:	2120      	movs	r1, #32
{
    5da4:	4604      	mov	r4, r0
  ret = hts221_read_reg(ctx, HTS221_CTRL_REG1, (uint8_t *) &reg, 1);
    5da6:	f7ff ffd5 	bl	5d54 <hts221_read_reg>

  if (ret == 0)
    5daa:	b958      	cbnz	r0, 5dc4 <hts221_block_data_update_set+0x2a>
  {
    reg.bdu = val;
    5dac:	f89d 3004 	ldrb.w	r3, [sp, #4]
    5db0:	f365 0382 	bfi	r3, r5, #2, #1
    5db4:	f88d 3004 	strb.w	r3, [sp, #4]
    ret = hts221_write_reg(ctx, HTS221_CTRL_REG1, (uint8_t *) &reg, 1);
    5db8:	aa01      	add	r2, sp, #4
    5dba:	2301      	movs	r3, #1
    5dbc:	2120      	movs	r1, #32
    5dbe:	4620      	mov	r0, r4
    5dc0:	f7ff ffce 	bl	5d60 <hts221_write_reg>
  }

  return ret;
}
    5dc4:	b003      	add	sp, #12
    5dc6:	bd30      	pop	{r4, r5, pc}

00005dc8 <hts221_device_id_get>:
  * @param  buff    buffer that stores data read
  * @retval         interface status (MANDATORY: return 0 -> no Error)
  *
  */
int32_t hts221_device_id_get(stmdev_ctx_t *ctx, uint8_t *buff)
{
    5dc8:	460a      	mov	r2, r1
  int32_t ret;

  ret = hts221_read_reg(ctx, HTS221_WHO_AM_I, buff, 1);
    5dca:	2301      	movs	r3, #1
    5dcc:	210f      	movs	r1, #15
    5dce:	f7ff bfc1 	b.w	5d54 <hts221_read_reg>

00005dd2 <hts221_power_on_set>:
  * @param  val     change the values of pd in reg CTRL_REG1
  * @retval         interface status (MANDATORY: return 0 -> no Error)
  *
  */
int32_t hts221_power_on_set(stmdev_ctx_t *ctx, uint8_t val)
{
    5dd2:	b537      	push	{r0, r1, r2, r4, r5, lr}
  hts221_ctrl_reg1_t reg;
  int32_t ret;

  ret = hts221_read_reg(ctx, HTS221_CTRL_REG1, (uint8_t *) &reg, 1);
    5dd4:	2301      	movs	r3, #1
{
    5dd6:	460d      	mov	r5, r1
  ret = hts221_read_reg(ctx, HTS221_CTRL_REG1, (uint8_t *) &reg, 1);
    5dd8:	aa01      	add	r2, sp, #4
    5dda:	2120      	movs	r1, #32
{
    5ddc:	4604      	mov	r4, r0
  ret = hts221_read_reg(ctx, HTS221_CTRL_REG1, (uint8_t *) &reg, 1);
    5dde:	f7ff ffb9 	bl	5d54 <hts221_read_reg>

  if (ret == 0)
    5de2:	b958      	cbnz	r0, 5dfc <hts221_power_on_set+0x2a>
  {
    reg.pd = val;
    5de4:	f89d 3004 	ldrb.w	r3, [sp, #4]
    5de8:	f365 13c7 	bfi	r3, r5, #7, #1
    5dec:	f88d 3004 	strb.w	r3, [sp, #4]
    ret = hts221_write_reg(ctx, HTS221_CTRL_REG1, (uint8_t *) &reg, 1);
    5df0:	aa01      	add	r2, sp, #4
    5df2:	2301      	movs	r3, #1
    5df4:	2120      	movs	r1, #32
    5df6:	4620      	mov	r0, r4
    5df8:	f7ff ffb2 	bl	5d60 <hts221_write_reg>
  }

  return ret;
}
    5dfc:	b003      	add	sp, #12
    5dfe:	bd30      	pop	{r4, r5, pc}

00005e00 <z_arm_fatal_error>:
{

	if (esf != NULL) {
		esf_dump(esf);
	}
	z_fatal_error(reason, esf);
    5e00:	f000 bde0 	b.w	69c4 <z_fatal_error>

00005e04 <z_do_kernel_oops>:
 *   fault handler will executed insted of the SVC.
 *
 * @param esf exception frame
 */
void z_do_kernel_oops(const z_arch_esf_t *esf)
{
    5e04:	4601      	mov	r1, r0
	z_fatal_error(reason, esf);
    5e06:	6800      	ldr	r0, [r0, #0]
    5e08:	f000 bddc 	b.w	69c4 <z_fatal_error>

00005e0c <z_irq_spurious>:
 */
void z_irq_spurious(const void *unused)
{
	ARG_UNUSED(unused);

	z_arm_fatal_error(K_ERR_SPURIOUS_IRQ, NULL);
    5e0c:	2100      	movs	r1, #0
    5e0e:	2001      	movs	r0, #1
    5e10:	f7ff bff6 	b.w	5e00 <z_arm_fatal_error>

00005e14 <z_arm_nmi>:
 * Simply call what is installed in 'static void(*handler)(void)'.
 *
 */

void z_arm_nmi(void)
{
    5e14:	b508      	push	{r3, lr}
	handler();
    5e16:	f7fc f841 	bl	1e9c <z_SysNmiOnReset>
	z_arm_int_exit();
}
    5e1a:	e8bd 4008 	ldmia.w	sp!, {r3, lr}
	z_arm_int_exit();
    5e1e:	f7fc b921 	b.w	2064 <z_arm_exc_exit>

00005e22 <strcpy>:

char *strcpy(char *ZRESTRICT d, const char *ZRESTRICT s)
{
	char *dest = d;

	while (*s != '\0') {
    5e22:	3901      	subs	r1, #1
    5e24:	4603      	mov	r3, r0
    5e26:	f811 2f01 	ldrb.w	r2, [r1, #1]!
    5e2a:	b90a      	cbnz	r2, 5e30 <strcpy+0xe>
		*d = *s;
		d++;
		s++;
	}

	*d = '\0';
    5e2c:	701a      	strb	r2, [r3, #0]

	return dest;
}
    5e2e:	4770      	bx	lr
		*d = *s;
    5e30:	f803 2b01 	strb.w	r2, [r3], #1
		s++;
    5e34:	e7f7      	b.n	5e26 <strcpy+0x4>

00005e36 <strlen>:
 *
 * @return number of bytes in string <s>
 */

size_t strlen(const char *s)
{
    5e36:	4603      	mov	r3, r0
	size_t n = 0;
    5e38:	2000      	movs	r0, #0

	while (*s != '\0') {
    5e3a:	5c1a      	ldrb	r2, [r3, r0]
    5e3c:	b902      	cbnz	r2, 5e40 <strlen+0xa>
		s++;
		n++;
	}

	return n;
}
    5e3e:	4770      	bx	lr
		n++;
    5e40:	3001      	adds	r0, #1
    5e42:	e7fa      	b.n	5e3a <strlen+0x4>

00005e44 <strnlen>:
 *
 * @return number of bytes in fixed-size string <s>
 */

size_t strnlen(const char *s, size_t maxlen)
{
    5e44:	4603      	mov	r3, r0
	size_t n = 0;
    5e46:	2000      	movs	r0, #0

	while (*s != '\0' && n < maxlen) {
    5e48:	5c1a      	ldrb	r2, [r3, r0]
    5e4a:	b10a      	cbz	r2, 5e50 <strnlen+0xc>
    5e4c:	4288      	cmp	r0, r1
    5e4e:	d100      	bne.n	5e52 <strnlen+0xe>
		s++;
		n++;
	}

	return n;
}
    5e50:	4770      	bx	lr
		n++;
    5e52:	3001      	adds	r0, #1
    5e54:	e7f8      	b.n	5e48 <strnlen+0x4>

00005e56 <strcmp>:
 * @return negative # if <s1> < <s2>, 0 if <s1> == <s2>, else positive #
 */

int strcmp(const char *s1, const char *s2)
{
	while ((*s1 == *s2) && (*s1 != '\0')) {
    5e56:	1e43      	subs	r3, r0, #1
    5e58:	3901      	subs	r1, #1
    5e5a:	f813 2f01 	ldrb.w	r2, [r3, #1]!
    5e5e:	f811 0f01 	ldrb.w	r0, [r1, #1]!
    5e62:	4282      	cmp	r2, r0
    5e64:	d101      	bne.n	5e6a <strcmp+0x14>
    5e66:	2a00      	cmp	r2, #0
    5e68:	d1f7      	bne.n	5e5a <strcmp+0x4>
		s1++;
		s2++;
	}

	return *s1 - *s2;
}
    5e6a:	1a10      	subs	r0, r2, r0
    5e6c:	4770      	bx	lr

00005e6e <memcpy>:
 *
 * @return pointer to start of destination buffer
 */

void *memcpy(void *ZRESTRICT d, const void *ZRESTRICT s, size_t n)
{
    5e6e:	b510      	push	{r4, lr}
    5e70:	1e43      	subs	r3, r0, #1
    5e72:	440a      	add	r2, r1
	}
#endif

	/* do byte-sized copying until finished */

	while (n > 0) {
    5e74:	4291      	cmp	r1, r2
    5e76:	d100      	bne.n	5e7a <memcpy+0xc>
		*(d_byte++) = *(s_byte++);
		n--;
	}

	return d;
}
    5e78:	bd10      	pop	{r4, pc}
		*(d_byte++) = *(s_byte++);
    5e7a:	f811 4b01 	ldrb.w	r4, [r1], #1
    5e7e:	f803 4f01 	strb.w	r4, [r3, #1]!
		n--;
    5e82:	e7f7      	b.n	5e74 <memcpy+0x6>

00005e84 <memset>:
void *memset(void *buf, int c, size_t n)
{
	/* do byte-sized initialization until word-aligned or finished */

	unsigned char *d_byte = (unsigned char *)buf;
	unsigned char c_byte = (unsigned char)c;
    5e84:	b2c9      	uxtb	r1, r1
	/* do byte-sized initialization until finished */

	d_byte = (unsigned char *)d_word;
#endif

	while (n > 0) {
    5e86:	4402      	add	r2, r0
	unsigned char *d_byte = (unsigned char *)buf;
    5e88:	4603      	mov	r3, r0
	while (n > 0) {
    5e8a:	4293      	cmp	r3, r2
    5e8c:	d100      	bne.n	5e90 <memset+0xc>
		*(d_byte++) = c_byte;
		n--;
	}

	return buf;
}
    5e8e:	4770      	bx	lr
		*(d_byte++) = c_byte;
    5e90:	f803 1b01 	strb.w	r1, [r3], #1
		n--;
    5e94:	e7f9      	b.n	5e8a <memset+0x6>

00005e96 <_stdout_hook_default>:
}
    5e96:	f04f 30ff 	mov.w	r0, #4294967295	; 0xffffffff
    5e9a:	4770      	bx	lr

00005e9c <pm_power_state_set>:
#include <logging/log.h>
LOG_MODULE_DECLARE(soc, CONFIG_SOC_LOG_LEVEL);

/* Invoke Low Power/System Off specific Tasks */
__weak void pm_power_state_set(struct pm_state_info info)
{
    5e9c:	b084      	sub	sp, #16
    5e9e:	ab04      	add	r3, sp, #16
    5ea0:	e903 0007 	stmdb	r3, {r0, r1, r2}
	switch (info.state) {
    5ea4:	f89d 3004 	ldrb.w	r3, [sp, #4]
    5ea8:	2b06      	cmp	r3, #6
    5eaa:	d108      	bne.n	5ebe <pm_power_state_set+0x22>
#endif // defined(POWER_RAMSTATUS_RAMBLOCK0_Msk)

#if defined(POWER_SYSTEMOFF_SYSTEMOFF_Enter)
NRF_STATIC_INLINE void nrf_power_system_off(NRF_POWER_Type * p_reg)
{
    p_reg->SYSTEMOFF = POWER_SYSTEMOFF_SYSTEMOFF_Enter;
    5eac:	f04f 4380 	mov.w	r3, #1073741824	; 0x40000000
    5eb0:	2201      	movs	r2, #1
    5eb2:	f8c3 2500 	str.w	r2, [r3, #1280]	; 0x500
  __ASM volatile ("dsb 0xF":::"memory");
    5eb6:	f3bf 8f4f 	dsb	sy
    __DSB();

    /* Solution for simulated System OFF in debug mode */
    while (true)
    {
        __WFE();
    5eba:	bf20      	wfe
    while (true)
    5ebc:	e7fd      	b.n	5eba <pm_power_state_set+0x1e>
		break;
	default:
		LOG_DBG("Unsupported power state %u", info.state);
		break;
	}
}
    5ebe:	b004      	add	sp, #16
    5ec0:	4770      	bx	lr

00005ec2 <pm_power_state_exit_post_ops>:

/* Handle SOC specific activity after Low Power Mode Exit */
__weak void pm_power_state_exit_post_ops(struct pm_state_info info)
{
    5ec2:	b084      	sub	sp, #16
    5ec4:	ab04      	add	r3, sp, #16
    5ec6:	e903 0007 	stmdb	r3, {r0, r1, r2}
    5eca:	2300      	movs	r3, #0
    5ecc:	f383 8811 	msr	BASEPRI, r3
    5ed0:	f3bf 8f6f 	isb	sy
	/*
	 * System is now in active mode. Reenable interrupts which were disabled
	 * when OS started idling code.
	 */
	irq_unlock(0);
}
    5ed4:	b004      	add	sp, #16
    5ed6:	4770      	bx	lr

00005ed8 <get_status>:
	return GET_STATUS(get_sub_data(dev, type)->flags);
    5ed8:	6903      	ldr	r3, [r0, #16]
    5eda:	b2c9      	uxtb	r1, r1
    5edc:	220c      	movs	r2, #12
    5ede:	fb01 3302 	mla	r3, r1, r2, r3
    5ee2:	6c18      	ldr	r0, [r3, #64]	; 0x40
}
    5ee4:	f000 0007 	and.w	r0, r0, #7
    5ee8:	4770      	bx	lr

00005eea <set_on_state>:
	__asm__ volatile(
    5eea:	f04f 0320 	mov.w	r3, #32
    5eee:	f3ef 8211 	mrs	r2, BASEPRI
    5ef2:	f383 8812 	msr	BASEPRI_MAX, r3
    5ef6:	f3bf 8f6f 	isb	sy
	*flags = CLOCK_CONTROL_STATUS_ON | GET_CTX(*flags);
    5efa:	6803      	ldr	r3, [r0, #0]
    5efc:	f003 03c0 	and.w	r3, r3, #192	; 0xc0
    5f00:	f043 0302 	orr.w	r3, r3, #2
    5f04:	6003      	str	r3, [r0, #0]
	__asm__ volatile(
    5f06:	f382 8811 	msr	BASEPRI, r2
    5f0a:	f3bf 8f6f 	isb	sy
}
    5f0e:	4770      	bx	lr

00005f10 <stop>:
{
    5f10:	4603      	mov	r3, r0
    5f12:	b570      	push	{r4, r5, r6, lr}
	struct nrf_clock_control_data *data = dev->data;
    5f14:	6900      	ldr	r0, [r0, #16]
	return &data->subsys[type];
    5f16:	b2c9      	uxtb	r1, r1
	__asm__ volatile(
    5f18:	f04f 0420 	mov.w	r4, #32
    5f1c:	f3ef 8611 	mrs	r6, BASEPRI
    5f20:	f384 8812 	msr	BASEPRI_MAX, r4
    5f24:	f3bf 8f6f 	isb	sy
	uint32_t current_ctx = GET_CTX(*flags);
    5f28:	250c      	movs	r5, #12
    5f2a:	fb05 0401 	mla	r4, r5, r1, r0
    5f2e:	6c24      	ldr	r4, [r4, #64]	; 0x40
	if ((current_ctx != 0) && (current_ctx != ctx)) {
    5f30:	f014 04c0 	ands.w	r4, r4, #192	; 0xc0
    5f34:	d001      	beq.n	5f3a <stop+0x2a>
    5f36:	42a2      	cmp	r2, r4
    5f38:	d110      	bne.n	5f5c <stop+0x4c>
		*flags = CLOCK_CONTROL_STATUS_OFF;
    5f3a:	fb05 0001 	mla	r0, r5, r1, r0
    5f3e:	2201      	movs	r2, #1
    5f40:	6402      	str	r2, [r0, #64]	; 0x40
	int err = 0;
    5f42:	2000      	movs	r0, #0
	__asm__ volatile(
    5f44:	f386 8811 	msr	BASEPRI, r6
    5f48:	f3bf 8f6f 	isb	sy
	if (err < 0) {
    5f4c:	b928      	cbnz	r0, 5f5a <stop+0x4a>
	get_sub_config(dev, type)->stop();
    5f4e:	685b      	ldr	r3, [r3, #4]
    5f50:	eb03 01c1 	add.w	r1, r3, r1, lsl #3
    5f54:	684b      	ldr	r3, [r1, #4]
    5f56:	4798      	blx	r3
	return 0;
    5f58:	2000      	movs	r0, #0
}
    5f5a:	bd70      	pop	{r4, r5, r6, pc}
		err = -EPERM;
    5f5c:	f04f 30ff 	mov.w	r0, #4294967295	; 0xffffffff
    5f60:	e7f0      	b.n	5f44 <stop+0x34>

00005f62 <api_stop>:
	return stop(dev, subsys, CTX_API);
    5f62:	2280      	movs	r2, #128	; 0x80
    5f64:	f7ff bfd4 	b.w	5f10 <stop>

00005f68 <async_start>:
{
    5f68:	b5f8      	push	{r3, r4, r5, r6, r7, lr}
    5f6a:	9f06      	ldr	r7, [sp, #24]
	struct nrf_clock_control_data *data = dev->data;
    5f6c:	6904      	ldr	r4, [r0, #16]
{
    5f6e:	4605      	mov	r5, r0
    5f70:	b2c9      	uxtb	r1, r1
	__asm__ volatile(
    5f72:	f04f 0020 	mov.w	r0, #32
    5f76:	f3ef 8c11 	mrs	ip, BASEPRI
    5f7a:	f380 8812 	msr	BASEPRI_MAX, r0
    5f7e:	f3bf 8f6f 	isb	sy
	uint32_t current_ctx = GET_CTX(*flags);
    5f82:	260c      	movs	r6, #12
    5f84:	fb06 4601 	mla	r6, r6, r1, r4
    5f88:	6c30      	ldr	r0, [r6, #64]	; 0x40
	if ((*flags & (STATUS_MASK)) == CLOCK_CONTROL_STATUS_OFF) {
    5f8a:	f000 0e07 	and.w	lr, r0, #7
    5f8e:	f1be 0f01 	cmp.w	lr, #1
    5f92:	d111      	bne.n	5fb8 <async_start+0x50>
		*flags = CLOCK_CONTROL_STATUS_STARTING | ctx;
    5f94:	6437      	str	r7, [r6, #64]	; 0x40
	int err = 0;
    5f96:	2600      	movs	r6, #0
	__asm__ volatile(
    5f98:	f38c 8811 	msr	BASEPRI, ip
    5f9c:	f3bf 8f6f 	isb	sy
	if (err < 0) {
    5fa0:	b946      	cbnz	r6, 5fb4 <async_start+0x4c>
	subdata->cb = cb;
    5fa2:	200c      	movs	r0, #12
    5fa4:	fb00 4401 	mla	r4, r0, r1, r4
	subdata->user_data = user_data;
    5fa8:	e9c4 230e 	strd	r2, r3, [r4, #56]	; 0x38
	 get_sub_config(dev, type)->start();
    5fac:	686b      	ldr	r3, [r5, #4]
    5fae:	f853 3031 	ldr.w	r3, [r3, r1, lsl #3]
    5fb2:	4798      	blx	r3
}
    5fb4:	4630      	mov	r0, r6
    5fb6:	bdf8      	pop	{r3, r4, r5, r6, r7, pc}
	uint32_t current_ctx = GET_CTX(*flags);
    5fb8:	f000 00c0 	and.w	r0, r0, #192	; 0xc0
		err = -EALREADY;
    5fbc:	4287      	cmp	r7, r0
    5fbe:	bf14      	ite	ne
    5fc0:	f04f 36ff 	movne.w	r6, #4294967295	; 0xffffffff
    5fc4:	f06f 0677 	mvneq.w	r6, #119	; 0x77
    5fc8:	e7e6      	b.n	5f98 <async_start+0x30>

00005fca <api_start>:
{
    5fca:	b513      	push	{r0, r1, r4, lr}
	return async_start(dev, subsys, cb, user_data, CTX_API);
    5fcc:	2480      	movs	r4, #128	; 0x80
    5fce:	9400      	str	r4, [sp, #0]
    5fd0:	f7ff ffca 	bl	5f68 <async_start>
}
    5fd4:	b002      	add	sp, #8
    5fd6:	bd10      	pop	{r4, pc}

00005fd8 <onoff_started_callback>:
	return &data->mgr[type];
    5fd8:	6900      	ldr	r0, [r0, #16]
{
    5fda:	b410      	push	{r4}
	return &data->mgr[type];
    5fdc:	b2cb      	uxtb	r3, r1
	notify(mgr, 0);
    5fde:	241c      	movs	r4, #28
    5fe0:	fb03 0004 	mla	r0, r3, r4, r0
    5fe4:	2100      	movs	r1, #0
}
    5fe6:	bc10      	pop	{r4}
	notify(mgr, 0);
    5fe8:	4710      	bx	r2

00005fea <lfclk_stop>:
    nrfx_clock_stop(NRF_CLOCK_DOMAIN_LFCLK);
    5fea:	2000      	movs	r0, #0
    5fec:	f7fd bdde 	b.w	3bac <nrfx_clock_stop>

00005ff0 <blocking_start_callback>:
{
    5ff0:	4610      	mov	r0, r2
	z_impl_k_sem_give(sem);
    5ff2:	f7fe becd 	b.w	4d90 <z_impl_k_sem_give>

00005ff6 <gpio_nrfx_port_get_raw>:
	NRF_GPIO_Type *reg = get_port_cfg(port)->port;
    5ff6:	6843      	ldr	r3, [r0, #4]
    5ff8:	685b      	ldr	r3, [r3, #4]
    return p_reg->IN;
    5ffa:	f8d3 3510 	ldr.w	r3, [r3, #1296]	; 0x510
	*value = nrf_gpio_port_in_read(reg);
    5ffe:	600b      	str	r3, [r1, #0]
}
    6000:	2000      	movs	r0, #0
    6002:	4770      	bx	lr

00006004 <gpio_nrfx_port_set_masked_raw>:
	NRF_GPIO_Type *reg = get_port_cfg(port)->port;
    6004:	6843      	ldr	r3, [r0, #4]
    6006:	685b      	ldr	r3, [r3, #4]
    return p_reg->OUT;
    6008:	f8d3 0504 	ldr.w	r0, [r3, #1284]	; 0x504
	nrf_gpio_port_out_write(reg, value_tmp | (mask & value));
    600c:	4042      	eors	r2, r0
    600e:	400a      	ands	r2, r1
    6010:	4042      	eors	r2, r0
    p_reg->OUT = value;
    6012:	f8c3 2504 	str.w	r2, [r3, #1284]	; 0x504
}
    6016:	2000      	movs	r0, #0
    6018:	4770      	bx	lr

0000601a <gpio_nrfx_port_set_bits_raw>:
	NRF_GPIO_Type *reg = get_port_cfg(port)->port;
    601a:	6843      	ldr	r3, [r0, #4]
    601c:	685b      	ldr	r3, [r3, #4]
}
    601e:	2000      	movs	r0, #0
    p_reg->OUTSET = set_mask;
    6020:	f8c3 1508 	str.w	r1, [r3, #1288]	; 0x508
    6024:	4770      	bx	lr

00006026 <gpio_nrfx_port_clear_bits_raw>:
	NRF_GPIO_Type *reg = get_port_cfg(port)->port;
    6026:	6843      	ldr	r3, [r0, #4]
    6028:	685b      	ldr	r3, [r3, #4]
}
    602a:	2000      	movs	r0, #0
    p_reg->OUTCLR = clr_mask;
    602c:	f8c3 150c 	str.w	r1, [r3, #1292]	; 0x50c
    6030:	4770      	bx	lr

00006032 <gpio_nrfx_port_toggle_bits>:
	NRF_GPIO_Type *reg = get_port_cfg(port)->port;
    6032:	6843      	ldr	r3, [r0, #4]
    6034:	685a      	ldr	r2, [r3, #4]
    return p_reg->OUT;
    6036:	f8d2 3504 	ldr.w	r3, [r2, #1284]	; 0x504
	nrf_gpio_port_out_write(reg, value ^ mask);
    603a:	404b      	eors	r3, r1
    p_reg->OUT = value;
    603c:	f8c2 3504 	str.w	r3, [r2, #1284]	; 0x504
}
    6040:	2000      	movs	r0, #0
    6042:	4770      	bx	lr

00006044 <gpio_nrfx_manage_callback>:
	return port->data;
    6044:	6903      	ldr	r3, [r0, #16]
	return list->head;
    6046:	6858      	ldr	r0, [r3, #4]
{
    6048:	b530      	push	{r4, r5, lr}
	if (!sys_slist_is_empty(callbacks)) {
    604a:	b158      	cbz	r0, 6064 <gpio_nrfx_manage_callback+0x20>
 */
static inline bool sys_slist_find_and_remove(sys_slist_t *list,
					     sys_snode_t *node);

/** @} */
Z_GENLIST_FIND_AND_REMOVE(slist, snode)
    604c:	2400      	movs	r4, #0
    604e:	4281      	cmp	r1, r0
    6050:	d112      	bne.n	6078 <gpio_nrfx_manage_callback+0x34>
	return node->next;
    6052:	6808      	ldr	r0, [r1, #0]
	return list->tail;
    6054:	689d      	ldr	r5, [r3, #8]
Z_GENLIST_REMOVE(slist, snode)
    6056:	b954      	cbnz	r4, 606e <gpio_nrfx_manage_callback+0x2a>
    6058:	428d      	cmp	r5, r1
	list->head = node;
    605a:	6058      	str	r0, [r3, #4]
Z_GENLIST_REMOVE(slist, snode)
    605c:	d100      	bne.n	6060 <gpio_nrfx_manage_callback+0x1c>
	list->tail = node;
    605e:	6098      	str	r0, [r3, #8]
	parent->next = child;
    6060:	2000      	movs	r0, #0
    6062:	6008      	str	r0, [r1, #0]
	if (set) {
    6064:	b96a      	cbnz	r2, 6082 <gpio_nrfx_manage_callback+0x3e>
	return 0;
    6066:	2000      	movs	r0, #0
}
    6068:	bd30      	pop	{r4, r5, pc}
    606a:	4628      	mov	r0, r5
    606c:	e7ef      	b.n	604e <gpio_nrfx_manage_callback+0xa>
Z_GENLIST_REMOVE(slist, snode)
    606e:	428d      	cmp	r5, r1
	parent->next = child;
    6070:	6020      	str	r0, [r4, #0]
	list->tail = node;
    6072:	bf08      	it	eq
    6074:	609c      	streq	r4, [r3, #8]
}
    6076:	e7f3      	b.n	6060 <gpio_nrfx_manage_callback+0x1c>
	return node->next;
    6078:	6805      	ldr	r5, [r0, #0]
Z_GENLIST_FIND_AND_REMOVE(slist, snode)
    607a:	4604      	mov	r4, r0
    607c:	2d00      	cmp	r5, #0
    607e:	d1f4      	bne.n	606a <gpio_nrfx_manage_callback+0x26>
			if (!set) {
    6080:	b13a      	cbz	r2, 6092 <gpio_nrfx_manage_callback+0x4e>
Z_GENLIST_PREPEND(slist, snode)
    6082:	6898      	ldr	r0, [r3, #8]
	parent->next = child;
    6084:	685a      	ldr	r2, [r3, #4]
    6086:	600a      	str	r2, [r1, #0]
	list->head = node;
    6088:	6059      	str	r1, [r3, #4]
Z_GENLIST_PREPEND(slist, snode)
    608a:	2800      	cmp	r0, #0
    608c:	d1eb      	bne.n	6066 <gpio_nrfx_manage_callback+0x22>
	list->tail = node;
    608e:	6099      	str	r1, [r3, #8]
}
    6090:	e7ea      	b.n	6068 <gpio_nrfx_manage_callback+0x24>
				return -EINVAL;
    6092:	f06f 0015 	mvn.w	r0, #21
	return gpio_manage_callback(&get_port_data(port)->callbacks,
    6096:	e7e7      	b.n	6068 <gpio_nrfx_manage_callback+0x24>

00006098 <pin_interrupt_configure>:
{
	int rc = 0;

	if (!IS_ENABLED(CONFIG_GPIO_SX1509B_INTERRUPT)
	    && (mode != GPIO_INT_MODE_DISABLED)) {
		return -ENOTSUP;
    6098:	f5b2 5f00 	cmp.w	r2, #8192	; 0x2000

	k_sem_give(&drv_data->lock);
#endif /* CONFIG_GPIO_SX1509B_INTERRUPT */

	return rc;
}
    609c:	bf14      	ite	ne
    609e:	f06f 0085 	mvnne.w	r0, #133	; 0x85
    60a2:	2000      	moveq	r0, #0
    60a4:	4770      	bx	lr

000060a6 <k_sem_take.constprop.0.isra.0>:
	return z_impl_k_sem_take(sem, timeout);
    60a6:	f7fe be93 	b.w	4dd0 <z_impl_k_sem_take>

000060aa <i2c_write>:
 * @retval 0 If successful.
 * @retval -EIO General input / output error.
 */
static inline int i2c_write(const struct device *dev, const uint8_t *buf,
			    uint32_t num_bytes, uint16_t addr)
{
    60aa:	b51f      	push	{r0, r1, r2, r3, r4, lr}
	struct i2c_msg msg;

	msg.buf = (uint8_t *)buf;
	msg.len = num_bytes;
    60ac:	e9cd 1201 	strd	r1, r2, [sp, #4]
	msg.flags = I2C_MSG_WRITE | I2C_MSG_STOP;
    60b0:	2202      	movs	r2, #2
    60b2:	f88d 200c 	strb.w	r2, [sp, #12]
	int res =  api->transfer(dev, msgs, num_msgs, addr);
    60b6:	6882      	ldr	r2, [r0, #8]
    60b8:	a901      	add	r1, sp, #4
    60ba:	6894      	ldr	r4, [r2, #8]
    60bc:	2201      	movs	r2, #1
    60be:	47a0      	blx	r4

	return i2c_transfer(dev, &msg, 1, addr);
}
    60c0:	b004      	add	sp, #16
    60c2:	bd10      	pop	{r4, pc}

000060c4 <i2c_reg_write_word_be>:
{
    60c4:	b507      	push	{r0, r1, r2, lr}
	uint8_t tx_buf[3] = { reg_addr, value >> 8, value & 0xff };
    60c6:	f88d 2004 	strb.w	r2, [sp, #4]
    60ca:	0a1a      	lsrs	r2, r3, #8
    60cc:	f88d 2005 	strb.w	r2, [sp, #5]
    60d0:	f88d 3006 	strb.w	r3, [sp, #6]
	return i2c_write(dev, tx_buf, 3, dev_addr);
    60d4:	2203      	movs	r2, #3
    60d6:	460b      	mov	r3, r1
    60d8:	a901      	add	r1, sp, #4
    60da:	f7ff ffe6 	bl	60aa <i2c_write>
}
    60de:	b003      	add	sp, #12
    60e0:	f85d fb04 	ldr.w	pc, [sp], #4

000060e4 <port_write>:
{
    60e4:	e92d 43f8 	stmdb	sp!, {r3, r4, r5, r6, r7, r8, r9, lr}
    60e8:	4605      	mov	r5, r0
    60ea:	4689      	mov	r9, r1
    60ec:	4614      	mov	r4, r2
    60ee:	4698      	mov	r8, r3
	if (k_is_in_isr()) {
    60f0:	f000 fc83 	bl	69fa <k_is_in_isr>
    60f4:	bb08      	cbnz	r0, 613a <port_write+0x56>
	const struct sx1509b_config *cfg = dev->config;
    60f6:	686f      	ldr	r7, [r5, #4]
	struct sx1509b_drv_data *drv_data = dev->data;
    60f8:	692d      	ldr	r5, [r5, #16]
	k_sem_take(&drv_data->lock, K_FOREVER);
    60fa:	f105 0620 	add.w	r6, r5, #32
    60fe:	f04f 32ff 	mov.w	r2, #4294967295	; 0xffffffff
    6102:	f04f 33ff 	mov.w	r3, #4294967295	; 0xffffffff
    6106:	4630      	mov	r0, r6
    6108:	f7ff ffcd 	bl	60a6 <k_sem_take.constprop.0.isra.0>
	uint16_t orig_out = *outp;
    610c:	8b28      	ldrh	r0, [r5, #24]
	int rc = i2c_reg_write_word_be(drv_data->i2c_master, cfg->i2c_slave_addr,
    610e:	8939      	ldrh	r1, [r7, #8]
	uint16_t out = ((orig_out & ~mask) | (value & mask)) ^ toggle;
    6110:	4044      	eors	r4, r0
    6112:	ea04 0409 	and.w	r4, r4, r9
    6116:	ea84 0408 	eor.w	r4, r4, r8
    611a:	4044      	eors	r4, r0
    611c:	b2a4      	uxth	r4, r4
	int rc = i2c_reg_write_word_be(drv_data->i2c_master, cfg->i2c_slave_addr,
    611e:	6868      	ldr	r0, [r5, #4]
    6120:	4623      	mov	r3, r4
    6122:	2210      	movs	r2, #16
    6124:	f7ff ffce 	bl	60c4 <i2c_reg_write_word_be>
	if (rc == 0) {
    6128:	4607      	mov	r7, r0
    612a:	b900      	cbnz	r0, 612e <port_write+0x4a>
		*outp = out;
    612c:	832c      	strh	r4, [r5, #24]
	z_impl_k_sem_give(sem);
    612e:	4630      	mov	r0, r6
    6130:	f7fe fe2e 	bl	4d90 <z_impl_k_sem_give>
}
    6134:	4638      	mov	r0, r7
    6136:	e8bd 83f8 	ldmia.w	sp!, {r3, r4, r5, r6, r7, r8, r9, pc}
		return -EWOULDBLOCK;
    613a:	f06f 070a 	mvn.w	r7, #10
    613e:	e7f9      	b.n	6134 <port_write+0x50>

00006140 <port_toggle_bits>:
	return port_write(dev, 0, 0, pins);
    6140:	2200      	movs	r2, #0
{
    6142:	460b      	mov	r3, r1
	return port_write(dev, 0, 0, pins);
    6144:	4611      	mov	r1, r2
    6146:	f7ff bfcd 	b.w	60e4 <port_write>

0000614a <port_clear_bits>:
	return port_write(dev, pins, 0, 0);
    614a:	2300      	movs	r3, #0
    614c:	461a      	mov	r2, r3
    614e:	f7ff bfc9 	b.w	60e4 <port_write>

00006152 <port_set_bits>:
{
    6152:	460a      	mov	r2, r1
	return port_write(dev, pins, pins, 0);
    6154:	2300      	movs	r3, #0
    6156:	f7ff bfc5 	b.w	60e4 <port_write>

0000615a <port_set_masked>:
	return port_write(dev, mask, value, 0);
    615a:	2300      	movs	r3, #0
    615c:	f7ff bfc2 	b.w	60e4 <port_write>

00006160 <write_pin_state>:
{
    6160:	b530      	push	{r4, r5, lr}
    6162:	b087      	sub	sp, #28
    6164:	460c      	mov	r4, r1
	pin_buf.reg = SX1509B_REG_INPUT_DISABLE;
    6166:	2100      	movs	r1, #0
    6168:	f88d 1004 	strb.w	r1, [sp, #4]
	pin_buf.pins.input_disable = sys_cpu_to_be16(pins->input_disable);
    616c:	8811      	ldrh	r1, [r2, #0]
    616e:	ba49      	rev16	r1, r1
    6170:	f8ad 1005 	strh.w	r1, [sp, #5]
	pin_buf.pins.long_slew = sys_cpu_to_be16(pins->long_slew);
    6174:	8851      	ldrh	r1, [r2, #2]
    6176:	ba49      	rev16	r1, r1
    6178:	f8ad 1007 	strh.w	r1, [sp, #7]
	pin_buf.pins.low_drive = sys_cpu_to_be16(pins->low_drive);
    617c:	8891      	ldrh	r1, [r2, #4]
    617e:	ba49      	rev16	r1, r1
    6180:	f8ad 1009 	strh.w	r1, [sp, #9]
	pin_buf.pins.pull_up = sys_cpu_to_be16(pins->pull_up);
    6184:	88d1      	ldrh	r1, [r2, #6]
    6186:	ba49      	rev16	r1, r1
    6188:	f8ad 100b 	strh.w	r1, [sp, #11]
	pin_buf.pins.pull_down = sys_cpu_to_be16(pins->pull_down);
    618c:	8911      	ldrh	r1, [r2, #8]
    618e:	ba49      	rev16	r1, r1
    6190:	f8ad 100d 	strh.w	r1, [sp, #13]
	pin_buf.pins.open_drain = sys_cpu_to_be16(pins->open_drain);
    6194:	8951      	ldrh	r1, [r2, #10]
    6196:	ba49      	rev16	r1, r1
    6198:	f8ad 100f 	strh.w	r1, [sp, #15]
	pin_buf.pins.polarity = sys_cpu_to_be16(pins->polarity);
    619c:	8991      	ldrh	r1, [r2, #12]
    619e:	ba49      	rev16	r1, r1
    61a0:	f8ad 1011 	strh.w	r1, [sp, #17]
	pin_buf.pins.dir = sys_cpu_to_be16(pins->dir);
    61a4:	89d1      	ldrh	r1, [r2, #14]
    61a6:	8a12      	ldrh	r2, [r2, #16]
{
    61a8:	4605      	mov	r5, r0
	pin_buf.pins.dir = sys_cpu_to_be16(pins->dir);
    61aa:	ba49      	rev16	r1, r1
    61ac:	f8ad 1013 	strh.w	r1, [sp, #19]
	pin_buf.pins.data = sys_cpu_to_be16(pins->data);
    61b0:	ba51      	rev16	r1, r2
    61b2:	f8ad 1015 	strh.w	r1, [sp, #21]
		rc = i2c_reg_write_word_be(drv_data->i2c_master,
    61b6:	6860      	ldr	r0, [r4, #4]
    61b8:	8929      	ldrh	r1, [r5, #8]
	if (data_first) {
    61ba:	b163      	cbz	r3, 61d6 <write_pin_state+0x76>
		rc = i2c_reg_write_word_be(drv_data->i2c_master,
    61bc:	4613      	mov	r3, r2
    61be:	2210      	movs	r2, #16
    61c0:	f7ff ff80 	bl	60c4 <i2c_reg_write_word_be>
		if (rc == 0) {
    61c4:	b928      	cbnz	r0, 61d2 <write_pin_state+0x72>
			rc = i2c_write(drv_data->i2c_master, &pin_buf.reg,
    61c6:	892b      	ldrh	r3, [r5, #8]
    61c8:	6860      	ldr	r0, [r4, #4]
    61ca:	2211      	movs	r2, #17
    61cc:	a901      	add	r1, sp, #4
		rc = i2c_write(drv_data->i2c_master, &pin_buf.reg,
    61ce:	f7ff ff6c 	bl	60aa <i2c_write>
}
    61d2:	b007      	add	sp, #28
    61d4:	bd30      	pop	{r4, r5, pc}
		rc = i2c_write(drv_data->i2c_master, &pin_buf.reg,
    61d6:	460b      	mov	r3, r1
    61d8:	2213      	movs	r2, #19
    61da:	a901      	add	r1, sp, #4
    61dc:	e7f7      	b.n	61ce <write_pin_state+0x6e>

000061de <sx1509b_init>:
 *
 * @param dev Device struct
 * @return 0 if successful, failed otherwise.
 */
static int sx1509b_init(const struct device *dev)
{
    61de:	e92d 41f3 	stmdb	sp!, {r0, r1, r4, r5, r6, r7, r8, lr}
	const struct sx1509b_config *cfg = dev->config;
    61e2:	6846      	ldr	r6, [r0, #4]
	struct sx1509b_drv_data *drv_data = dev->data;
    61e4:	6905      	ldr	r5, [r0, #16]
	int rc;

	drv_data->i2c_master = device_get_binding(cfg->i2c_master_dev_name);
    61e6:	6870      	ldr	r0, [r6, #4]
    61e8:	f7fe fc0e 	bl	4a08 <z_impl_device_get_binding>
    61ec:	6068      	str	r0, [r5, #4]
	if (!drv_data->i2c_master) {
    61ee:	2800      	cmp	r0, #0
    61f0:	d061      	beq.n	62b6 <sx1509b_init+0xd8>
	drv_data->irq_state = (struct sx1509b_irq_state) {
		.interrupt_mask = ALL_PINS,
	};
#endif

	rc = i2c_reg_write_byte(drv_data->i2c_master, cfg->i2c_slave_addr,
    61f2:	8933      	ldrh	r3, [r6, #8]
 */
static inline int i2c_reg_write_byte(const struct device *dev,
				     uint16_t dev_addr,
				     uint8_t reg_addr, uint8_t value)
{
	uint8_t tx_buf[2] = {reg_addr, value};
    61f4:	f04f 087d 	mov.w	r8, #125	; 0x7d
    61f8:	2712      	movs	r7, #18

	return i2c_write(dev, tx_buf, 2, dev_addr);
    61fa:	2202      	movs	r2, #2
    61fc:	a901      	add	r1, sp, #4
	uint8_t tx_buf[2] = {reg_addr, value};
    61fe:	f88d 8004 	strb.w	r8, [sp, #4]
    6202:	f88d 7005 	strb.w	r7, [sp, #5]
	return i2c_write(dev, tx_buf, 2, dev_addr);
    6206:	f7ff ff50 	bl	60aa <i2c_write>
				SX1509B_REG_RESET, SX1509B_REG_RESET_MAGIC0);
	if (rc != 0) {
    620a:	4604      	mov	r4, r0
    620c:	2800      	cmp	r0, #0
    620e:	d14a      	bne.n	62a6 <sx1509b_init+0xc8>
	uint8_t tx_buf[2] = {reg_addr, value};
    6210:	2234      	movs	r2, #52	; 0x34
		LOG_ERR("%s: reset m0 failed: %d\n", dev->name, rc);
		goto out;
	}
	rc = i2c_reg_write_byte(drv_data->i2c_master, cfg->i2c_slave_addr,
    6212:	6868      	ldr	r0, [r5, #4]
    6214:	8933      	ldrh	r3, [r6, #8]
    6216:	f88d 2005 	strb.w	r2, [sp, #5]
	return i2c_write(dev, tx_buf, 2, dev_addr);
    621a:	a901      	add	r1, sp, #4
    621c:	2202      	movs	r2, #2
	uint8_t tx_buf[2] = {reg_addr, value};
    621e:	f88d 8004 	strb.w	r8, [sp, #4]
	return i2c_write(dev, tx_buf, 2, dev_addr);
    6222:	f7ff ff42 	bl	60aa <i2c_write>
				SX1509B_REG_RESET, SX1509B_REG_RESET_MAGIC1);
	if (rc != 0) {
    6226:	4604      	mov	r4, r0
    6228:	2800      	cmp	r0, #0
    622a:	d13c      	bne.n	62a6 <sx1509b_init+0xc8>
	return z_impl_k_sleep(timeout);
    622c:	2100      	movs	r1, #0
    622e:	2063      	movs	r0, #99	; 0x63
    6230:	f7ff f9d2 	bl	55d8 <z_impl_k_sleep>
	}

	k_sleep(K_MSEC(RESET_DELAY_MS));

	/* Reset state mediated by initial configuration */
	drv_data->pin_state = (struct sx1509b_pin_state) {
    6234:	463a      	mov	r2, r7
    6236:	4621      	mov	r1, r4
    6238:	f105 0008 	add.w	r0, r5, #8
    623c:	f7ff fe22 	bl	5e84 <memset>
    6240:	f24e 03e0 	movw	r3, #57568	; 0xe0e0
	uint8_t tx_buf[2] = {reg_addr, value};
    6244:	221e      	movs	r2, #30
    6246:	832b      	strh	r3, [r5, #24]
			& ~(DT_INST_PROP(0, init_out_low)
			    | DT_INST_PROP(0, init_out_high))),
		.data = (ALL_PINS
			 & ~DT_INST_PROP(0, init_out_low)),
	};
	drv_data->debounce_state = (struct sx1509b_debounce_state) {
    6248:	83ac      	strh	r4, [r5, #28]
    624a:	77ac      	strb	r4, [r5, #30]
		.debounce_config = CONFIG_GPIO_SX1509B_DEBOUNCE_TIME,
	};

	rc = i2c_reg_write_byte(drv_data->i2c_master, cfg->i2c_slave_addr,
    624c:	6868      	ldr	r0, [r5, #4]
    624e:	8933      	ldrh	r3, [r6, #8]
    6250:	f88d 2004 	strb.w	r2, [sp, #4]
    6254:	2240      	movs	r2, #64	; 0x40
    6256:	f88d 2005 	strb.w	r2, [sp, #5]
	return i2c_write(dev, tx_buf, 2, dev_addr);
    625a:	a901      	add	r1, sp, #4
    625c:	2202      	movs	r2, #2
    625e:	f7ff ff24 	bl	60aa <i2c_write>
	drv_data->debounce_state = (struct sx1509b_debounce_state) {
    6262:	4627      	mov	r7, r4
				SX1509B_REG_CLOCK,
				SX1509B_REG_CLOCK_FOSC_INT_2MHZ);
	if (rc == 0) {
    6264:	4604      	mov	r4, r0
    6266:	b9f0      	cbnz	r0, 62a6 <sx1509b_init+0xc8>
		rc = i2c_reg_write_word_be(drv_data->i2c_master,
    6268:	8b2b      	ldrh	r3, [r5, #24]
    626a:	8931      	ldrh	r1, [r6, #8]
    626c:	6868      	ldr	r0, [r5, #4]
    626e:	2210      	movs	r2, #16
    6270:	f7ff ff28 	bl	60c4 <i2c_reg_write_word_be>
					   cfg->i2c_slave_addr,
					   SX1509B_REG_DATA,
					   drv_data->pin_state.data);
	}
	if (rc == 0) {
    6274:	4604      	mov	r4, r0
    6276:	b9b0      	cbnz	r0, 62a6 <sx1509b_init+0xc8>
		rc = i2c_reg_write_word_be(drv_data->i2c_master,
    6278:	8aeb      	ldrh	r3, [r5, #22]
    627a:	8931      	ldrh	r1, [r6, #8]
    627c:	6868      	ldr	r0, [r5, #4]
    627e:	220e      	movs	r2, #14
    6280:	f7ff ff20 	bl	60c4 <i2c_reg_write_word_be>
					   cfg->i2c_slave_addr,
					   SX1509B_REG_DIR,
					   drv_data->pin_state.dir);
	}
	if (rc == 0) {
    6284:	4604      	mov	r4, r0
    6286:	b970      	cbnz	r0, 62a6 <sx1509b_init+0xc8>
	uint8_t tx_buf[3] = { reg_addr, value };
    6288:	221f      	movs	r2, #31
		rc = i2c_reg_write_byte_be(
    628a:	6868      	ldr	r0, [r5, #4]
    628c:	8933      	ldrh	r3, [r6, #8]
	uint8_t tx_buf[3] = { reg_addr, value };
    628e:	f88d 2004 	strb.w	r2, [sp, #4]
    6292:	2298      	movs	r2, #152	; 0x98
    6294:	f88d 2005 	strb.w	r2, [sp, #5]
	return i2c_write(dev, tx_buf, 2, dev_addr);
    6298:	a901      	add	r1, sp, #4
    629a:	2202      	movs	r2, #2
	uint8_t tx_buf[3] = { reg_addr, value };
    629c:	f88d 7006 	strb.w	r7, [sp, #6]
	return i2c_write(dev, tx_buf, 2, dev_addr);
    62a0:	f7ff ff03 	bl	60aa <i2c_write>
    62a4:	4604      	mov	r4, r0
	z_impl_k_sem_give(sem);
    62a6:	f105 0020 	add.w	r0, r5, #32
    62aa:	f7fe fd71 	bl	4d90 <z_impl_k_sem_give>
	} else {
		LOG_INF("%s init ok", dev->name);
	}
	k_sem_give(&drv_data->lock);
	return rc;
}
    62ae:	4620      	mov	r0, r4
    62b0:	b002      	add	sp, #8
    62b2:	e8bd 81f0 	ldmia.w	sp!, {r4, r5, r6, r7, r8, pc}
		rc = -EINVAL;
    62b6:	f06f 0415 	mvn.w	r4, #21
    62ba:	e7f4      	b.n	62a6 <sx1509b_init+0xc8>

000062bc <sx1509b_config>:
{
    62bc:	e92d 4ff7 	stmdb	sp!, {r0, r1, r2, r4, r5, r6, r7, r8, r9, sl, fp, lr}
	const struct sx1509b_config *cfg = dev->config;
    62c0:	f8d0 a004 	ldr.w	sl, [r0, #4]
	struct sx1509b_drv_data *drv_data = dev->data;
    62c4:	6904      	ldr	r4, [r0, #16]
{
    62c6:	460d      	mov	r5, r1
    62c8:	4617      	mov	r7, r2
	if (k_is_in_isr()) {
    62ca:	f000 fb96 	bl	69fa <k_is_in_isr>
    62ce:	4683      	mov	fp, r0
    62d0:	2800      	cmp	r0, #0
    62d2:	f040 808c 	bne.w	63ee <sx1509b_config+0x132>
	if ((flags & GPIO_DS_ALT) != 0) {
    62d6:	f417 0fa0 	tst.w	r7, #5242880	; 0x500000
    62da:	f040 808b 	bne.w	63f4 <sx1509b_config+0x138>
	k_sem_take(&drv_data->lock, K_FOREVER);
    62de:	f104 0920 	add.w	r9, r4, #32
    62e2:	f04f 33ff 	mov.w	r3, #4294967295	; 0xffffffff
    62e6:	f04f 32ff 	mov.w	r2, #4294967295	; 0xffffffff
    62ea:	4648      	mov	r0, r9
    62ec:	f7ff fedb 	bl	60a6 <k_sem_take.constprop.0.isra.0>
		drv_data->led_drv_enable &= ~BIT(pin);
    62f0:	2601      	movs	r6, #1
	if (drv_data->led_drv_enable & BIT(pin)) {
    62f2:	8b63      	ldrh	r3, [r4, #26]
		drv_data->led_drv_enable &= ~BIT(pin);
    62f4:	40ae      	lsls	r6, r5
    62f6:	b2b6      	uxth	r6, r6
	if (drv_data->led_drv_enable & BIT(pin)) {
    62f8:	fa23 f505 	lsr.w	r5, r3, r5
		drv_data->led_drv_enable &= ~BIT(pin);
    62fc:	ea6f 0806 	mvn.w	r8, r6
	if (drv_data->led_drv_enable & BIT(pin)) {
    6300:	07e9      	lsls	r1, r5, #31
		drv_data->led_drv_enable &= ~BIT(pin);
    6302:	fa1f f888 	uxth.w	r8, r8
	if (drv_data->led_drv_enable & BIT(pin)) {
    6306:	d44f      	bmi.n	63a8 <sx1509b_config+0xec>
	pins->open_drain &= ~BIT(pin);
    6308:	8a63      	ldrh	r3, [r4, #18]
    630a:	ea03 0208 	and.w	r2, r3, r8
    630e:	8262      	strh	r2, [r4, #18]
	if ((flags & GPIO_SINGLE_ENDED) != 0) {
    6310:	07ba      	lsls	r2, r7, #30
    6312:	d45c      	bmi.n	63ce <sx1509b_config+0x112>
		pins->pull_up |= BIT(pin);
    6314:	89e3      	ldrh	r3, [r4, #14]
	if ((flags & GPIO_PULL_UP) != 0) {
    6316:	06f8      	lsls	r0, r7, #27
		pins->pull_up |= BIT(pin);
    6318:	bf4c      	ite	mi
    631a:	4333      	orrmi	r3, r6
		pins->pull_up &= ~BIT(pin);
    631c:	ea08 0303 	andpl.w	r3, r8, r3
    6320:	81e3      	strh	r3, [r4, #14]
		pins->pull_down |= BIT(pin);
    6322:	8a23      	ldrh	r3, [r4, #16]
	if ((flags & GPIO_PULL_DOWN) != 0) {
    6324:	06b9      	lsls	r1, r7, #26
		pins->pull_down |= BIT(pin);
    6326:	bf4c      	ite	mi
    6328:	4333      	orrmi	r3, r6
		pins->pull_down &= ~BIT(pin);
    632a:	ea08 0303 	andpl.w	r3, r8, r3
    632e:	8223      	strh	r3, [r4, #16]
		pins->input_disable &= ~BIT(pin);
    6330:	8923      	ldrh	r3, [r4, #8]
	if ((flags & GPIO_INPUT) != 0) {
    6332:	05fa      	lsls	r2, r7, #23
		pins->input_disable &= ~BIT(pin);
    6334:	bf4c      	ite	mi
    6336:	ea08 0303 	andmi.w	r3, r8, r3
		pins->input_disable |= BIT(pin);
    633a:	4333      	orrpl	r3, r6
	if ((flags & GPIO_OUTPUT) != 0) {
    633c:	05bd      	lsls	r5, r7, #22
    633e:	8123      	strh	r3, [r4, #8]
		pins->dir &= ~BIT(pin);
    6340:	8ae3      	ldrh	r3, [r4, #22]
	if ((flags & GPIO_OUTPUT) != 0) {
    6342:	d54e      	bpl.n	63e2 <sx1509b_config+0x126>
		pins->dir &= ~BIT(pin);
    6344:	ea08 0303 	and.w	r3, r8, r3
		if ((flags & GPIO_OUTPUT_INIT_LOW) != 0) {
    6348:	0578      	lsls	r0, r7, #21
		pins->dir &= ~BIT(pin);
    634a:	82e3      	strh	r3, [r4, #22]
		if ((flags & GPIO_OUTPUT_INIT_LOW) != 0) {
    634c:	d544      	bpl.n	63d8 <sx1509b_config+0x11c>
			pins->data &= ~BIT(pin);
    634e:	8b23      	ldrh	r3, [r4, #24]
    6350:	ea08 0303 	and.w	r3, r8, r3
			pins->data |= BIT(pin);
    6354:	8323      	strh	r3, [r4, #24]
			data_first = true;
    6356:	f04f 0b01 	mov.w	fp, #1
		debounce->debounce_enable |= BIT(pin);
    635a:	f8b4 301d 	ldrh.w	r3, [r4, #29]
	if ((flags & GPIO_INT_DEBOUNCE) != 0) {
    635e:	033a      	lsls	r2, r7, #12
		debounce->debounce_enable |= BIT(pin);
    6360:	bf4c      	ite	mi
    6362:	431e      	orrmi	r6, r3
		debounce->debounce_enable &= ~BIT(pin);
    6364:	ea08 0603 	andpl.w	r6, r8, r3
    6368:	f8a4 601d 	strh.w	r6, [r4, #29]
	rc = write_pin_state(cfg, drv_data, pins, data_first);
    636c:	465b      	mov	r3, fp
    636e:	f104 0208 	add.w	r2, r4, #8
    6372:	4621      	mov	r1, r4
    6374:	4650      	mov	r0, sl
    6376:	f7ff fef3 	bl	6160 <write_pin_state>
	if (rc == 0) {
    637a:	4605      	mov	r5, r0
    637c:	bb00      	cbnz	r0, 63c0 <sx1509b_config+0x104>
		debounce_buf.reg = SX1509B_REG_DEBOUNCE_CONFIG;
    637e:	2322      	movs	r3, #34	; 0x22
    6380:	f88d 3004 	strb.w	r3, [sp, #4]
			= debounce->debounce_config;
    6384:	7f23      	ldrb	r3, [r4, #28]
    6386:	f88d 3005 	strb.w	r3, [sp, #5]
			= sys_cpu_to_be16(debounce->debounce_enable);
    638a:	f8b4 301d 	ldrh.w	r3, [r4, #29]
		rc = i2c_write(drv_data->i2c_master,
    638e:	6860      	ldr	r0, [r4, #4]
			= sys_cpu_to_be16(debounce->debounce_enable);
    6390:	ba5b      	rev16	r3, r3
		rc = i2c_write(drv_data->i2c_master,
    6392:	2204      	movs	r2, #4
			= sys_cpu_to_be16(debounce->debounce_enable);
    6394:	f8ad 3006 	strh.w	r3, [sp, #6]
		rc = i2c_write(drv_data->i2c_master,
    6398:	eb0d 0102 	add.w	r1, sp, r2
    639c:	f8ba 3008 	ldrh.w	r3, [sl, #8]
    63a0:	f7ff fe83 	bl	60aa <i2c_write>
    63a4:	4605      	mov	r5, r0
    63a6:	e00b      	b.n	63c0 <sx1509b_config+0x104>
		drv_data->led_drv_enable &= ~BIT(pin);
    63a8:	ea03 0308 	and.w	r3, r3, r8
		rc = i2c_reg_write_word_be(drv_data->i2c_master,
    63ac:	f8ba 1008 	ldrh.w	r1, [sl, #8]
    63b0:	6860      	ldr	r0, [r4, #4]
		drv_data->led_drv_enable &= ~BIT(pin);
    63b2:	8363      	strh	r3, [r4, #26]
		rc = i2c_reg_write_word_be(drv_data->i2c_master,
    63b4:	2220      	movs	r2, #32
    63b6:	f7ff fe85 	bl	60c4 <i2c_reg_write_word_be>
		if (rc) {
    63ba:	4605      	mov	r5, r0
    63bc:	2800      	cmp	r0, #0
    63be:	d0a3      	beq.n	6308 <sx1509b_config+0x4c>
    63c0:	4648      	mov	r0, r9
    63c2:	f7fe fce5 	bl	4d90 <z_impl_k_sem_give>
}
    63c6:	4628      	mov	r0, r5
    63c8:	b003      	add	sp, #12
    63ca:	e8bd 8ff0 	ldmia.w	sp!, {r4, r5, r6, r7, r8, r9, sl, fp, pc}
		if ((flags & GPIO_LINE_OPEN_DRAIN) != 0) {
    63ce:	077d      	lsls	r5, r7, #29
    63d0:	d50a      	bpl.n	63e8 <sx1509b_config+0x12c>
			pins->open_drain |= BIT(pin);
    63d2:	4333      	orrs	r3, r6
    63d4:	8263      	strh	r3, [r4, #18]
    63d6:	e79d      	b.n	6314 <sx1509b_config+0x58>
		} else if ((flags & GPIO_OUTPUT_INIT_HIGH) != 0) {
    63d8:	0539      	lsls	r1, r7, #20
    63da:	d5be      	bpl.n	635a <sx1509b_config+0x9e>
			pins->data |= BIT(pin);
    63dc:	8b23      	ldrh	r3, [r4, #24]
    63de:	4333      	orrs	r3, r6
    63e0:	e7b8      	b.n	6354 <sx1509b_config+0x98>
		pins->dir |= BIT(pin);
    63e2:	4333      	orrs	r3, r6
    63e4:	82e3      	strh	r3, [r4, #22]
    63e6:	e7b8      	b.n	635a <sx1509b_config+0x9e>
			rc = -ENOTSUP;
    63e8:	f06f 0585 	mvn.w	r5, #133	; 0x85
    63ec:	e7e8      	b.n	63c0 <sx1509b_config+0x104>
		return -EWOULDBLOCK;
    63ee:	f06f 050a 	mvn.w	r5, #10
    63f2:	e7e8      	b.n	63c6 <sx1509b_config+0x10a>
		return -ENOTSUP;
    63f4:	f06f 0585 	mvn.w	r5, #133	; 0x85
    63f8:	e7e5      	b.n	63c6 <sx1509b_config+0x10a>

000063fa <port_get>:
{
    63fa:	e92d 41f0 	stmdb	sp!, {r4, r5, r6, r7, r8, lr}
    63fe:	b088      	sub	sp, #32
	const struct sx1509b_config *cfg = dev->config;
    6400:	f8d0 8004 	ldr.w	r8, [r0, #4]
	struct sx1509b_drv_data *drv_data = dev->data;
    6404:	6907      	ldr	r7, [r0, #16]
{
    6406:	460d      	mov	r5, r1
	if (k_is_in_isr()) {
    6408:	f000 faf7 	bl	69fa <k_is_in_isr>
    640c:	4604      	mov	r4, r0
    640e:	bb78      	cbnz	r0, 6470 <port_get+0x76>
	k_sem_take(&drv_data->lock, K_FOREVER);
    6410:	f107 0620 	add.w	r6, r7, #32
    6414:	4630      	mov	r0, r6
    6416:	f04f 32ff 	mov.w	r2, #4294967295	; 0xffffffff
    641a:	f04f 33ff 	mov.w	r3, #4294967295	; 0xffffffff
    641e:	f7ff fe42 	bl	60a6 <k_sem_take.constprop.0.isra.0>
	msg[0].buf = (uint8_t *)write_buf;
    6422:	f10d 0205 	add.w	r2, sp, #5
    6426:	9202      	str	r2, [sp, #8]
	msg[0].len = num_write;
    6428:	2201      	movs	r2, #1
	rc = i2c_write_read(drv_data->i2c_master, cfg->i2c_slave_addr,
    642a:	6878      	ldr	r0, [r7, #4]
    642c:	9203      	str	r2, [sp, #12]
	uint8_t cmd = SX1509B_REG_DATA;
    642e:	2310      	movs	r3, #16
	msg[1].buf = (uint8_t *)read_buf;
    6430:	f10d 0206 	add.w	r2, sp, #6
    6434:	f88d 3005 	strb.w	r3, [sp, #5]
	msg[1].flags = I2C_MSG_RESTART | I2C_MSG_READ | I2C_MSG_STOP;
    6438:	2107      	movs	r1, #7
	rc = i2c_write_read(drv_data->i2c_master, cfg->i2c_slave_addr,
    643a:	f8b8 3008 	ldrh.w	r3, [r8, #8]
	msg[1].buf = (uint8_t *)read_buf;
    643e:	9205      	str	r2, [sp, #20]
	msg[1].len = num_read;
    6440:	2202      	movs	r2, #2
	msg[0].flags = I2C_MSG_WRITE;
    6442:	f88d 4010 	strb.w	r4, [sp, #16]
	msg[1].len = num_read;
    6446:	9206      	str	r2, [sp, #24]
	msg[1].flags = I2C_MSG_RESTART | I2C_MSG_READ | I2C_MSG_STOP;
    6448:	f88d 101c 	strb.w	r1, [sp, #28]
	int res =  api->transfer(dev, msgs, num_msgs, addr);
    644c:	6881      	ldr	r1, [r0, #8]
    644e:	688c      	ldr	r4, [r1, #8]
    6450:	a902      	add	r1, sp, #8
    6452:	47a0      	blx	r4
	if (rc != 0) {
    6454:	4604      	mov	r4, r0
    6456:	b920      	cbnz	r0, 6462 <port_get+0x68>
	*value = sys_be16_to_cpu(pin_data);
    6458:	f8bd 3006 	ldrh.w	r3, [sp, #6]
    645c:	ba5b      	rev16	r3, r3
    645e:	b29b      	uxth	r3, r3
    6460:	602b      	str	r3, [r5, #0]
    6462:	4630      	mov	r0, r6
    6464:	f7fe fc94 	bl	4d90 <z_impl_k_sem_give>
}
    6468:	4620      	mov	r0, r4
    646a:	b008      	add	sp, #32
    646c:	e8bd 81f0 	ldmia.w	sp!, {r4, r5, r6, r7, r8, pc}
		return -EWOULDBLOCK;
    6470:	f06f 040a 	mvn.w	r4, #10
    6474:	e7f8      	b.n	6468 <port_get+0x6e>

00006476 <i2c_nrfx_twim_configure>:
	if (I2C_ADDR_10_BITS & dev_config) {
    6476:	07ca      	lsls	r2, r1, #31
	const struct i2c_nrfx_twim_config *config = dev->config;
    6478:	6843      	ldr	r3, [r0, #4]
	struct i2c_nrfx_twim_data *data = dev->data;
    647a:	6900      	ldr	r0, [r0, #16]
	if (I2C_ADDR_10_BITS & dev_config) {
    647c:	d405      	bmi.n	648a <i2c_nrfx_twim_configure+0x14>
	switch (I2C_SPEED_GET(dev_config)) {
    647e:	f3c1 0242 	ubfx	r2, r1, #1, #3
    6482:	2a01      	cmp	r2, #1
    6484:	d004      	beq.n	6490 <i2c_nrfx_twim_configure+0x1a>
    6486:	2a02      	cmp	r2, #2
    6488:	d00a      	beq.n	64a0 <i2c_nrfx_twim_configure+0x2a>
		return -EINVAL;
    648a:	f06f 0015 	mvn.w	r0, #21
}
    648e:	4770      	bx	lr
		nrf_twim_frequency_set(inst->p_twim, NRF_TWIM_FREQ_100K);
    6490:	681b      	ldr	r3, [r3, #0]
    p_reg->FREQUENCY = frequency;
    6492:	f04f 72cc 	mov.w	r2, #26738688	; 0x1980000
    6496:	f8c3 2524 	str.w	r2, [r3, #1316]	; 0x524
	data->dev_config = dev_config;
    649a:	6241      	str	r1, [r0, #36]	; 0x24
	return 0;
    649c:	2000      	movs	r0, #0
    649e:	4770      	bx	lr
		nrf_twim_frequency_set(inst->p_twim, NRF_TWIM_FREQ_400K);
    64a0:	681b      	ldr	r3, [r3, #0]
    64a2:	f04f 62c8 	mov.w	r2, #104857600	; 0x6400000
    64a6:	e7f6      	b.n	6496 <i2c_nrfx_twim_configure+0x20>

000064a8 <hts221_sample_fetch>:
{
    64a8:	b513      	push	{r0, r1, r4, lr}
	status = hts221_read_reg(ctx, HTS221_HUMIDITY_OUT_L |
    64aa:	2304      	movs	r3, #4
	struct hts221_data *data = dev->data;
    64ac:	6904      	ldr	r4, [r0, #16]
	status = hts221_read_reg(ctx, HTS221_HUMIDITY_OUT_L |
    64ae:	6840      	ldr	r0, [r0, #4]
    64b0:	eb0d 0203 	add.w	r2, sp, r3
    64b4:	21a8      	movs	r1, #168	; 0xa8
    64b6:	f7ff fc4d 	bl	5d54 <hts221_read_reg>
	if (status < 0) {
    64ba:	2800      	cmp	r0, #0
    64bc:	db06      	blt.n	64cc <hts221_sample_fetch+0x24>
	data->rh_sample = sys_le16_to_cpu(buf[0] | (buf[1] << 8));
    64be:	f8bd 3004 	ldrh.w	r3, [sp, #4]
    64c2:	8023      	strh	r3, [r4, #0]
	data->t_sample = sys_le16_to_cpu(buf[2] | (buf[3] << 8));
    64c4:	f8bd 3006 	ldrh.w	r3, [sp, #6]
    64c8:	8063      	strh	r3, [r4, #2]
	return 0;
    64ca:	2000      	movs	r0, #0
}
    64cc:	b002      	add	sp, #8
    64ce:	bd10      	pop	{r4, pc}

000064d0 <stmemsc_i2c_read>:

#include "stmemsc.h"

int stmemsc_i2c_read(const struct i2c_dt_spec *stmemsc,
			     uint8_t reg_addr, uint8_t *value, uint8_t len)
{
    64d0:	b530      	push	{r4, r5, lr}
    64d2:	b089      	sub	sp, #36	; 0x24
    64d4:	4604      	mov	r4, r0
    64d6:	f88d 1007 	strb.w	r1, [sp, #7]
	msg[0].buf = (uint8_t *)write_buf;
    64da:	f10d 0107 	add.w	r1, sp, #7
    64de:	461d      	mov	r5, r3
    64e0:	9102      	str	r1, [sp, #8]
	msg[0].len = num_write;
    64e2:	2101      	movs	r1, #1
	return i2c_burst_read_dt(stmemsc, reg_addr, value, len);
    64e4:	e9cd 2505 	strd	r2, r5, [sp, #20]
    64e8:	9103      	str	r1, [sp, #12]
	msg[1].flags = I2C_MSG_RESTART | I2C_MSG_READ | I2C_MSG_STOP;
    64ea:	2207      	movs	r2, #7
	msg[0].flags = I2C_MSG_WRITE;
    64ec:	2100      	movs	r1, #0
	return i2c_burst_read(spec->bus, spec->addr,
    64ee:	6800      	ldr	r0, [r0, #0]
    64f0:	88a3      	ldrh	r3, [r4, #4]
	msg[0].flags = I2C_MSG_WRITE;
    64f2:	f88d 1010 	strb.w	r1, [sp, #16]
	msg[1].flags = I2C_MSG_RESTART | I2C_MSG_READ | I2C_MSG_STOP;
    64f6:	f88d 201c 	strb.w	r2, [sp, #28]
	int res =  api->transfer(dev, msgs, num_msgs, addr);
    64fa:	6882      	ldr	r2, [r0, #8]
    64fc:	a902      	add	r1, sp, #8
    64fe:	6894      	ldr	r4, [r2, #8]
    6500:	2202      	movs	r2, #2
    6502:	47a0      	blx	r4
}
    6504:	b009      	add	sp, #36	; 0x24
    6506:	bd30      	pop	{r4, r5, pc}

00006508 <stmemsc_i2c_write>:

int stmemsc_i2c_write(const struct i2c_dt_spec *stmemsc,
			      uint8_t reg_addr, uint8_t *value, uint8_t len)
{
    6508:	b530      	push	{r4, r5, lr}
    650a:	b089      	sub	sp, #36	; 0x24
    650c:	4604      	mov	r4, r0
    650e:	f88d 1007 	strb.w	r1, [sp, #7]
	msg[0].buf = &start_addr;
    6512:	f10d 0107 	add.w	r1, sp, #7
    6516:	461d      	mov	r5, r3
    6518:	9102      	str	r1, [sp, #8]
	msg[0].len = 1U;
    651a:	2101      	movs	r1, #1
	return i2c_burst_write_dt(stmemsc, reg_addr, value, len);
    651c:	e9cd 2505 	strd	r2, r5, [sp, #20]
    6520:	9103      	str	r1, [sp, #12]
	msg[1].flags = I2C_MSG_WRITE | I2C_MSG_STOP;
    6522:	2202      	movs	r2, #2
	msg[0].flags = I2C_MSG_WRITE;
    6524:	2100      	movs	r1, #0
	return i2c_burst_write(spec->bus, spec->addr,
    6526:	6800      	ldr	r0, [r0, #0]
    6528:	88a3      	ldrh	r3, [r4, #4]
	msg[0].flags = I2C_MSG_WRITE;
    652a:	f88d 1010 	strb.w	r1, [sp, #16]
	msg[1].flags = I2C_MSG_WRITE | I2C_MSG_STOP;
    652e:	f88d 201c 	strb.w	r2, [sp, #28]
	int res =  api->transfer(dev, msgs, num_msgs, addr);
    6532:	6881      	ldr	r1, [r0, #8]
    6534:	688c      	ldr	r4, [r1, #8]
    6536:	a902      	add	r1, sp, #8
    6538:	47a0      	blx	r4
}
    653a:	b009      	add	sp, #36	; 0x24
    653c:	bd30      	pop	{r4, r5, pc}

0000653e <gpio_pin_set_dt>:
 * @param spec GPIO specification from devicetree
 * @param value Value assigned to the pin.
 * @return a value from gpio_pin_set()
 */
static inline int gpio_pin_set_dt(const struct gpio_dt_spec *spec, int value)
{
    653e:	4603      	mov	r3, r0
    6540:	460a      	mov	r2, r1
	return gpio_pin_set(spec->port, spec->pin, value);
    6542:	6800      	ldr	r0, [r0, #0]
	if (data->invert & (gpio_port_pins_t)BIT(pin)) {
    6544:	7919      	ldrb	r1, [r3, #4]
    6546:	2301      	movs	r3, #1
    6548:	fa03 f101 	lsl.w	r1, r3, r1
    654c:	6903      	ldr	r3, [r0, #16]
    654e:	681b      	ldr	r3, [r3, #0]
    6550:	4219      	tst	r1, r3
		value = (value != 0) ? 0 : 1;
    6552:	bf18      	it	ne
    6554:	f082 0201 	eorne.w	r2, r2, #1
	if (value != 0)	{
    6558:	b112      	cbz	r2, 6560 <gpio_pin_set_dt+0x22>
	return api->port_set_bits_raw(port, pins);
    655a:	6883      	ldr	r3, [r0, #8]
    655c:	68db      	ldr	r3, [r3, #12]
	return api->port_clear_bits_raw(port, pins);
    655e:	4718      	bx	r3
    6560:	6883      	ldr	r3, [r0, #8]
    6562:	691b      	ldr	r3, [r3, #16]
    6564:	e7fb      	b.n	655e <gpio_pin_set_dt+0x20>

00006566 <disable_sync>:

	return onoff_sync_finalize(&data->srv, key, cli, rc, true);
}

static int disable_sync(const struct device *dev)
{
    6566:	b530      	push	{r4, r5, lr}
	struct driver_data_sync *data = dev->data;
	const struct driver_config *cfg = dev->config;
	k_spinlock_key_t key;
	int rc = onoff_sync_lock(&data->srv, &key);
    6568:	6904      	ldr	r4, [r0, #16]
	const struct driver_config *cfg = dev->config;
    656a:	6845      	ldr	r5, [r0, #4]
{
    656c:	b085      	sub	sp, #20
	int rc = onoff_sync_lock(&data->srv, &key);
    656e:	a903      	add	r1, sp, #12
    6570:	4620      	mov	r0, r4
    6572:	f7ff fb2d 	bl	5bd0 <onoff_sync_lock>

	if  ((cfg->options & OPTION_ALWAYS_ON) != 0) {
    6576:	7d29      	ldrb	r1, [r5, #20]
    6578:	f011 0101 	ands.w	r1, r1, #1
	int rc = onoff_sync_lock(&data->srv, &key);
    657c:	4603      	mov	r3, r0
	if  ((cfg->options & OPTION_ALWAYS_ON) != 0) {
    657e:	d114      	bne.n	65aa <disable_sync+0x44>
		rc = 0;
	} else if (rc == 1) {
    6580:	2801      	cmp	r0, #1
    6582:	d10c      	bne.n	659e <disable_sync+0x38>
		rc = gpio_pin_set_dt(&cfg->enable, false);
    6584:	f105 000c 	add.w	r0, r5, #12
    6588:	f7ff ffd9 	bl	653e <gpio_pin_set_dt>
    658c:	4603      	mov	r3, r0
	} else if (rc == 0) {
		rc = -EINVAL;
	} /* else rc > 0, leave it on */

	return onoff_sync_finalize(&data->srv, key, NULL, rc, false);
    658e:	2200      	movs	r2, #0
    6590:	9903      	ldr	r1, [sp, #12]
    6592:	9200      	str	r2, [sp, #0]
    6594:	4620      	mov	r0, r4
    6596:	f7ff fb26 	bl	5be6 <onoff_sync_finalize>
}
    659a:	b005      	add	sp, #20
    659c:	bd30      	pop	{r4, r5, pc}
		rc = -EINVAL;
    659e:	2800      	cmp	r0, #0
    65a0:	bf14      	ite	ne
    65a2:	4603      	movne	r3, r0
    65a4:	f06f 0315 	mvneq.w	r3, #21
    65a8:	e7f1      	b.n	658e <disable_sync+0x28>
		rc = 0;
    65aa:	2300      	movs	r3, #0
    65ac:	e7ef      	b.n	658e <disable_sync+0x28>

000065ae <enable_sync>:
{
    65ae:	b57f      	push	{r0, r1, r2, r3, r4, r5, r6, lr}
	int rc = onoff_sync_lock(&data->srv, &key);
    65b0:	6905      	ldr	r5, [r0, #16]
	const struct driver_config *cfg = dev->config;
    65b2:	6846      	ldr	r6, [r0, #4]
{
    65b4:	460c      	mov	r4, r1
	int rc = onoff_sync_lock(&data->srv, &key);
    65b6:	4628      	mov	r0, r5
    65b8:	a903      	add	r1, sp, #12
    65ba:	f7ff fb09 	bl	5bd0 <onoff_sync_lock>
	if ((rc == 0)
    65be:	4603      	mov	r3, r0
    65c0:	b940      	cbnz	r0, 65d4 <enable_sync+0x26>
	    && ((cfg->options & OPTION_ALWAYS_ON) == 0)) {
    65c2:	7d32      	ldrb	r2, [r6, #20]
    65c4:	07d2      	lsls	r2, r2, #31
    65c6:	d405      	bmi.n	65d4 <enable_sync+0x26>
		rc = gpio_pin_set_dt(&cfg->enable, true);
    65c8:	2101      	movs	r1, #1
    65ca:	f106 000c 	add.w	r0, r6, #12
    65ce:	f7ff ffb6 	bl	653e <gpio_pin_set_dt>
    65d2:	4603      	mov	r3, r0
	return onoff_sync_finalize(&data->srv, key, cli, rc, true);
    65d4:	2201      	movs	r2, #1
    65d6:	9200      	str	r2, [sp, #0]
    65d8:	9903      	ldr	r1, [sp, #12]
    65da:	4622      	mov	r2, r4
    65dc:	4628      	mov	r0, r5
    65de:	f7ff fb02 	bl	5be6 <onoff_sync_finalize>
}
    65e2:	b004      	add	sp, #16
    65e4:	bd70      	pop	{r4, r5, r6, pc}

000065e6 <disable_onoff>:
	return onoff_release(&data->mgr);
    65e6:	6900      	ldr	r0, [r0, #16]
    65e8:	3004      	adds	r0, #4
    65ea:	f7ff bacc 	b.w	5b86 <onoff_release>

000065ee <enable_onoff>:
	return onoff_request(&data->mgr, cli);
    65ee:	6900      	ldr	r0, [r0, #16]
    65f0:	3004      	adds	r0, #4
    65f2:	f7ff ba7f 	b.w	5af4 <onoff_request>

000065f6 <common_init.isra.0>:
static int common_init(const struct device *dev)
    65f6:	b5f8      	push	{r3, r4, r5, r6, r7, lr}
    65f8:	4605      	mov	r5, r0
	if (!device_is_ready(cfg->enable.port)) {
    65fa:	68c0      	ldr	r0, [r0, #12]
    65fc:	f000 f9cc 	bl	6998 <z_device_is_ready>
    6600:	b340      	cbz	r0, 6654 <common_init.isra.0+0x5e>
	if (on) {
    6602:	7d2c      	ldrb	r4, [r5, #20]
				  spec->dt_flags | extra_flags);
    6604:	7c6b      	ldrb	r3, [r5, #17]
	return gpio_pin_configure(spec->port,
    6606:	68e8      	ldr	r0, [r5, #12]
    6608:	7c29      	ldrb	r1, [r5, #16]
    660a:	f014 0403 	ands.w	r4, r4, #3
		flags = GPIO_OUTPUT_ACTIVE;
    660e:	bf16      	itet	ne
    6610:	f44f 52d0 	movne.w	r2, #6656	; 0x1a00
		flags = GPIO_OUTPUT_INACTIVE;
    6614:	f44f 52b0 	moveq.w	r2, #5632	; 0x1600
		delay_us = cfg->startup_delay_us;
    6618:	686c      	ldrne	r4, [r5, #4]
    661a:	4313      	orrs	r3, r2
	struct gpio_driver_data *data =
    661c:	6907      	ldr	r7, [r0, #16]
	const struct gpio_driver_api *api =
    661e:	f8d0 c008 	ldr.w	ip, [r0, #8]
		data->invert |= (gpio_port_pins_t)BIT(pin);
    6622:	683d      	ldr	r5, [r7, #0]
	    && ((flags & GPIO_ACTIVE_LOW) != 0)) {
    6624:	07da      	lsls	r2, r3, #31
		flags ^= GPIO_OUTPUT_INIT_LOW | GPIO_OUTPUT_INIT_HIGH;
    6626:	bf48      	it	mi
    6628:	f483 6340 	eormi.w	r3, r3, #3072	; 0xc00
		data->invert |= (gpio_port_pins_t)BIT(pin);
    662c:	2601      	movs	r6, #1
	flags &= ~GPIO_OUTPUT_INIT_LOGICAL;
    662e:	f423 5280 	bic.w	r2, r3, #4096	; 0x1000
		data->invert |= (gpio_port_pins_t)BIT(pin);
    6632:	408e      	lsls	r6, r1
	if ((flags & GPIO_ACTIVE_LOW) != 0) {
    6634:	07db      	lsls	r3, r3, #31
		data->invert |= (gpio_port_pins_t)BIT(pin);
    6636:	bf4c      	ite	mi
    6638:	4335      	orrmi	r5, r6
		data->invert &= ~(gpio_port_pins_t)BIT(pin);
    663a:	43b5      	bicpl	r5, r6
    663c:	603d      	str	r5, [r7, #0]
	return api->pin_configure(port, pin, flags);
    663e:	f8dc 3000 	ldr.w	r3, [ip]
    6642:	4798      	blx	r3
	if ((rc == 0) && (delay_us > 0)) {
    6644:	4605      	mov	r5, r0
    6646:	b918      	cbnz	r0, 6650 <common_init.isra.0+0x5a>
    6648:	b114      	cbz	r4, 6650 <common_init.isra.0+0x5a>
	z_impl_k_busy_wait(usec_to_wait);
    664a:	4620      	mov	r0, r4
    664c:	f000 fb27 	bl	6c9e <z_impl_k_busy_wait>
}
    6650:	4628      	mov	r0, r5
    6652:	bdf8      	pop	{r3, r4, r5, r6, r7, pc}
		return -ENODEV;
    6654:	f06f 0512 	mvn.w	r5, #18
    6658:	e7fa      	b.n	6650 <common_init.isra.0+0x5a>

0000665a <regulator_fixed_init_sync>:
};

static int regulator_fixed_init_sync(const struct device *dev)
{
	const struct driver_config *cfg = dev->config;
	int rc = common_init(dev);
    665a:	6840      	ldr	r0, [r0, #4]
    665c:	f7ff bfcb 	b.w	65f6 <common_init.isra.0>

00006660 <onoff_worker>:
{
    6660:	e92d 41f0 	stmdb	sp!, {r4, r5, r6, r7, r8, lr}
	if (data->task == WORK_TASK_ENABLE) {
    6664:	f890 1034 	ldrb.w	r1, [r0, #52]	; 0x34
	const struct driver_config *cfg = data->dev->config;
    6668:	f850 3c20 	ldr.w	r3, [r0, #-32]
	onoff_notify_fn notify = data->notify;
    666c:	6b07      	ldr	r7, [r0, #48]	; 0x30
	const struct driver_config *cfg = data->dev->config;
    666e:	685d      	ldr	r5, [r3, #4]
	if (data->task == WORK_TASK_ENABLE) {
    6670:	2901      	cmp	r1, #1
{
    6672:	4604      	mov	r4, r0
	struct driver_data_onoff *data
    6674:	f1a0 0620 	sub.w	r6, r0, #32
	if (data->task == WORK_TASK_ENABLE) {
    6678:	d10f      	bne.n	669a <onoff_worker+0x3a>
		rc = gpio_pin_set_dt(&cfg->enable, true);
    667a:	f105 000c 	add.w	r0, r5, #12
    667e:	f7ff ff5e 	bl	653e <gpio_pin_set_dt>
		delay_us = cfg->startup_delay_us;
    6682:	686a      	ldr	r2, [r5, #4]
		rc = gpio_pin_set_dt(&cfg->enable, true);
    6684:	4603      	mov	r3, r0
	data->notify = NULL;
    6686:	2100      	movs	r1, #0
    6688:	6321      	str	r1, [r4, #48]	; 0x30
	data->task = WORK_TASK_UNDEFINED;
    668a:	f884 1034 	strb.w	r1, [r4, #52]	; 0x34
	finalize_transition(data, notify, delay_us, rc);
    668e:	4630      	mov	r0, r6
    6690:	4639      	mov	r1, r7
}
    6692:	e8bd 41f0 	ldmia.w	sp!, {r4, r5, r6, r7, r8, lr}
	finalize_transition(data, notify, delay_us, rc);
    6696:	f7fc bc35 	b.w	2f04 <finalize_transition>
	} else if (data->task == WORK_TASK_DISABLE) {
    669a:	2902      	cmp	r1, #2
    669c:	d107      	bne.n	66ae <onoff_worker+0x4e>
		rc = gpio_pin_set_dt(&cfg->enable, false);
    669e:	2100      	movs	r1, #0
    66a0:	f105 000c 	add.w	r0, r5, #12
    66a4:	f7ff ff4b 	bl	653e <gpio_pin_set_dt>
		delay_us = cfg->off_on_delay_us;
    66a8:	68aa      	ldr	r2, [r5, #8]
		rc = gpio_pin_set_dt(&cfg->enable, false);
    66aa:	4603      	mov	r3, r0
		delay_us = cfg->off_on_delay_us;
    66ac:	e7eb      	b.n	6686 <onoff_worker+0x26>
	int rc = 0;
    66ae:	2300      	movs	r3, #0
	uint32_t delay_us = 0;
    66b0:	461a      	mov	r2, r3
    66b2:	e7e8      	b.n	6686 <onoff_worker+0x26>

000066b4 <stop>:
{
    66b4:	e92d 41f0 	stmdb	sp!, {r4, r5, r6, r7, r8, lr}
	const struct driver_config *cfg = data->dev->config;
    66b8:	f850 3c04 	ldr.w	r3, [r0, #-4]
{
    66bc:	4604      	mov	r4, r0
	struct driver_data_onoff *data =
    66be:	1f06      	subs	r6, r0, #4
	const struct driver_config *cfg = data->dev->config;
    66c0:	6858      	ldr	r0, [r3, #4]
{
    66c2:	460d      	mov	r5, r1
	if ((cfg->options & OPTION_ALWAYS_ON) != 0) {
    66c4:	7d01      	ldrb	r1, [r0, #20]
    66c6:	f011 0101 	ands.w	r1, r1, #1
    66ca:	d113      	bne.n	66f4 <stop+0x40>
	uint32_t delay_us = cfg->off_on_delay_us;
    66cc:	6887      	ldr	r7, [r0, #8]
	rc = gpio_pin_set_dt(&cfg->enable, false);
    66ce:	300c      	adds	r0, #12
    66d0:	f7ff ff35 	bl	653e <gpio_pin_set_dt>
	if (rc == -EWOULDBLOCK) {
    66d4:	f110 0f0b 	cmn.w	r0, #11
	rc = gpio_pin_set_dt(&cfg->enable, false);
    66d8:	4603      	mov	r3, r0
	if (rc == -EWOULDBLOCK) {
    66da:	d10d      	bne.n	66f8 <stop+0x44>
		data->task = WORK_TASK_DISABLE;
    66dc:	2302      	movs	r3, #2
    66de:	f884 3050 	strb.w	r3, [r4, #80]	; 0x50
		data->notify = notify;
    66e2:	64e5      	str	r5, [r4, #76]	; 0x4c
		k_work_schedule(&data->dwork, K_NO_WAIT);
    66e4:	f104 001c 	add.w	r0, r4, #28
    66e8:	2200      	movs	r2, #0
}
    66ea:	e8bd 41f0 	ldmia.w	sp!, {r4, r5, r6, r7, r8, lr}
		k_work_schedule(&data->dwork, K_NO_WAIT);
    66ee:	2300      	movs	r3, #0
    66f0:	f7fe bcde 	b.w	50b0 <k_work_schedule>
	int rc = 0;
    66f4:	2300      	movs	r3, #0
		delay_us = 0;
    66f6:	461f      	mov	r7, r3
	finalize_transition(data, notify, delay_us, rc);
    66f8:	463a      	mov	r2, r7
    66fa:	4629      	mov	r1, r5
    66fc:	4630      	mov	r0, r6
}
    66fe:	e8bd 41f0 	ldmia.w	sp!, {r4, r5, r6, r7, r8, lr}
	finalize_transition(data, notify, delay_us, rc);
    6702:	f7fc bbff 	b.w	2f04 <finalize_transition>

00006706 <start>:
{
    6706:	e92d 41f0 	stmdb	sp!, {r4, r5, r6, r7, r8, lr}
	const struct driver_config *cfg = data->dev->config;
    670a:	f850 3c04 	ldr.w	r3, [r0, #-4]
{
    670e:	4604      	mov	r4, r0
	struct driver_data_onoff *data =
    6710:	1f07      	subs	r7, r0, #4
	const struct driver_config *cfg = data->dev->config;
    6712:	6858      	ldr	r0, [r3, #4]
	if ((cfg->options & OPTION_ALWAYS_ON) != 0) {
    6714:	7d03      	ldrb	r3, [r0, #20]
    6716:	07db      	lsls	r3, r3, #31
{
    6718:	460d      	mov	r5, r1
	if ((cfg->options & OPTION_ALWAYS_ON) != 0) {
    671a:	d414      	bmi.n	6746 <start+0x40>
	uint32_t delay_us = cfg->startup_delay_us;
    671c:	6846      	ldr	r6, [r0, #4]
	rc = gpio_pin_set_dt(&cfg->enable, true);
    671e:	2101      	movs	r1, #1
    6720:	300c      	adds	r0, #12
    6722:	f7ff ff0c 	bl	653e <gpio_pin_set_dt>
	if (rc == -EWOULDBLOCK) {
    6726:	f110 0f0b 	cmn.w	r0, #11
	rc = gpio_pin_set_dt(&cfg->enable, true);
    672a:	4603      	mov	r3, r0
	if (rc == -EWOULDBLOCK) {
    672c:	d10d      	bne.n	674a <start+0x44>
		data->task = WORK_TASK_ENABLE;
    672e:	2301      	movs	r3, #1
    6730:	f884 3050 	strb.w	r3, [r4, #80]	; 0x50
		data->notify = notify;
    6734:	64e5      	str	r5, [r4, #76]	; 0x4c
		k_work_schedule(&data->dwork, K_NO_WAIT);
    6736:	f104 001c 	add.w	r0, r4, #28
    673a:	2200      	movs	r2, #0
}
    673c:	e8bd 41f0 	ldmia.w	sp!, {r4, r5, r6, r7, r8, lr}
		k_work_schedule(&data->dwork, K_NO_WAIT);
    6740:	2300      	movs	r3, #0
    6742:	f7fe bcb5 	b.w	50b0 <k_work_schedule>
	int rc = 0;
    6746:	2300      	movs	r3, #0
		delay_us = 0;
    6748:	461e      	mov	r6, r3
	finalize_transition(data, notify, delay_us, rc);
    674a:	4632      	mov	r2, r6
    674c:	4629      	mov	r1, r5
    674e:	4638      	mov	r0, r7
}
    6750:	e8bd 41f0 	ldmia.w	sp!, {r4, r5, r6, r7, r8, lr}
	finalize_transition(data, notify, delay_us, rc);
    6754:	f7fc bbd6 	b.w	2f04 <finalize_transition>

00006758 <uarte_nrfx_config_get>:
	*cfg = data->uart_config;
    6758:	6902      	ldr	r2, [r0, #16]
{
    675a:	460b      	mov	r3, r1
	*cfg = data->uart_config;
    675c:	e9d2 0101 	ldrd	r0, r1, [r2, #4]
    6760:	e883 0003 	stmia.w	r3, {r0, r1}
}
    6764:	2000      	movs	r0, #0
    6766:	4770      	bx	lr

00006768 <uarte_nrfx_err_check>:
	return config->uarte_regs;
    6768:	6843      	ldr	r3, [r0, #4]
    676a:	681b      	ldr	r3, [r3, #0]
    uint32_t errsrc_mask = p_reg->ERRORSRC;
    676c:	f8d3 0480 	ldr.w	r0, [r3, #1152]	; 0x480
    p_reg->ERRORSRC = errsrc_mask;
    6770:	f8c3 0480 	str.w	r0, [r3, #1152]	; 0x480
}
    6774:	4770      	bx	lr

00006776 <uarte_nrfx_poll_in>:
	return config->uarte_regs;
    6776:	6843      	ldr	r3, [r0, #4]
	const struct uarte_nrfx_data *data = dev->data;
    6778:	6902      	ldr	r2, [r0, #16]
	return config->uarte_regs;
    677a:	681b      	ldr	r3, [r3, #0]
    return (bool)*(volatile uint32_t *)((uint8_t *)p_reg + (uint32_t)event);
    677c:	f8d3 0110 	ldr.w	r0, [r3, #272]	; 0x110
	if (!nrf_uarte_event_check(uarte, NRF_UARTE_EVENT_ENDRX)) {
    6780:	b148      	cbz	r0, 6796 <uarte_nrfx_poll_in+0x20>
	*c = data->rx_data;
    6782:	7c52      	ldrb	r2, [r2, #17]
    6784:	700a      	strb	r2, [r1, #0]
    *((volatile uint32_t *)((uint8_t *)p_reg + (uint32_t)event)) = 0x0UL;
    6786:	2000      	movs	r0, #0
    6788:	f8c3 0110 	str.w	r0, [r3, #272]	; 0x110
    678c:	f8d3 2110 	ldr.w	r2, [r3, #272]	; 0x110
    *((volatile uint32_t *)((uint8_t *)p_reg + (uint32_t)task)) = 0x1UL;
    6790:	2201      	movs	r2, #1
    6792:	601a      	str	r2, [r3, #0]
	return 0;
    6794:	4770      	bx	lr
		return -1;
    6796:	f04f 30ff 	mov.w	r0, #4294967295	; 0xffffffff
}
    679a:	4770      	bx	lr

0000679c <is_tx_ready.isra.0>:
	return config->uarte_regs;
    679c:	6802      	ldr	r2, [r0, #0]
static bool is_tx_ready(const struct device *dev)
    679e:	4603      	mov	r3, r0
    return (bool)*(volatile uint32_t *)((uint8_t *)p_reg + (uint32_t)event);
    67a0:	f8d2 0158 	ldr.w	r0, [r2, #344]	; 0x158
	return nrf_uarte_event_check(uarte, NRF_UARTE_EVENT_TXSTOPPED) ||
    67a4:	b940      	cbnz	r0, 67b8 <is_tx_ready.isra.0+0x1c>
	bool ppi_endtx = config->flags & UARTE_CFG_FLAG_PPI_ENDTX;
    67a6:	685b      	ldr	r3, [r3, #4]
	return nrf_uarte_event_check(uarte, NRF_UARTE_EVENT_TXSTOPPED) ||
    67a8:	079b      	lsls	r3, r3, #30
    67aa:	d406      	bmi.n	67ba <is_tx_ready.isra.0+0x1e>
    67ac:	f8d2 0120 	ldr.w	r0, [r2, #288]	; 0x120
    67b0:	3800      	subs	r0, #0
    67b2:	bf18      	it	ne
    67b4:	2001      	movne	r0, #1
    67b6:	4770      	bx	lr
    67b8:	2001      	movs	r0, #1
}
    67ba:	4770      	bx	lr

000067bc <uarte_nrfx_isr_int>:
	const struct uarte_nrfx_config *config = dev->config;
    67bc:	6842      	ldr	r2, [r0, #4]
	return config->uarte_regs;
    67be:	6813      	ldr	r3, [r2, #0]
    return p_reg->INTENSET & mask;
    67c0:	f8d3 1304 	ldr.w	r1, [r3, #772]	; 0x304
	if (nrf_uarte_int_enable_check(uarte, NRF_UARTE_INT_ENDTX_MASK) &&
    67c4:	05c9      	lsls	r1, r1, #23
    67c6:	d518      	bpl.n	67fa <uarte_nrfx_isr_int+0x3e>
    return (bool)*(volatile uint32_t *)((uint8_t *)p_reg + (uint32_t)event);
    67c8:	f8d3 1120 	ldr.w	r1, [r3, #288]	; 0x120
    67cc:	b1a9      	cbz	r1, 67fa <uarte_nrfx_isr_int+0x3e>
	__asm__ volatile(
    67ce:	f04f 0020 	mov.w	r0, #32
    67d2:	f3ef 8111 	mrs	r1, BASEPRI
    67d6:	f380 8812 	msr	BASEPRI_MAX, r0
    67da:	f3bf 8f6f 	isb	sy
    67de:	f8d3 0120 	ldr.w	r0, [r3, #288]	; 0x120
	if (nrf_uarte_event_check(uarte, NRF_UARTE_EVENT_ENDTX)) {
    67e2:	b130      	cbz	r0, 67f2 <uarte_nrfx_isr_int+0x36>
    *((volatile uint32_t *)((uint8_t *)p_reg + (uint32_t)event)) = 0x0UL;
    67e4:	2000      	movs	r0, #0
    67e6:	f8c3 0120 	str.w	r0, [r3, #288]	; 0x120
    67ea:	f8d3 0120 	ldr.w	r0, [r3, #288]	; 0x120
    *((volatile uint32_t *)((uint8_t *)p_reg + (uint32_t)task)) = 0x1UL;
    67ee:	2001      	movs	r0, #1
    67f0:	60d8      	str	r0, [r3, #12]
	__asm__ volatile(
    67f2:	f381 8811 	msr	BASEPRI, r1
    67f6:	f3bf 8f6f 	isb	sy
	if (config->flags & UARTE_CFG_FLAG_LOW_POWER) {
    67fa:	6852      	ldr	r2, [r2, #4]
    67fc:	06d2      	lsls	r2, r2, #27
    67fe:	d515      	bpl.n	682c <uarte_nrfx_isr_int+0x70>
	__asm__ volatile(
    6800:	f04f 0120 	mov.w	r1, #32
    6804:	f3ef 8211 	mrs	r2, BASEPRI
    6808:	f381 8812 	msr	BASEPRI_MAX, r1
    680c:	f3bf 8f6f 	isb	sy
    return (bool)*(volatile uint32_t *)((uint8_t *)p_reg + (uint32_t)event);
    6810:	f8d3 1158 	ldr.w	r1, [r3, #344]	; 0x158
		if (nrf_uarte_event_check(uarte, NRF_UARTE_EVENT_TXSTOPPED)) {
    6814:	b111      	cbz	r1, 681c <uarte_nrfx_isr_int+0x60>
    p_reg->ENABLE = UARTE_ENABLE_ENABLE_Disabled;
    6816:	2100      	movs	r1, #0
    6818:	f8c3 1500 	str.w	r1, [r3, #1280]	; 0x500
    p_reg->INTENCLR = mask;
    681c:	f44f 0180 	mov.w	r1, #4194304	; 0x400000
    6820:	f8c3 1308 	str.w	r1, [r3, #776]	; 0x308
	__asm__ volatile(
    6824:	f382 8811 	msr	BASEPRI, r2
    6828:	f3bf 8f6f 	isb	sy
}
    682c:	4770      	bx	lr

0000682e <sys_clock_idle_exit>:
{
}

void __weak sys_clock_idle_exit(void)
{
}
    682e:	4770      	bx	lr

00006830 <nrf52_errata_108>:
            if (*(uint32_t *)0x10000130ul == 0xFFFFFFFF)
    6830:	f04f 5380 	mov.w	r3, #268435456	; 0x10000000
    6834:	f8d3 0130 	ldr.w	r0, [r3, #304]	; 0x130
    6838:	1c42      	adds	r2, r0, #1
                var1 = ((*(uint32_t *)0xF0000FE0ul) & 0x000000FFul);
    683a:	bf04      	itt	eq
    683c:	f04f 4370 	moveq.w	r3, #4026531840	; 0xf0000000
    6840:	f893 0fe0 	ldrbeq.w	r0, [r3, #4064]	; 0xfe0
}
    6844:	1f83      	subs	r3, r0, #6
    6846:	4258      	negs	r0, r3
    6848:	4158      	adcs	r0, r3
    684a:	4770      	bx	lr

0000684c <nrfx_isr>:
#include <nrfx.h>
#include <kernel.h>

void nrfx_isr(const void *irq_handler)
{
	((nrfx_irq_handler_t)irq_handler)();
    684c:	4700      	bx	r0

0000684e <nrfx_busy_wait>:
    684e:	f000 ba26 	b.w	6c9e <z_impl_k_busy_wait>

00006852 <nrfx_clock_enable>:
{
    6852:	b508      	push	{r3, lr}
    priority = NRFX_CLOCK_DEFAULT_CONFIG_IRQ_PRIORITY;
#else
    #error "This code is not supposed to be compiled when neither POWER nor CLOCK is enabled."
#endif

    if (!NRFX_IRQ_IS_ENABLED(nrfx_get_irq_number(NRF_CLOCK)))
    6854:	2000      	movs	r0, #0
    6856:	f7fb fafb 	bl	1e50 <arch_irq_is_enabled>
    685a:	b918      	cbnz	r0, 6864 <nrfx_clock_enable+0x12>
}
    685c:	e8bd 4008 	ldmia.w	sp!, {r3, lr}
    {
        NRFX_IRQ_PRIORITY_SET(nrfx_get_irq_number(NRF_CLOCK), priority);
        NRFX_IRQ_ENABLE(nrfx_get_irq_number(NRF_CLOCK));
    6860:	f7fb bae6 	b.w	1e30 <arch_irq_enable>
    6864:	bd08      	pop	{r3, pc}

00006866 <nrf_gpio_cfg_sense_set>:
    *p_pin = pin_number & 0x1F;
    6866:	f000 001f 	and.w	r0, r0, #31
    686a:	0080      	lsls	r0, r0, #2
    686c:	f100 40a0 	add.w	r0, r0, #1342177280	; 0x50000000
    uint32_t cnf = reg->PIN_CNF[pin_number];
    6870:	f8d0 3700 	ldr.w	r3, [r0, #1792]	; 0x700
    cnf &= ~to_update;
    6874:	f423 3340 	bic.w	r3, r3, #196608	; 0x30000
    cnf |= ((uint32_t)(p_dir   ? *p_dir   : 0) << GPIO_PIN_CNF_DIR_Pos)   |
    6878:	ea43 4301 	orr.w	r3, r3, r1, lsl #16
    reg->PIN_CNF[pin_number] = cnf;
    687c:	f8c0 3700 	str.w	r3, [r0, #1792]	; 0x700
}
    6880:	4770      	bx	lr

00006882 <xfer_completeness_check>:
    switch (p_cb->xfer_desc.type)
    6882:	7b0a      	ldrb	r2, [r1, #12]
{
    6884:	4603      	mov	r3, r0
    switch (p_cb->xfer_desc.type)
    6886:	2a03      	cmp	r2, #3
    6888:	d829      	bhi.n	68de <xfer_completeness_check+0x5c>
    688a:	e8df f002 	tbb	[pc, r2]
    688e:	2521      	.short	0x2521
    6890:	0219      	.short	0x0219
            if (((p_cb->int_mask & NRF_TWIM_INT_SUSPENDED_MASK) &&
    6892:	688a      	ldr	r2, [r1, #8]
    6894:	0350      	lsls	r0, r2, #13
    6896:	d504      	bpl.n	68a2 <xfer_completeness_check+0x20>
    return p_reg->TXD.AMOUNT;
    6898:	f8d3 254c 	ldr.w	r2, [r3, #1356]	; 0x54c
    689c:	6908      	ldr	r0, [r1, #16]
    689e:	4290      	cmp	r0, r2
    68a0:	d107      	bne.n	68b2 <xfer_completeness_check+0x30>
                (!(p_cb->int_mask & NRF_TWIM_INT_SUSPENDED_MASK) &&
    68a2:	688a      	ldr	r2, [r1, #8]
                 (nrf_twim_txd_amount_get(p_twim) != p_cb->xfer_desc.primary_length)) ||
    68a4:	0352      	lsls	r2, r2, #13
    68a6:	d41a      	bmi.n	68de <xfer_completeness_check+0x5c>
    68a8:	f8d3 254c 	ldr.w	r2, [r3, #1356]	; 0x54c
            if ((nrf_twim_txd_amount_get(p_twim) != p_cb->xfer_desc.primary_length) ||
    68ac:	6949      	ldr	r1, [r1, #20]
            if (nrf_twim_rxd_amount_get(p_twim) != p_cb->xfer_desc.primary_length)
    68ae:	4291      	cmp	r1, r2
    68b0:	d015      	beq.n	68de <xfer_completeness_check+0x5c>
    p_reg->ENABLE = (TWIM_ENABLE_ENABLE_Disabled << TWIM_ENABLE_ENABLE_Pos);
    68b2:	2000      	movs	r0, #0
    p_reg->ENABLE = (TWIM_ENABLE_ENABLE_Enabled << TWIM_ENABLE_ENABLE_Pos);
    68b4:	2206      	movs	r2, #6
    p_reg->ENABLE = (TWIM_ENABLE_ENABLE_Disabled << TWIM_ENABLE_ENABLE_Pos);
    68b6:	f8c3 0500 	str.w	r0, [r3, #1280]	; 0x500
    p_reg->ENABLE = (TWIM_ENABLE_ENABLE_Enabled << TWIM_ENABLE_ENABLE_Pos);
    68ba:	f8c3 2500 	str.w	r2, [r3, #1280]	; 0x500
}
    68be:	4770      	bx	lr
    return p_reg->TXD.AMOUNT;
    68c0:	f8d3 254c 	ldr.w	r2, [r3, #1356]	; 0x54c
            if ((nrf_twim_txd_amount_get(p_twim) != p_cb->xfer_desc.primary_length) ||
    68c4:	6908      	ldr	r0, [r1, #16]
    68c6:	4290      	cmp	r0, r2
    68c8:	d1f3      	bne.n	68b2 <xfer_completeness_check+0x30>
    return p_reg->RXD.AMOUNT;
    68ca:	f8d3 253c 	ldr.w	r2, [r3, #1340]	; 0x53c
    68ce:	e7ed      	b.n	68ac <xfer_completeness_check+0x2a>
    return p_reg->TXD.AMOUNT;
    68d0:	f8d3 254c 	ldr.w	r2, [r3, #1356]	; 0x54c
            if (nrf_twim_rxd_amount_get(p_twim) != p_cb->xfer_desc.primary_length)
    68d4:	6909      	ldr	r1, [r1, #16]
    68d6:	e7ea      	b.n	68ae <xfer_completeness_check+0x2c>
    return p_reg->RXD.AMOUNT;
    68d8:	f8d3 253c 	ldr.w	r2, [r3, #1340]	; 0x53c
    68dc:	e7fa      	b.n	68d4 <xfer_completeness_check+0x52>
    bool transfer_complete = true;
    68de:	2001      	movs	r0, #1
}
    68e0:	4770      	bx	lr

000068e2 <_GetAvailWriteSpace>:
  RdOff = pRing->RdOff;
    68e2:	6903      	ldr	r3, [r0, #16]
  WrOff = pRing->WrOff;
    68e4:	68c2      	ldr	r2, [r0, #12]
  if (RdOff <= WrOff) {
    68e6:	4293      	cmp	r3, r2
    r = pRing->SizeOfBuffer - 1u - WrOff + RdOff;
    68e8:	bf9c      	itt	ls
    68ea:	6880      	ldrls	r0, [r0, #8]
    68ec:	181b      	addls	r3, r3, r0
    r = RdOff - WrOff - 1u;
    68ee:	3b01      	subs	r3, #1
    68f0:	1a98      	subs	r0, r3, r2
}
    68f2:	4770      	bx	lr

000068f4 <_WriteNoCheck>:
static void _WriteNoCheck(SEGGER_RTT_BUFFER_UP* pRing, const char* pData, unsigned NumBytes) {
    68f4:	e92d 43f8 	stmdb	sp!, {r3, r4, r5, r6, r7, r8, r9, lr}
  Rem = pRing->SizeOfBuffer - WrOff;
    68f8:	e9d0 9402 	ldrd	r9, r4, [r0, #8]
static void _WriteNoCheck(SEGGER_RTT_BUFFER_UP* pRing, const char* pData, unsigned NumBytes) {
    68fc:	4605      	mov	r5, r0
  Rem = pRing->SizeOfBuffer - WrOff;
    68fe:	eba9 0804 	sub.w	r8, r9, r4
    pDst = (pRing->pBuffer + WrOff) + SEGGER_RTT_UNCACHED_OFF;
    6902:	6840      	ldr	r0, [r0, #4]
  if (Rem > NumBytes) {
    6904:	4590      	cmp	r8, r2
    pDst = (pRing->pBuffer + WrOff) + SEGGER_RTT_UNCACHED_OFF;
    6906:	4420      	add	r0, r4
static void _WriteNoCheck(SEGGER_RTT_BUFFER_UP* pRing, const char* pData, unsigned NumBytes) {
    6908:	460f      	mov	r7, r1
    pRing->WrOff = WrOff + NumBytes;
    690a:	4414      	add	r4, r2
  if (Rem > NumBytes) {
    690c:	d906      	bls.n	691c <_WriteNoCheck+0x28>
    SEGGER_RTT_MEMCPY((void*)pDst, pData + Rem, NumBytesAtOnce);
    690e:	f7ff faae 	bl	5e6e <memcpy>
    RTT__DMB();                     // Force data write to be complete before writing the <WrOff>, in case CPU is allowed to change the order of memory accesses
    6912:	f3bf 8f5f 	dmb	sy
    pRing->WrOff = NumBytesAtOnce;
    6916:	60ec      	str	r4, [r5, #12]
}
    6918:	e8bd 83f8 	ldmia.w	sp!, {r3, r4, r5, r6, r7, r8, r9, pc}
    SEGGER_RTT_MEMCPY((void*)pDst, pData, NumBytesAtOnce);
    691c:	4642      	mov	r2, r8
    NumBytesAtOnce = NumBytes - Rem;
    691e:	eba4 0409 	sub.w	r4, r4, r9
    SEGGER_RTT_MEMCPY((void*)pDst, pData, NumBytesAtOnce);
    6922:	f7ff faa4 	bl	5e6e <memcpy>
    SEGGER_RTT_MEMCPY((void*)pDst, pData + Rem, NumBytesAtOnce);
    6926:	6868      	ldr	r0, [r5, #4]
    6928:	4622      	mov	r2, r4
    692a:	eb07 0108 	add.w	r1, r7, r8
    692e:	e7ee      	b.n	690e <_WriteNoCheck+0x1a>

00006930 <_WriteBlocking>:
static unsigned _WriteBlocking(SEGGER_RTT_BUFFER_UP* pRing, const char* pBuffer, unsigned NumBytes) {
    6930:	e92d 43f8 	stmdb	sp!, {r3, r4, r5, r6, r7, r8, r9, lr}
  WrOff = pRing->WrOff;
    6934:	68c5      	ldr	r5, [r0, #12]
static unsigned _WriteBlocking(SEGGER_RTT_BUFFER_UP* pRing, const char* pBuffer, unsigned NumBytes) {
    6936:	4606      	mov	r6, r0
    6938:	4689      	mov	r9, r1
    693a:	4617      	mov	r7, r2
  NumBytesWritten = 0u;
    693c:	f04f 0800 	mov.w	r8, #0
    RdOff = pRing->RdOff;                         // May be changed by host (debug probe) in the meantime
    6940:	6934      	ldr	r4, [r6, #16]
      NumBytesToWrite = pRing->SizeOfBuffer - (WrOff - RdOff + 1u);
    6942:	68b3      	ldr	r3, [r6, #8]
    pDst = (pRing->pBuffer + WrOff) + SEGGER_RTT_UNCACHED_OFF;
    6944:	6870      	ldr	r0, [r6, #4]
    if (RdOff > WrOff) {
    6946:	42a5      	cmp	r5, r4
      NumBytesToWrite = pRing->SizeOfBuffer - (WrOff - RdOff + 1u);
    6948:	bf28      	it	cs
    694a:	18e4      	addcs	r4, r4, r3
    694c:	3c01      	subs	r4, #1
    694e:	1b62      	subs	r2, r4, r5
    NumBytesToWrite = MIN(NumBytesToWrite, (pRing->SizeOfBuffer - WrOff));      // Number of bytes that can be written until buffer wrap-around
    6950:	1b5c      	subs	r4, r3, r5
    NumBytesToWrite = MIN(NumBytesToWrite, NumBytes);
    6952:	42bc      	cmp	r4, r7
    6954:	bf28      	it	cs
    6956:	463c      	movcs	r4, r7
    6958:	4294      	cmp	r4, r2
    695a:	bf28      	it	cs
    695c:	4614      	movcs	r4, r2
    SEGGER_RTT_MEMCPY((void*)pDst, pBuffer, NumBytesToWrite);
    695e:	4649      	mov	r1, r9
    6960:	4622      	mov	r2, r4
    6962:	4428      	add	r0, r5
    6964:	f7ff fa83 	bl	5e6e <memcpy>
    if (WrOff == pRing->SizeOfBuffer) {
    6968:	68b3      	ldr	r3, [r6, #8]
    WrOff           += NumBytesToWrite;
    696a:	4425      	add	r5, r4
    NumBytesWritten += NumBytesToWrite;
    696c:	44a0      	add	r8, r4
    pBuffer         += NumBytesToWrite;
    696e:	44a1      	add	r9, r4
    NumBytes        -= NumBytesToWrite;
    6970:	1b3f      	subs	r7, r7, r4
      WrOff = 0u;
    6972:	42ab      	cmp	r3, r5
    6974:	bf08      	it	eq
    6976:	2500      	moveq	r5, #0
    RTT__DMB();                     // Force data write to be complete before writing the <WrOff>, in case CPU is allowed to change the order of memory accesses
    6978:	f3bf 8f5f 	dmb	sy
    pRing->WrOff = WrOff;
    697c:	60f5      	str	r5, [r6, #12]
  } while (NumBytes);
    697e:	2f00      	cmp	r7, #0
    6980:	d1de      	bne.n	6940 <_WriteBlocking+0x10>
}
    6982:	4640      	mov	r0, r8
    6984:	e8bd 83f8 	ldmia.w	sp!, {r3, r4, r5, r6, r7, r8, r9, pc}

00006988 <SEGGER_RTT_Init>:
*    Initializes the RTT Control Block.
*    Should be used in RAM targets, at start of the application.
*
*/
void SEGGER_RTT_Init (void) {
  _DoInit();
    6988:	f7fd bfb8 	b.w	48fc <_DoInit>

0000698c <rtt_init>:
 */

K_MUTEX_DEFINE(rtt_term_mutex);

static int rtt_init(const struct device *unused)
{
    698c:	b508      	push	{r3, lr}
	ARG_UNUSED(unused);

	SEGGER_RTT_Init();
    698e:	f7ff fffb 	bl	6988 <SEGGER_RTT_Init>

	return 0;
}
    6992:	2000      	movs	r0, #0
    6994:	bd08      	pop	{r3, pc}

00006996 <z_device_state_init>:
}
    6996:	4770      	bx	lr

00006998 <z_device_is_ready>:
{
	/*
	 * if an invalid device pointer is passed as argument, this call
	 * reports the `device` as not ready for usage.
	 */
	if (dev == NULL) {
    6998:	b138      	cbz	r0, 69aa <z_device_is_ready+0x12>
		return false;
	}

	return dev->state->initialized && (dev->state->init_res == 0U);
    699a:	68c3      	ldr	r3, [r0, #12]
    699c:	8818      	ldrh	r0, [r3, #0]
    699e:	f3c0 0008 	ubfx	r0, r0, #0, #9
    69a2:	f5a0 7380 	sub.w	r3, r0, #256	; 0x100
    69a6:	4258      	negs	r0, r3
    69a8:	4158      	adcs	r0, r3
}
    69aa:	4770      	bx	lr

000069ac <arch_system_halt>:
	__asm__ volatile(
    69ac:	f04f 0220 	mov.w	r2, #32
    69b0:	f3ef 8311 	mrs	r3, BASEPRI
    69b4:	f382 8812 	msr	BASEPRI_MAX, r2
    69b8:	f3bf 8f6f 	isb	sy
	/* TODO: What's the best way to totally halt the system if SMP
	 * is enabled?
	 */

	(void)arch_irq_lock();
	for (;;) {
    69bc:	e7fe      	b.n	69bc <arch_system_halt+0x10>

000069be <k_sys_fatal_error_handler>:
/* LCOV_EXCL_STOP */

/* LCOV_EXCL_START */
__weak void k_sys_fatal_error_handler(unsigned int reason,
				      const z_arch_esf_t *esf)
{
    69be:	b508      	push	{r3, lr}
	ARG_UNUSED(esf);

	LOG_PANIC();
	LOG_ERR("Halting system");
	arch_system_halt(reason);
    69c0:	f7ff fff4 	bl	69ac <arch_system_halt>

000069c4 <z_fatal_error>:
	return 0;
#endif
}

void z_fatal_error(unsigned int reason, const z_arch_esf_t *esf)
{
    69c4:	b5f8      	push	{r3, r4, r5, r6, r7, lr}
    69c6:	4605      	mov	r5, r0
    69c8:	460e      	mov	r6, r1
    69ca:	f04f 0320 	mov.w	r3, #32
    69ce:	f3ef 8711 	mrs	r7, BASEPRI
    69d2:	f383 8812 	msr	BASEPRI_MAX, r3
    69d6:	f3bf 8f6f 	isb	sy
	return z_impl_z_current_get();
    69da:	f7fe fe17 	bl	560c <z_impl_z_current_get>
	LOG_ERR("Current thread: %p (%s)", thread,
		log_strdup(thread_name_get(thread)));

	coredump(reason, esf, thread);

	k_sys_fatal_error_handler(reason, esf);
    69de:	4631      	mov	r1, r6
    69e0:	4604      	mov	r4, r0
    69e2:	4628      	mov	r0, r5
    69e4:	f7ff ffeb 	bl	69be <k_sys_fatal_error_handler>
	__asm__ volatile(
    69e8:	f387 8811 	msr	BASEPRI, r7
    69ec:	f3bf 8f6f 	isb	sy
	z_impl_k_thread_abort(thread);
    69f0:	4620      	mov	r0, r4
	arch_irq_unlock(key);

	if (IS_ENABLED(CONFIG_MULTITHREADING)) {
		k_thread_abort(thread);
	}
}
    69f2:	e8bd 40f8 	ldmia.w	sp!, {r3, r4, r5, r6, r7, lr}
    69f6:	f7fb bc61 	b.w	22bc <z_impl_k_thread_abort>

000069fa <k_is_in_isr>:
  __ASM volatile ("MRS %0, ipsr" : "=r" (result) );
    69fa:	f3ef 8005 	mrs	r0, IPSR
}
    69fe:	3800      	subs	r0, #0
    6a00:	bf18      	it	ne
    6a02:	2001      	movne	r0, #1
    6a04:	4770      	bx	lr

00006a06 <z_impl_k_thread_name_set>:
}
    6a06:	f06f 0057 	mvn.w	r0, #87	; 0x57
    6a0a:	4770      	bx	lr

00006a0c <z_impl_k_thread_start>:
	z_sched_start(thread);
    6a0c:	f7fe bc92 	b.w	5334 <z_sched_start>

00006a10 <z_pm_save_idle_exit>:
{
    6a10:	b508      	push	{r3, lr}
	pm_system_resume();
    6a12:	f7fb f8d3 	bl	1bbc <pm_system_resume>
}
    6a16:	e8bd 4008 	ldmia.w	sp!, {r3, lr}
	sys_clock_idle_exit();
    6a1a:	f7ff bf08 	b.w	682e <sys_clock_idle_exit>

00006a1e <flag_test_and_clear>:
	return (*flagp & BIT(bit)) != 0U;
    6a1e:	6802      	ldr	r2, [r0, #0]
	*flagp &= ~BIT(bit);
    6a20:	2301      	movs	r3, #1
    6a22:	408b      	lsls	r3, r1
    6a24:	ea22 0303 	bic.w	r3, r2, r3
    6a28:	6003      	str	r3, [r0, #0]
	return (*flagp & BIT(bit)) != 0U;
    6a2a:	fa22 f001 	lsr.w	r0, r2, r1
}
    6a2e:	f000 0001 	and.w	r0, r0, #1
    6a32:	4770      	bx	lr

00006a34 <notify_queue_locked.isra.0>:
	if (queue != NULL) {
    6a34:	b120      	cbz	r0, 6a40 <notify_queue_locked.isra.0+0xc>
		rv = z_sched_wake(&queue->notifyq, 0, NULL);
    6a36:	2200      	movs	r2, #0
    6a38:	4611      	mov	r1, r2
    6a3a:	3088      	adds	r0, #136	; 0x88
    6a3c:	f000 b8ce 	b.w	6bdc <z_sched_wake>
}
    6a40:	4770      	bx	lr

00006a42 <work_timeout>:
{
    6a42:	b573      	push	{r0, r1, r4, r5, r6, lr}
    6a44:	4604      	mov	r4, r0
	__asm__ volatile(
    6a46:	f04f 0320 	mov.w	r3, #32
    6a4a:	f3ef 8511 	mrs	r5, BASEPRI
    6a4e:	f383 8812 	msr	BASEPRI_MAX, r3
    6a52:	f3bf 8f6f 	isb	sy
	struct k_work_q *queue = NULL;
    6a56:	2300      	movs	r3, #0
	if (flag_test_and_clear(&wp->flags, K_WORK_DELAYED_BIT)) {
    6a58:	f1a0 0610 	sub.w	r6, r0, #16
    6a5c:	2103      	movs	r1, #3
    6a5e:	3804      	subs	r0, #4
	struct k_work_q *queue = NULL;
    6a60:	9301      	str	r3, [sp, #4]
	if (flag_test_and_clear(&wp->flags, K_WORK_DELAYED_BIT)) {
    6a62:	f7ff ffdc 	bl	6a1e <flag_test_and_clear>
    6a66:	b128      	cbz	r0, 6a74 <work_timeout+0x32>
		queue = dw->queue;
    6a68:	69a3      	ldr	r3, [r4, #24]
    6a6a:	9301      	str	r3, [sp, #4]
		(void)submit_to_queue_locked(wp, &queue);
    6a6c:	a901      	add	r1, sp, #4
    6a6e:	4630      	mov	r0, r6
    6a70:	f7fe fa6c 	bl	4f4c <submit_to_queue_locked>
	__asm__ volatile(
    6a74:	f385 8811 	msr	BASEPRI, r5
    6a78:	f3bf 8f6f 	isb	sy
}
    6a7c:	b002      	add	sp, #8
    6a7e:	bd70      	pop	{r4, r5, r6, pc}

00006a80 <k_work_init_delayable>:
{
    6a80:	b538      	push	{r3, r4, r5, lr}
	*dwork = (struct k_work_delayable){
    6a82:	2230      	movs	r2, #48	; 0x30
{
    6a84:	4604      	mov	r4, r0
    6a86:	460d      	mov	r5, r1
	*dwork = (struct k_work_delayable){
    6a88:	2100      	movs	r1, #0
    6a8a:	f7ff f9fb 	bl	5e84 <memset>
    6a8e:	f44f 7380 	mov.w	r3, #256	; 0x100
    6a92:	6065      	str	r5, [r4, #4]
    6a94:	60e3      	str	r3, [r4, #12]
}
    6a96:	bd38      	pop	{r3, r4, r5, pc}

00006a98 <sys_dlist_remove>:
	sys_dnode_t *const next = node->next;
    6a98:	e9d0 3200 	ldrd	r3, r2, [r0]
	prev->next = next;
    6a9c:	6013      	str	r3, [r2, #0]
	next->prev = prev;
    6a9e:	605a      	str	r2, [r3, #4]
	node->next = NULL;
    6aa0:	2300      	movs	r3, #0
	node->prev = NULL;
    6aa2:	e9c0 3300 	strd	r3, r3, [r0]
	sys_dnode_init(node);
}
    6aa6:	4770      	bx	lr

00006aa8 <unpend_thread_no_timeout>:
{
    6aa8:	b508      	push	{r3, lr}
	sys_dlist_remove(&thread->base.qnode_dlist);
    6aaa:	f7ff fff5 	bl	6a98 <sys_dlist_remove>
	thread->base.thread_state &= ~_THREAD_PENDING;
    6aae:	7b43      	ldrb	r3, [r0, #13]
    6ab0:	f023 0302 	bic.w	r3, r3, #2
    6ab4:	7343      	strb	r3, [r0, #13]
	thread->base.pended_on = NULL;
    6ab6:	2300      	movs	r3, #0
    6ab8:	6083      	str	r3, [r0, #8]
}
    6aba:	bd08      	pop	{r3, pc}

00006abc <z_reschedule_irqlock>:
	return arch_irq_unlocked(key) && !arch_is_in_isr();
    6abc:	4603      	mov	r3, r0
    6abe:	b920      	cbnz	r0, 6aca <z_reschedule_irqlock+0xe>
    6ac0:	f3ef 8205 	mrs	r2, IPSR
	if (resched(key)) {
    6ac4:	b90a      	cbnz	r2, 6aca <z_reschedule_irqlock+0xe>
	ret = arch_swap(key);
    6ac6:	f7fb ba11 	b.w	1eec <arch_swap>
    6aca:	f383 8811 	msr	BASEPRI, r3
    6ace:	f3bf 8f6f 	isb	sy
}
    6ad2:	4770      	bx	lr

00006ad4 <z_reschedule_unlocked>:
	__asm__ volatile(
    6ad4:	f04f 0320 	mov.w	r3, #32
    6ad8:	f3ef 8011 	mrs	r0, BASEPRI
    6adc:	f383 8812 	msr	BASEPRI_MAX, r3
    6ae0:	f3bf 8f6f 	isb	sy
	(void) z_reschedule_irqlock(arch_irq_lock());
    6ae4:	f7ff bfea 	b.w	6abc <z_reschedule_irqlock>

00006ae8 <z_priq_dumb_best>:
{
    6ae8:	4603      	mov	r3, r0
	return list->head == list;
    6aea:	6800      	ldr	r0, [r0, #0]
}
    6aec:	4283      	cmp	r3, r0
    6aee:	bf08      	it	eq
    6af0:	2000      	moveq	r0, #0
    6af2:	4770      	bx	lr

00006af4 <z_ready_thread>:
{
    6af4:	b510      	push	{r4, lr}
    6af6:	f04f 0320 	mov.w	r3, #32
    6afa:	f3ef 8411 	mrs	r4, BASEPRI
    6afe:	f383 8812 	msr	BASEPRI_MAX, r3
    6b02:	f3bf 8f6f 	isb	sy
			ready_thread(thread);
    6b06:	f7fe fbdf 	bl	52c8 <ready_thread>
	__asm__ volatile(
    6b0a:	f384 8811 	msr	BASEPRI, r4
    6b0e:	f3bf 8f6f 	isb	sy
}
    6b12:	bd10      	pop	{r4, pc}

00006b14 <z_thread_timeout>:
{
    6b14:	b510      	push	{r4, lr}
    6b16:	4601      	mov	r1, r0
	__asm__ volatile(
    6b18:	f04f 0320 	mov.w	r3, #32
    6b1c:	f3ef 8411 	mrs	r4, BASEPRI
    6b20:	f383 8812 	msr	BASEPRI_MAX, r3
    6b24:	f3bf 8f6f 	isb	sy
		if (!killed) {
    6b28:	f810 3c0b 	ldrb.w	r3, [r0, #-11]
    6b2c:	f013 0f28 	tst.w	r3, #40	; 0x28
    6b30:	d10d      	bne.n	6b4e <z_thread_timeout+0x3a>
			if (thread->base.pended_on != NULL) {
    6b32:	f851 3c10 	ldr.w	r3, [r1, #-16]
	struct k_thread *thread = CONTAINER_OF(timeout,
    6b36:	3818      	subs	r0, #24
			if (thread->base.pended_on != NULL) {
    6b38:	b10b      	cbz	r3, 6b3e <z_thread_timeout+0x2a>
				unpend_thread_no_timeout(thread);
    6b3a:	f7ff ffb5 	bl	6aa8 <unpend_thread_no_timeout>
	thread->base.thread_state &= ~_THREAD_SUSPENDED;
    6b3e:	f811 3c0b 	ldrb.w	r3, [r1, #-11]
    6b42:	f023 0314 	bic.w	r3, r3, #20
    6b46:	f801 3c0b 	strb.w	r3, [r1, #-11]
			ready_thread(thread);
    6b4a:	f7fe fbbd 	bl	52c8 <ready_thread>
	__asm__ volatile(
    6b4e:	f384 8811 	msr	BASEPRI, r4
    6b52:	f3bf 8f6f 	isb	sy
}
    6b56:	bd10      	pop	{r4, pc}

00006b58 <add_to_waitq_locked>:
{
    6b58:	b538      	push	{r3, r4, r5, lr}
    6b5a:	4604      	mov	r4, r0
    6b5c:	460d      	mov	r5, r1
	unready_thread(thread);
    6b5e:	f7fe fc07 	bl	5370 <unready_thread>
	thread->base.thread_state |= _THREAD_PENDING;
    6b62:	7b63      	ldrb	r3, [r4, #13]
    6b64:	f043 0302 	orr.w	r3, r3, #2
    6b68:	7363      	strb	r3, [r4, #13]
	if (wait_q != NULL) {
    6b6a:	b195      	cbz	r5, 6b92 <add_to_waitq_locked+0x3a>
    6b6c:	682b      	ldr	r3, [r5, #0]
		thread->base.pended_on = wait_q;
    6b6e:	60a5      	str	r5, [r4, #8]
	return sys_dlist_is_empty(list) ? NULL : list->head;
    6b70:	429d      	cmp	r5, r3
    6b72:	d015      	beq.n	6ba0 <add_to_waitq_locked+0x48>
	SYS_DLIST_FOR_EACH_CONTAINER(pq, t, base.qnode_dlist) {
    6b74:	b1a3      	cbz	r3, 6ba0 <add_to_waitq_locked+0x48>
	int32_t b1 = thread_1->base.prio;
    6b76:	f994 100e 	ldrsb.w	r1, [r4, #14]
	int32_t b2 = thread_2->base.prio;
    6b7a:	f993 200e 	ldrsb.w	r2, [r3, #14]
	if (b1 != b2) {
    6b7e:	4291      	cmp	r1, r2
    6b80:	d008      	beq.n	6b94 <add_to_waitq_locked+0x3c>
		return b2 - b1;
    6b82:	1a52      	subs	r2, r2, r1
		if (z_sched_prio_cmp(thread, t) > 0) {
    6b84:	2a00      	cmp	r2, #0
    6b86:	dd05      	ble.n	6b94 <add_to_waitq_locked+0x3c>
	sys_dnode_t *const prev = successor->prev;
    6b88:	685a      	ldr	r2, [r3, #4]
	node->next = successor;
    6b8a:	e9c4 3200 	strd	r3, r2, [r4]
	prev->next = node;
    6b8e:	6014      	str	r4, [r2, #0]
	successor->prev = node;
    6b90:	605c      	str	r4, [r3, #4]
}
    6b92:	bd38      	pop	{r3, r4, r5, pc}
	return (node == list->tail) ? NULL : node->next;
    6b94:	686a      	ldr	r2, [r5, #4]
    6b96:	4293      	cmp	r3, r2
    6b98:	d002      	beq.n	6ba0 <add_to_waitq_locked+0x48>
    6b9a:	681b      	ldr	r3, [r3, #0]
	SYS_DLIST_FOR_EACH_CONTAINER(pq, t, base.qnode_dlist) {
    6b9c:	2b00      	cmp	r3, #0
    6b9e:	d1ec      	bne.n	6b7a <add_to_waitq_locked+0x22>
	sys_dnode_t *const tail = list->tail;
    6ba0:	686b      	ldr	r3, [r5, #4]
	node->prev = tail;
    6ba2:	e9c4 5300 	strd	r5, r3, [r4]
	tail->next = node;
    6ba6:	601c      	str	r4, [r3, #0]
	list->tail = node;
    6ba8:	606c      	str	r4, [r5, #4]
}
    6baa:	e7f2      	b.n	6b92 <add_to_waitq_locked+0x3a>

00006bac <z_unpend_first_thread>:
{
    6bac:	b538      	push	{r3, r4, r5, lr}
	__asm__ volatile(
    6bae:	f04f 0320 	mov.w	r3, #32
    6bb2:	f3ef 8511 	mrs	r5, BASEPRI
    6bb6:	f383 8812 	msr	BASEPRI_MAX, r3
    6bba:	f3bf 8f6f 	isb	sy
		thread = _priq_wait_best(&wait_q->waitq);
    6bbe:	f7ff ff93 	bl	6ae8 <z_priq_dumb_best>
		if (thread != NULL) {
    6bc2:	4604      	mov	r4, r0
    6bc4:	b120      	cbz	r0, 6bd0 <z_unpend_first_thread+0x24>
			unpend_thread_no_timeout(thread);
    6bc6:	f7ff ff6f 	bl	6aa8 <unpend_thread_no_timeout>
    6bca:	3018      	adds	r0, #24
    6bcc:	f000 f823 	bl	6c16 <z_abort_timeout>
	__asm__ volatile(
    6bd0:	f385 8811 	msr	BASEPRI, r5
    6bd4:	f3bf 8f6f 	isb	sy
}
    6bd8:	4620      	mov	r0, r4
    6bda:	bd38      	pop	{r3, r4, r5, pc}

00006bdc <z_sched_wake>:
{
    6bdc:	b538      	push	{r3, r4, r5, lr}
	__asm__ volatile(
    6bde:	f04f 0320 	mov.w	r3, #32
    6be2:	f3ef 8511 	mrs	r5, BASEPRI
    6be6:	f383 8812 	msr	BASEPRI_MAX, r3
    6bea:	f3bf 8f6f 	isb	sy
		thread = _priq_wait_best(&wait_q->waitq);
    6bee:	f7ff ff7b 	bl	6ae8 <z_priq_dumb_best>
		if (thread != NULL) {
    6bf2:	4604      	mov	r4, r0
    6bf4:	b150      	cbz	r0, 6c0c <z_sched_wake+0x30>
    6bf6:	6781      	str	r1, [r0, #120]	; 0x78
z_thread_return_value_set_with_data(struct k_thread *thread,
				   unsigned int value,
				   void *data)
{
	arch_thread_return_value_set(thread, value);
	thread->base.swap_data = data;
    6bf8:	6142      	str	r2, [r0, #20]
			unpend_thread_no_timeout(thread);
    6bfa:	f7ff ff55 	bl	6aa8 <unpend_thread_no_timeout>
    6bfe:	3018      	adds	r0, #24
    6c00:	f000 f809 	bl	6c16 <z_abort_timeout>
			ready_thread(thread);
    6c04:	4620      	mov	r0, r4
    6c06:	f7fe fb5f 	bl	52c8 <ready_thread>
			ret = true;
    6c0a:	2001      	movs	r0, #1
	__asm__ volatile(
    6c0c:	f385 8811 	msr	BASEPRI, r5
    6c10:	f3bf 8f6f 	isb	sy
}
    6c14:	bd38      	pop	{r3, r4, r5, pc}

00006c16 <z_abort_timeout>:
{
    6c16:	b510      	push	{r4, lr}
	__asm__ volatile(
    6c18:	f04f 0220 	mov.w	r2, #32
    6c1c:	f3ef 8411 	mrs	r4, BASEPRI
    6c20:	f382 8812 	msr	BASEPRI_MAX, r2
    6c24:	f3bf 8f6f 	isb	sy
		if (sys_dnode_is_linked(&to->node)) {
    6c28:	6803      	ldr	r3, [r0, #0]
    6c2a:	b13b      	cbz	r3, 6c3c <z_abort_timeout+0x26>
			remove_timeout(to);
    6c2c:	f7fe fda4 	bl	5778 <remove_timeout>
			ret = 0;
    6c30:	2000      	movs	r0, #0
	__asm__ volatile(
    6c32:	f384 8811 	msr	BASEPRI, r4
    6c36:	f3bf 8f6f 	isb	sy
}
    6c3a:	bd10      	pop	{r4, pc}
	int ret = -EINVAL;
    6c3c:	f06f 0015 	mvn.w	r0, #21
    6c40:	e7f7      	b.n	6c32 <z_abort_timeout+0x1c>

00006c42 <z_get_next_timeout_expiry>:
{
    6c42:	b510      	push	{r4, lr}
	__asm__ volatile(
    6c44:	f04f 0320 	mov.w	r3, #32
    6c48:	f3ef 8411 	mrs	r4, BASEPRI
    6c4c:	f383 8812 	msr	BASEPRI_MAX, r3
    6c50:	f3bf 8f6f 	isb	sy
		ret = next_timeout();
    6c54:	f7fe fd68 	bl	5728 <next_timeout>
	__asm__ volatile(
    6c58:	f384 8811 	msr	BASEPRI, r4
    6c5c:	f3bf 8f6f 	isb	sy
}
    6c60:	bd10      	pop	{r4, pc}

00006c62 <z_set_timeout_expiry>:
{
    6c62:	b570      	push	{r4, r5, r6, lr}
    6c64:	4604      	mov	r4, r0
    6c66:	460d      	mov	r5, r1
	__asm__ volatile(
    6c68:	f04f 0320 	mov.w	r3, #32
    6c6c:	f3ef 8611 	mrs	r6, BASEPRI
    6c70:	f383 8812 	msr	BASEPRI_MAX, r3
    6c74:	f3bf 8f6f 	isb	sy
		int next_to = next_timeout();
    6c78:	f7fe fd56 	bl	5728 <next_timeout>
		if (!imminent && (sooner || IS_ENABLED(CONFIG_SMP))) {
    6c7c:	2801      	cmp	r0, #1
    6c7e:	dd05      	ble.n	6c8c <z_set_timeout_expiry+0x2a>
    6c80:	42a0      	cmp	r0, r4
    6c82:	db03      	blt.n	6c8c <z_set_timeout_expiry+0x2a>
			sys_clock_set_timeout(MIN(ticks, next_to), is_idle);
    6c84:	4629      	mov	r1, r5
    6c86:	4620      	mov	r0, r4
    6c88:	f7fc fd54 	bl	3734 <sys_clock_set_timeout>
	__asm__ volatile(
    6c8c:	f386 8811 	msr	BASEPRI, r6
    6c90:	f3bf 8f6f 	isb	sy
}
    6c94:	bd70      	pop	{r4, r5, r6, pc}

00006c96 <sys_clock_tick_get_32>:

uint32_t sys_clock_tick_get_32(void)
{
    6c96:	b508      	push	{r3, lr}
#ifdef CONFIG_TICKLESS_KERNEL
	return (uint32_t)sys_clock_tick_get();
    6c98:	f7fe fe5e 	bl	5958 <sys_clock_tick_get>
#else
	return (uint32_t)curr_tick;
#endif
}
    6c9c:	bd08      	pop	{r3, pc}

00006c9e <z_impl_k_busy_wait>:
#endif

void z_impl_k_busy_wait(uint32_t usec_to_wait)
{
	SYS_PORT_TRACING_FUNC_ENTER(k_thread, busy_wait, usec_to_wait);
	if (usec_to_wait == 0U) {
    6c9e:	b108      	cbz	r0, 6ca4 <z_impl_k_busy_wait+0x6>
		if ((current_cycles - start_cycles) >= cycles_to_wait) {
			break;
		}
	}
#else
	arch_busy_wait(usec_to_wait);
    6ca0:	f7fb bbfe 	b.w	24a0 <arch_busy_wait>
#endif /* CONFIG_ARCH_HAS_CUSTOM_BUSY_WAIT */
	SYS_PORT_TRACING_FUNC_EXIT(k_thread, busy_wait, usec_to_wait);
}
    6ca4:	4770      	bx	lr
	...

00006ca8 <z_arm_platform_init>:
	 */
#if defined(CONFIG_ARMV6_M_ARMV8_M_BASELINE)
	ldr r0, =SystemInit
	bx r0
#elif defined(CONFIG_ARMV7_M_ARMV8_M_MAINLINE)
	b SystemInit
    6ca8:	f7fc bd9c 	b.w	37e4 <SystemInit>
